ARM GAS  /tmp/cckLhDKf.s 			page 1


   1              		.cpu cortex-m4
   2              		.eabi_attribute 27, 1
   3              		.eabi_attribute 28, 1
   4              		.eabi_attribute 20, 1
   5              		.eabi_attribute 21, 1
   6              		.eabi_attribute 23, 3
   7              		.eabi_attribute 24, 1
   8              		.eabi_attribute 25, 1
   9              		.eabi_attribute 26, 1
  10              		.eabi_attribute 30, 6
  11              		.eabi_attribute 34, 1
  12              		.eabi_attribute 18, 4
  13              		.file	"stm32f3xx_hal_exti.c"
  14              		.text
  15              	.Ltext0:
  16              		.cfi_sections	.debug_frame
  17              		.section	.text.HAL_EXTI_SetConfigLine,"ax",%progbits
  18              		.align	1
  19              		.global	HAL_EXTI_SetConfigLine
  20              		.syntax unified
  21              		.thumb
  22              		.thumb_func
  23              		.fpu fpv4-sp-d16
  25              	HAL_EXTI_SetConfigLine:
  26              	.LFB123:
  27              		.file 1 "Drivers/STM32F3xx_HAL_Driver/Src/stm32f3xx_hal_exti.c"
   1:Drivers/STM32F3xx_HAL_Driver/Src/stm32f3xx_hal_exti.c **** /**
   2:Drivers/STM32F3xx_HAL_Driver/Src/stm32f3xx_hal_exti.c ****   ******************************************************************************
   3:Drivers/STM32F3xx_HAL_Driver/Src/stm32f3xx_hal_exti.c ****   * @file    stm32f3xx_hal_exti.c
   4:Drivers/STM32F3xx_HAL_Driver/Src/stm32f3xx_hal_exti.c ****   * @author  MCD Application Team
   5:Drivers/STM32F3xx_HAL_Driver/Src/stm32f3xx_hal_exti.c ****   * @brief   EXTI HAL module driver.
   6:Drivers/STM32F3xx_HAL_Driver/Src/stm32f3xx_hal_exti.c ****   *          This file provides firmware functions to manage the following
   7:Drivers/STM32F3xx_HAL_Driver/Src/stm32f3xx_hal_exti.c ****   *          functionalities of the Extended Interrupts and events controller (EXTI) peripheral:
   8:Drivers/STM32F3xx_HAL_Driver/Src/stm32f3xx_hal_exti.c ****   *           + Initialization and de-initialization functions
   9:Drivers/STM32F3xx_HAL_Driver/Src/stm32f3xx_hal_exti.c ****   *           + IO operation functions
  10:Drivers/STM32F3xx_HAL_Driver/Src/stm32f3xx_hal_exti.c ****   *
  11:Drivers/STM32F3xx_HAL_Driver/Src/stm32f3xx_hal_exti.c ****   @verbatim
  12:Drivers/STM32F3xx_HAL_Driver/Src/stm32f3xx_hal_exti.c ****   ==============================================================================
  13:Drivers/STM32F3xx_HAL_Driver/Src/stm32f3xx_hal_exti.c ****                     ##### EXTI Peripheral features #####
  14:Drivers/STM32F3xx_HAL_Driver/Src/stm32f3xx_hal_exti.c ****   ==============================================================================
  15:Drivers/STM32F3xx_HAL_Driver/Src/stm32f3xx_hal_exti.c ****   [..]
  16:Drivers/STM32F3xx_HAL_Driver/Src/stm32f3xx_hal_exti.c ****     (+) Each Exti line can be configured within this driver.
  17:Drivers/STM32F3xx_HAL_Driver/Src/stm32f3xx_hal_exti.c **** 
  18:Drivers/STM32F3xx_HAL_Driver/Src/stm32f3xx_hal_exti.c ****     (+) Exti line can be configured in 3 different modes
  19:Drivers/STM32F3xx_HAL_Driver/Src/stm32f3xx_hal_exti.c ****         (++) Interrupt
  20:Drivers/STM32F3xx_HAL_Driver/Src/stm32f3xx_hal_exti.c ****         (++) Event
  21:Drivers/STM32F3xx_HAL_Driver/Src/stm32f3xx_hal_exti.c ****         (++) Both of them
  22:Drivers/STM32F3xx_HAL_Driver/Src/stm32f3xx_hal_exti.c **** 
  23:Drivers/STM32F3xx_HAL_Driver/Src/stm32f3xx_hal_exti.c ****     (+) Configurable Exti lines can be configured with 3 different triggers
  24:Drivers/STM32F3xx_HAL_Driver/Src/stm32f3xx_hal_exti.c ****         (++) Rising
  25:Drivers/STM32F3xx_HAL_Driver/Src/stm32f3xx_hal_exti.c ****         (++) Falling
  26:Drivers/STM32F3xx_HAL_Driver/Src/stm32f3xx_hal_exti.c ****         (++) Both of them
  27:Drivers/STM32F3xx_HAL_Driver/Src/stm32f3xx_hal_exti.c **** 
  28:Drivers/STM32F3xx_HAL_Driver/Src/stm32f3xx_hal_exti.c ****     (+) When set in interrupt mode, configurable Exti lines have two different
  29:Drivers/STM32F3xx_HAL_Driver/Src/stm32f3xx_hal_exti.c ****         interrupts pending registers which allow to distinguish which transition
  30:Drivers/STM32F3xx_HAL_Driver/Src/stm32f3xx_hal_exti.c ****         occurs:
  31:Drivers/STM32F3xx_HAL_Driver/Src/stm32f3xx_hal_exti.c ****         (++) Rising edge pending interrupt
ARM GAS  /tmp/cckLhDKf.s 			page 2


  32:Drivers/STM32F3xx_HAL_Driver/Src/stm32f3xx_hal_exti.c ****         (++) Falling
  33:Drivers/STM32F3xx_HAL_Driver/Src/stm32f3xx_hal_exti.c **** 
  34:Drivers/STM32F3xx_HAL_Driver/Src/stm32f3xx_hal_exti.c ****     (+) Exti lines 0 to 15 are linked to gpio pin number 0 to 15. Gpio port can
  35:Drivers/STM32F3xx_HAL_Driver/Src/stm32f3xx_hal_exti.c ****         be selected through multiplexer.
  36:Drivers/STM32F3xx_HAL_Driver/Src/stm32f3xx_hal_exti.c **** 
  37:Drivers/STM32F3xx_HAL_Driver/Src/stm32f3xx_hal_exti.c ****                      ##### How to use this driver #####
  38:Drivers/STM32F3xx_HAL_Driver/Src/stm32f3xx_hal_exti.c ****   ==============================================================================
  39:Drivers/STM32F3xx_HAL_Driver/Src/stm32f3xx_hal_exti.c ****   [..]
  40:Drivers/STM32F3xx_HAL_Driver/Src/stm32f3xx_hal_exti.c **** 
  41:Drivers/STM32F3xx_HAL_Driver/Src/stm32f3xx_hal_exti.c ****     (#) Configure the EXTI line using HAL_EXTI_SetConfigLine().
  42:Drivers/STM32F3xx_HAL_Driver/Src/stm32f3xx_hal_exti.c ****         (++) Choose the interrupt line number by setting "Line" member from
  43:Drivers/STM32F3xx_HAL_Driver/Src/stm32f3xx_hal_exti.c ****              EXTI_ConfigTypeDef structure.
  44:Drivers/STM32F3xx_HAL_Driver/Src/stm32f3xx_hal_exti.c ****         (++) Configure the interrupt and/or event mode using "Mode" member from
  45:Drivers/STM32F3xx_HAL_Driver/Src/stm32f3xx_hal_exti.c ****              EXTI_ConfigTypeDef structure.
  46:Drivers/STM32F3xx_HAL_Driver/Src/stm32f3xx_hal_exti.c ****         (++) For configurable lines, configure rising and/or falling trigger
  47:Drivers/STM32F3xx_HAL_Driver/Src/stm32f3xx_hal_exti.c ****              "Trigger" member from EXTI_ConfigTypeDef structure.
  48:Drivers/STM32F3xx_HAL_Driver/Src/stm32f3xx_hal_exti.c ****         (++) For Exti lines linked to gpio, choose gpio port using "GPIOSel"
  49:Drivers/STM32F3xx_HAL_Driver/Src/stm32f3xx_hal_exti.c ****              member from GPIO_InitTypeDef structure.
  50:Drivers/STM32F3xx_HAL_Driver/Src/stm32f3xx_hal_exti.c **** 
  51:Drivers/STM32F3xx_HAL_Driver/Src/stm32f3xx_hal_exti.c ****     (#) Get current Exti configuration of a dedicated line using
  52:Drivers/STM32F3xx_HAL_Driver/Src/stm32f3xx_hal_exti.c ****         HAL_EXTI_GetConfigLine().
  53:Drivers/STM32F3xx_HAL_Driver/Src/stm32f3xx_hal_exti.c ****         (++) Provide exiting handle as parameter.
  54:Drivers/STM32F3xx_HAL_Driver/Src/stm32f3xx_hal_exti.c ****         (++) Provide pointer on EXTI_ConfigTypeDef structure as second parameter.
  55:Drivers/STM32F3xx_HAL_Driver/Src/stm32f3xx_hal_exti.c **** 
  56:Drivers/STM32F3xx_HAL_Driver/Src/stm32f3xx_hal_exti.c ****     (#) Clear Exti configuration of a dedicated line using HAL_EXTI_GetConfigLine().
  57:Drivers/STM32F3xx_HAL_Driver/Src/stm32f3xx_hal_exti.c ****         (++) Provide exiting handle as parameter.
  58:Drivers/STM32F3xx_HAL_Driver/Src/stm32f3xx_hal_exti.c **** 
  59:Drivers/STM32F3xx_HAL_Driver/Src/stm32f3xx_hal_exti.c ****     (#) Register callback to treat Exti interrupts using HAL_EXTI_RegisterCallback().
  60:Drivers/STM32F3xx_HAL_Driver/Src/stm32f3xx_hal_exti.c ****         (++) Provide exiting handle as first parameter.
  61:Drivers/STM32F3xx_HAL_Driver/Src/stm32f3xx_hal_exti.c ****         (++) Provide which callback will be registered using one value from
  62:Drivers/STM32F3xx_HAL_Driver/Src/stm32f3xx_hal_exti.c ****              EXTI_CallbackIDTypeDef.
  63:Drivers/STM32F3xx_HAL_Driver/Src/stm32f3xx_hal_exti.c ****         (++) Provide callback function pointer.
  64:Drivers/STM32F3xx_HAL_Driver/Src/stm32f3xx_hal_exti.c **** 
  65:Drivers/STM32F3xx_HAL_Driver/Src/stm32f3xx_hal_exti.c ****     (#) Get interrupt pending bit using HAL_EXTI_GetPending().
  66:Drivers/STM32F3xx_HAL_Driver/Src/stm32f3xx_hal_exti.c **** 
  67:Drivers/STM32F3xx_HAL_Driver/Src/stm32f3xx_hal_exti.c ****     (#) Clear interrupt pending bit using HAL_EXTI_GetPending().
  68:Drivers/STM32F3xx_HAL_Driver/Src/stm32f3xx_hal_exti.c **** 
  69:Drivers/STM32F3xx_HAL_Driver/Src/stm32f3xx_hal_exti.c ****     (#) Generate software interrupt using HAL_EXTI_GenerateSWI().
  70:Drivers/STM32F3xx_HAL_Driver/Src/stm32f3xx_hal_exti.c **** 
  71:Drivers/STM32F3xx_HAL_Driver/Src/stm32f3xx_hal_exti.c ****   @endverbatim
  72:Drivers/STM32F3xx_HAL_Driver/Src/stm32f3xx_hal_exti.c ****   ******************************************************************************
  73:Drivers/STM32F3xx_HAL_Driver/Src/stm32f3xx_hal_exti.c ****   * @attention
  74:Drivers/STM32F3xx_HAL_Driver/Src/stm32f3xx_hal_exti.c ****   *
  75:Drivers/STM32F3xx_HAL_Driver/Src/stm32f3xx_hal_exti.c ****   * <h2><center>&copy; Copyright (c) 2019 STMicroelectronics.
  76:Drivers/STM32F3xx_HAL_Driver/Src/stm32f3xx_hal_exti.c ****   * All rights reserved.</center></h2>
  77:Drivers/STM32F3xx_HAL_Driver/Src/stm32f3xx_hal_exti.c ****   *
  78:Drivers/STM32F3xx_HAL_Driver/Src/stm32f3xx_hal_exti.c ****   * This software component is licensed by ST under BSD 3-Clause license,
  79:Drivers/STM32F3xx_HAL_Driver/Src/stm32f3xx_hal_exti.c ****   * the "License"; You may not use this file except in compliance with the
  80:Drivers/STM32F3xx_HAL_Driver/Src/stm32f3xx_hal_exti.c ****   * License. You may obtain a copy of the License at:
  81:Drivers/STM32F3xx_HAL_Driver/Src/stm32f3xx_hal_exti.c ****   *                        opensource.org/licenses/BSD-3-Clause
  82:Drivers/STM32F3xx_HAL_Driver/Src/stm32f3xx_hal_exti.c ****   *
  83:Drivers/STM32F3xx_HAL_Driver/Src/stm32f3xx_hal_exti.c ****   ******************************************************************************
  84:Drivers/STM32F3xx_HAL_Driver/Src/stm32f3xx_hal_exti.c ****   */
  85:Drivers/STM32F3xx_HAL_Driver/Src/stm32f3xx_hal_exti.c **** 
  86:Drivers/STM32F3xx_HAL_Driver/Src/stm32f3xx_hal_exti.c **** /* Includes ------------------------------------------------------------------*/
  87:Drivers/STM32F3xx_HAL_Driver/Src/stm32f3xx_hal_exti.c **** #include "stm32f3xx_hal.h"
  88:Drivers/STM32F3xx_HAL_Driver/Src/stm32f3xx_hal_exti.c **** 
ARM GAS  /tmp/cckLhDKf.s 			page 3


  89:Drivers/STM32F3xx_HAL_Driver/Src/stm32f3xx_hal_exti.c **** /** @addtogroup STM32F3xx_HAL_Driver
  90:Drivers/STM32F3xx_HAL_Driver/Src/stm32f3xx_hal_exti.c ****   * @{
  91:Drivers/STM32F3xx_HAL_Driver/Src/stm32f3xx_hal_exti.c ****   */
  92:Drivers/STM32F3xx_HAL_Driver/Src/stm32f3xx_hal_exti.c **** 
  93:Drivers/STM32F3xx_HAL_Driver/Src/stm32f3xx_hal_exti.c **** /** @addtogroup EXTI
  94:Drivers/STM32F3xx_HAL_Driver/Src/stm32f3xx_hal_exti.c ****   * @{
  95:Drivers/STM32F3xx_HAL_Driver/Src/stm32f3xx_hal_exti.c ****   */
  96:Drivers/STM32F3xx_HAL_Driver/Src/stm32f3xx_hal_exti.c **** /** MISRA C:2012 deviation rule has been granted for following rule:
  97:Drivers/STM32F3xx_HAL_Driver/Src/stm32f3xx_hal_exti.c ****   * Rule-18.1_b - Medium: Array `EXTICR' 1st subscript interval [0,7] may be out
  98:Drivers/STM32F3xx_HAL_Driver/Src/stm32f3xx_hal_exti.c ****   * of bounds [0,3] in following API :
  99:Drivers/STM32F3xx_HAL_Driver/Src/stm32f3xx_hal_exti.c ****   * HAL_EXTI_SetConfigLine
 100:Drivers/STM32F3xx_HAL_Driver/Src/stm32f3xx_hal_exti.c ****   * HAL_EXTI_GetConfigLine
 101:Drivers/STM32F3xx_HAL_Driver/Src/stm32f3xx_hal_exti.c ****   * HAL_EXTI_ClearConfigLine
 102:Drivers/STM32F3xx_HAL_Driver/Src/stm32f3xx_hal_exti.c ****   */
 103:Drivers/STM32F3xx_HAL_Driver/Src/stm32f3xx_hal_exti.c **** 
 104:Drivers/STM32F3xx_HAL_Driver/Src/stm32f3xx_hal_exti.c **** #ifdef HAL_EXTI_MODULE_ENABLED
 105:Drivers/STM32F3xx_HAL_Driver/Src/stm32f3xx_hal_exti.c **** 
 106:Drivers/STM32F3xx_HAL_Driver/Src/stm32f3xx_hal_exti.c **** /* Private typedef -----------------------------------------------------------*/
 107:Drivers/STM32F3xx_HAL_Driver/Src/stm32f3xx_hal_exti.c **** /* Private defines -----------------------------------------------------------*/
 108:Drivers/STM32F3xx_HAL_Driver/Src/stm32f3xx_hal_exti.c **** /** @defgroup EXTI_Private_Constants EXTI Private Constants
 109:Drivers/STM32F3xx_HAL_Driver/Src/stm32f3xx_hal_exti.c ****   * @{
 110:Drivers/STM32F3xx_HAL_Driver/Src/stm32f3xx_hal_exti.c ****   */
 111:Drivers/STM32F3xx_HAL_Driver/Src/stm32f3xx_hal_exti.c **** #define EXTI_MODE_OFFSET                    0x08u   /* 0x20: offset between CPU IMR/EMR registers *
 112:Drivers/STM32F3xx_HAL_Driver/Src/stm32f3xx_hal_exti.c **** #define EXTI_CONFIG_OFFSET                  0x08u   /* 0x20: offset between CPU Rising/Falling conf
 113:Drivers/STM32F3xx_HAL_Driver/Src/stm32f3xx_hal_exti.c **** /**
 114:Drivers/STM32F3xx_HAL_Driver/Src/stm32f3xx_hal_exti.c ****   * @}
 115:Drivers/STM32F3xx_HAL_Driver/Src/stm32f3xx_hal_exti.c ****   */
 116:Drivers/STM32F3xx_HAL_Driver/Src/stm32f3xx_hal_exti.c **** 
 117:Drivers/STM32F3xx_HAL_Driver/Src/stm32f3xx_hal_exti.c **** /* Private macros ------------------------------------------------------------*/
 118:Drivers/STM32F3xx_HAL_Driver/Src/stm32f3xx_hal_exti.c **** /* Private variables ---------------------------------------------------------*/
 119:Drivers/STM32F3xx_HAL_Driver/Src/stm32f3xx_hal_exti.c **** /* Private function prototypes -----------------------------------------------*/
 120:Drivers/STM32F3xx_HAL_Driver/Src/stm32f3xx_hal_exti.c **** /* Exported functions --------------------------------------------------------*/
 121:Drivers/STM32F3xx_HAL_Driver/Src/stm32f3xx_hal_exti.c **** 
 122:Drivers/STM32F3xx_HAL_Driver/Src/stm32f3xx_hal_exti.c **** /** @addtogroup EXTI_Exported_Functions
 123:Drivers/STM32F3xx_HAL_Driver/Src/stm32f3xx_hal_exti.c ****   * @{
 124:Drivers/STM32F3xx_HAL_Driver/Src/stm32f3xx_hal_exti.c ****   */
 125:Drivers/STM32F3xx_HAL_Driver/Src/stm32f3xx_hal_exti.c **** 
 126:Drivers/STM32F3xx_HAL_Driver/Src/stm32f3xx_hal_exti.c **** /** @addtogroup EXTI_Exported_Functions_Group1
 127:Drivers/STM32F3xx_HAL_Driver/Src/stm32f3xx_hal_exti.c ****   * @brief    Configuration functions
 128:Drivers/STM32F3xx_HAL_Driver/Src/stm32f3xx_hal_exti.c ****   *
 129:Drivers/STM32F3xx_HAL_Driver/Src/stm32f3xx_hal_exti.c **** @verbatim
 130:Drivers/STM32F3xx_HAL_Driver/Src/stm32f3xx_hal_exti.c ****  ===============================================================================
 131:Drivers/STM32F3xx_HAL_Driver/Src/stm32f3xx_hal_exti.c ****               ##### Configuration functions #####
 132:Drivers/STM32F3xx_HAL_Driver/Src/stm32f3xx_hal_exti.c ****  ===============================================================================
 133:Drivers/STM32F3xx_HAL_Driver/Src/stm32f3xx_hal_exti.c **** 
 134:Drivers/STM32F3xx_HAL_Driver/Src/stm32f3xx_hal_exti.c **** @endverbatim
 135:Drivers/STM32F3xx_HAL_Driver/Src/stm32f3xx_hal_exti.c ****   * @{
 136:Drivers/STM32F3xx_HAL_Driver/Src/stm32f3xx_hal_exti.c ****   */
 137:Drivers/STM32F3xx_HAL_Driver/Src/stm32f3xx_hal_exti.c **** 
 138:Drivers/STM32F3xx_HAL_Driver/Src/stm32f3xx_hal_exti.c **** /**
 139:Drivers/STM32F3xx_HAL_Driver/Src/stm32f3xx_hal_exti.c ****   * @brief  Set configuration of a dedicated Exti line.
 140:Drivers/STM32F3xx_HAL_Driver/Src/stm32f3xx_hal_exti.c ****   * @param  hexti Exti handle.
 141:Drivers/STM32F3xx_HAL_Driver/Src/stm32f3xx_hal_exti.c ****   * @param  pExtiConfig Pointer on EXTI configuration to be set.
 142:Drivers/STM32F3xx_HAL_Driver/Src/stm32f3xx_hal_exti.c ****   * @retval HAL Status.
 143:Drivers/STM32F3xx_HAL_Driver/Src/stm32f3xx_hal_exti.c ****   */
 144:Drivers/STM32F3xx_HAL_Driver/Src/stm32f3xx_hal_exti.c **** HAL_StatusTypeDef HAL_EXTI_SetConfigLine(EXTI_HandleTypeDef *hexti, EXTI_ConfigTypeDef *pExtiConfig
 145:Drivers/STM32F3xx_HAL_Driver/Src/stm32f3xx_hal_exti.c **** {
ARM GAS  /tmp/cckLhDKf.s 			page 4


  28              		.loc 1 145 0
  29              		.cfi_startproc
  30              		@ args = 0, pretend = 0, frame = 32
  31              		@ frame_needed = 1, uses_anonymous_args = 0
  32              		@ link register save eliminated.
  33 0000 80B4     		push	{r7}
  34              	.LCFI0:
  35              		.cfi_def_cfa_offset 4
  36              		.cfi_offset 7, -4
  37 0002 89B0     		sub	sp, sp, #36
  38              	.LCFI1:
  39              		.cfi_def_cfa_offset 40
  40 0004 00AF     		add	r7, sp, #0
  41              	.LCFI2:
  42              		.cfi_def_cfa_register 7
  43 0006 7860     		str	r0, [r7, #4]
  44 0008 3960     		str	r1, [r7]
 146:Drivers/STM32F3xx_HAL_Driver/Src/stm32f3xx_hal_exti.c ****   __IO uint32_t *regaddr;
 147:Drivers/STM32F3xx_HAL_Driver/Src/stm32f3xx_hal_exti.c ****   uint32_t regval;
 148:Drivers/STM32F3xx_HAL_Driver/Src/stm32f3xx_hal_exti.c ****   uint32_t linepos;
 149:Drivers/STM32F3xx_HAL_Driver/Src/stm32f3xx_hal_exti.c ****   uint32_t maskline;
 150:Drivers/STM32F3xx_HAL_Driver/Src/stm32f3xx_hal_exti.c ****   uint32_t offset;
 151:Drivers/STM32F3xx_HAL_Driver/Src/stm32f3xx_hal_exti.c **** 
 152:Drivers/STM32F3xx_HAL_Driver/Src/stm32f3xx_hal_exti.c ****   /* Check null pointer */
 153:Drivers/STM32F3xx_HAL_Driver/Src/stm32f3xx_hal_exti.c ****   if ((hexti == NULL) || (pExtiConfig == NULL))
  45              		.loc 1 153 0
  46 000a 7B68     		ldr	r3, [r7, #4]
  47 000c 002B     		cmp	r3, #0
  48 000e 02D0     		beq	.L2
  49              		.loc 1 153 0 is_stmt 0 discriminator 1
  50 0010 3B68     		ldr	r3, [r7]
  51 0012 002B     		cmp	r3, #0
  52 0014 01D1     		bne	.L3
  53              	.L2:
 154:Drivers/STM32F3xx_HAL_Driver/Src/stm32f3xx_hal_exti.c ****   {
 155:Drivers/STM32F3xx_HAL_Driver/Src/stm32f3xx_hal_exti.c ****     return HAL_ERROR;
  54              		.loc 1 155 0 is_stmt 1
  55 0016 0123     		movs	r3, #1
  56 0018 B3E0     		b	.L4
  57              	.L3:
 156:Drivers/STM32F3xx_HAL_Driver/Src/stm32f3xx_hal_exti.c ****   }
 157:Drivers/STM32F3xx_HAL_Driver/Src/stm32f3xx_hal_exti.c **** 
 158:Drivers/STM32F3xx_HAL_Driver/Src/stm32f3xx_hal_exti.c ****   /* Check parameters */
 159:Drivers/STM32F3xx_HAL_Driver/Src/stm32f3xx_hal_exti.c ****   assert_param(IS_EXTI_LINE(pExtiConfig->Line));
 160:Drivers/STM32F3xx_HAL_Driver/Src/stm32f3xx_hal_exti.c ****   assert_param(IS_EXTI_MODE(pExtiConfig->Mode));
 161:Drivers/STM32F3xx_HAL_Driver/Src/stm32f3xx_hal_exti.c **** 
 162:Drivers/STM32F3xx_HAL_Driver/Src/stm32f3xx_hal_exti.c ****   /* Assign line number to handle */
 163:Drivers/STM32F3xx_HAL_Driver/Src/stm32f3xx_hal_exti.c ****   hexti->Line = pExtiConfig->Line;
  58              		.loc 1 163 0
  59 001a 3B68     		ldr	r3, [r7]
  60 001c 1A68     		ldr	r2, [r3]
  61 001e 7B68     		ldr	r3, [r7, #4]
  62 0020 1A60     		str	r2, [r3]
 164:Drivers/STM32F3xx_HAL_Driver/Src/stm32f3xx_hal_exti.c **** 
 165:Drivers/STM32F3xx_HAL_Driver/Src/stm32f3xx_hal_exti.c ****   /* Compute line register offset and line mask */
 166:Drivers/STM32F3xx_HAL_Driver/Src/stm32f3xx_hal_exti.c ****   offset = ((pExtiConfig->Line & EXTI_REG_MASK) >> EXTI_REG_SHIFT);
  63              		.loc 1 166 0
ARM GAS  /tmp/cckLhDKf.s 			page 5


  64 0022 3B68     		ldr	r3, [r7]
  65 0024 1B68     		ldr	r3, [r3]
  66 0026 1B0C     		lsrs	r3, r3, #16
  67 0028 03F00103 		and	r3, r3, #1
  68 002c BB61     		str	r3, [r7, #24]
 167:Drivers/STM32F3xx_HAL_Driver/Src/stm32f3xx_hal_exti.c ****   linepos = (pExtiConfig->Line & EXTI_PIN_MASK);
  69              		.loc 1 167 0
  70 002e 3B68     		ldr	r3, [r7]
  71 0030 1B68     		ldr	r3, [r3]
  72 0032 03F01F03 		and	r3, r3, #31
  73 0036 7B61     		str	r3, [r7, #20]
 168:Drivers/STM32F3xx_HAL_Driver/Src/stm32f3xx_hal_exti.c ****   maskline = (1uL << linepos);
  74              		.loc 1 168 0
  75 0038 0122     		movs	r2, #1
  76 003a 7B69     		ldr	r3, [r7, #20]
  77 003c 02FA03F3 		lsl	r3, r2, r3
  78 0040 3B61     		str	r3, [r7, #16]
 169:Drivers/STM32F3xx_HAL_Driver/Src/stm32f3xx_hal_exti.c **** 
 170:Drivers/STM32F3xx_HAL_Driver/Src/stm32f3xx_hal_exti.c ****   /* Configure triggers for configurable lines */
 171:Drivers/STM32F3xx_HAL_Driver/Src/stm32f3xx_hal_exti.c ****   if ((pExtiConfig->Line & EXTI_CONFIG) != 0x00u)
  79              		.loc 1 171 0
  80 0042 3B68     		ldr	r3, [r7]
  81 0044 1B68     		ldr	r3, [r3]
  82 0046 03F00073 		and	r3, r3, #33554432
  83 004a 002B     		cmp	r3, #0
  84 004c 60D0     		beq	.L5
 172:Drivers/STM32F3xx_HAL_Driver/Src/stm32f3xx_hal_exti.c ****   {
 173:Drivers/STM32F3xx_HAL_Driver/Src/stm32f3xx_hal_exti.c ****     assert_param(IS_EXTI_TRIGGER(pExtiConfig->Trigger));
 174:Drivers/STM32F3xx_HAL_Driver/Src/stm32f3xx_hal_exti.c **** 
 175:Drivers/STM32F3xx_HAL_Driver/Src/stm32f3xx_hal_exti.c ****     /* Configure rising trigger */
 176:Drivers/STM32F3xx_HAL_Driver/Src/stm32f3xx_hal_exti.c ****     regaddr = (&EXTI->RTSR + (EXTI_CONFIG_OFFSET * offset));
  85              		.loc 1 176 0
  86 004e BB69     		ldr	r3, [r7, #24]
  87 0050 5A01     		lsls	r2, r3, #5
  88 0052 4F4B     		ldr	r3, .L14
  89 0054 1344     		add	r3, r3, r2
  90 0056 FB60     		str	r3, [r7, #12]
 177:Drivers/STM32F3xx_HAL_Driver/Src/stm32f3xx_hal_exti.c ****     regval = *regaddr;
  91              		.loc 1 177 0
  92 0058 FB68     		ldr	r3, [r7, #12]
  93 005a 1B68     		ldr	r3, [r3]
  94 005c FB61     		str	r3, [r7, #28]
 178:Drivers/STM32F3xx_HAL_Driver/Src/stm32f3xx_hal_exti.c **** 
 179:Drivers/STM32F3xx_HAL_Driver/Src/stm32f3xx_hal_exti.c ****     /* Mask or set line */
 180:Drivers/STM32F3xx_HAL_Driver/Src/stm32f3xx_hal_exti.c ****     if ((pExtiConfig->Trigger & EXTI_TRIGGER_RISING) != 0x00u)
  95              		.loc 1 180 0
  96 005e 3B68     		ldr	r3, [r7]
  97 0060 9B68     		ldr	r3, [r3, #8]
  98 0062 03F00103 		and	r3, r3, #1
  99 0066 002B     		cmp	r3, #0
 100 0068 04D0     		beq	.L6
 181:Drivers/STM32F3xx_HAL_Driver/Src/stm32f3xx_hal_exti.c ****     {
 182:Drivers/STM32F3xx_HAL_Driver/Src/stm32f3xx_hal_exti.c ****       regval |= maskline;
 101              		.loc 1 182 0
 102 006a FA69     		ldr	r2, [r7, #28]
 103 006c 3B69     		ldr	r3, [r7, #16]
 104 006e 1343     		orrs	r3, r3, r2
ARM GAS  /tmp/cckLhDKf.s 			page 6


 105 0070 FB61     		str	r3, [r7, #28]
 106 0072 04E0     		b	.L7
 107              	.L6:
 183:Drivers/STM32F3xx_HAL_Driver/Src/stm32f3xx_hal_exti.c ****     }
 184:Drivers/STM32F3xx_HAL_Driver/Src/stm32f3xx_hal_exti.c ****     else
 185:Drivers/STM32F3xx_HAL_Driver/Src/stm32f3xx_hal_exti.c ****     {
 186:Drivers/STM32F3xx_HAL_Driver/Src/stm32f3xx_hal_exti.c ****       regval &= ~maskline;
 108              		.loc 1 186 0
 109 0074 3B69     		ldr	r3, [r7, #16]
 110 0076 DB43     		mvns	r3, r3
 111 0078 FA69     		ldr	r2, [r7, #28]
 112 007a 1340     		ands	r3, r3, r2
 113 007c FB61     		str	r3, [r7, #28]
 114              	.L7:
 187:Drivers/STM32F3xx_HAL_Driver/Src/stm32f3xx_hal_exti.c ****     }
 188:Drivers/STM32F3xx_HAL_Driver/Src/stm32f3xx_hal_exti.c **** 
 189:Drivers/STM32F3xx_HAL_Driver/Src/stm32f3xx_hal_exti.c ****     /* Store rising trigger mode */
 190:Drivers/STM32F3xx_HAL_Driver/Src/stm32f3xx_hal_exti.c ****     *regaddr = regval;
 115              		.loc 1 190 0
 116 007e FB68     		ldr	r3, [r7, #12]
 117 0080 FA69     		ldr	r2, [r7, #28]
 118 0082 1A60     		str	r2, [r3]
 191:Drivers/STM32F3xx_HAL_Driver/Src/stm32f3xx_hal_exti.c **** 
 192:Drivers/STM32F3xx_HAL_Driver/Src/stm32f3xx_hal_exti.c ****     /* Configure falling trigger */
 193:Drivers/STM32F3xx_HAL_Driver/Src/stm32f3xx_hal_exti.c ****     regaddr = (&EXTI->FTSR + (EXTI_CONFIG_OFFSET * offset));
 119              		.loc 1 193 0
 120 0084 BB69     		ldr	r3, [r7, #24]
 121 0086 5A01     		lsls	r2, r3, #5
 122 0088 424B     		ldr	r3, .L14+4
 123 008a 1344     		add	r3, r3, r2
 124 008c FB60     		str	r3, [r7, #12]
 194:Drivers/STM32F3xx_HAL_Driver/Src/stm32f3xx_hal_exti.c ****     regval = *regaddr;
 125              		.loc 1 194 0
 126 008e FB68     		ldr	r3, [r7, #12]
 127 0090 1B68     		ldr	r3, [r3]
 128 0092 FB61     		str	r3, [r7, #28]
 195:Drivers/STM32F3xx_HAL_Driver/Src/stm32f3xx_hal_exti.c **** 
 196:Drivers/STM32F3xx_HAL_Driver/Src/stm32f3xx_hal_exti.c ****     /* Mask or set line */
 197:Drivers/STM32F3xx_HAL_Driver/Src/stm32f3xx_hal_exti.c ****     if ((pExtiConfig->Trigger & EXTI_TRIGGER_FALLING) != 0x00u)
 129              		.loc 1 197 0
 130 0094 3B68     		ldr	r3, [r7]
 131 0096 9B68     		ldr	r3, [r3, #8]
 132 0098 03F00203 		and	r3, r3, #2
 133 009c 002B     		cmp	r3, #0
 134 009e 04D0     		beq	.L8
 198:Drivers/STM32F3xx_HAL_Driver/Src/stm32f3xx_hal_exti.c ****     {
 199:Drivers/STM32F3xx_HAL_Driver/Src/stm32f3xx_hal_exti.c ****       regval |= maskline;
 135              		.loc 1 199 0
 136 00a0 FA69     		ldr	r2, [r7, #28]
 137 00a2 3B69     		ldr	r3, [r7, #16]
 138 00a4 1343     		orrs	r3, r3, r2
 139 00a6 FB61     		str	r3, [r7, #28]
 140 00a8 04E0     		b	.L9
 141              	.L8:
 200:Drivers/STM32F3xx_HAL_Driver/Src/stm32f3xx_hal_exti.c ****     }
 201:Drivers/STM32F3xx_HAL_Driver/Src/stm32f3xx_hal_exti.c ****     else
 202:Drivers/STM32F3xx_HAL_Driver/Src/stm32f3xx_hal_exti.c ****     {
ARM GAS  /tmp/cckLhDKf.s 			page 7


 203:Drivers/STM32F3xx_HAL_Driver/Src/stm32f3xx_hal_exti.c ****       regval &= ~maskline;
 142              		.loc 1 203 0
 143 00aa 3B69     		ldr	r3, [r7, #16]
 144 00ac DB43     		mvns	r3, r3
 145 00ae FA69     		ldr	r2, [r7, #28]
 146 00b0 1340     		ands	r3, r3, r2
 147 00b2 FB61     		str	r3, [r7, #28]
 148              	.L9:
 204:Drivers/STM32F3xx_HAL_Driver/Src/stm32f3xx_hal_exti.c ****     }
 205:Drivers/STM32F3xx_HAL_Driver/Src/stm32f3xx_hal_exti.c **** 
 206:Drivers/STM32F3xx_HAL_Driver/Src/stm32f3xx_hal_exti.c ****     /* Store falling trigger mode */
 207:Drivers/STM32F3xx_HAL_Driver/Src/stm32f3xx_hal_exti.c ****     *regaddr = regval;
 149              		.loc 1 207 0
 150 00b4 FB68     		ldr	r3, [r7, #12]
 151 00b6 FA69     		ldr	r2, [r7, #28]
 152 00b8 1A60     		str	r2, [r3]
 208:Drivers/STM32F3xx_HAL_Driver/Src/stm32f3xx_hal_exti.c **** 
 209:Drivers/STM32F3xx_HAL_Driver/Src/stm32f3xx_hal_exti.c ****     /* Configure gpio port selection in case of gpio exti line */
 210:Drivers/STM32F3xx_HAL_Driver/Src/stm32f3xx_hal_exti.c ****     if ((pExtiConfig->Line & EXTI_GPIO) == EXTI_GPIO)
 153              		.loc 1 210 0
 154 00ba 3B68     		ldr	r3, [r7]
 155 00bc 1B68     		ldr	r3, [r3]
 156 00be 03F0C063 		and	r3, r3, #100663296
 157 00c2 B3F1C06F 		cmp	r3, #100663296
 158 00c6 23D1     		bne	.L5
 211:Drivers/STM32F3xx_HAL_Driver/Src/stm32f3xx_hal_exti.c ****     {
 212:Drivers/STM32F3xx_HAL_Driver/Src/stm32f3xx_hal_exti.c ****       assert_param(IS_EXTI_GPIO_PORT(pExtiConfig->GPIOSel));
 213:Drivers/STM32F3xx_HAL_Driver/Src/stm32f3xx_hal_exti.c ****       assert_param(IS_EXTI_GPIO_PIN(linepos));
 214:Drivers/STM32F3xx_HAL_Driver/Src/stm32f3xx_hal_exti.c **** 
 215:Drivers/STM32F3xx_HAL_Driver/Src/stm32f3xx_hal_exti.c ****       regval = SYSCFG->EXTICR[linepos >> 2u];
 159              		.loc 1 215 0
 160 00c8 334A     		ldr	r2, .L14+8
 161 00ca 7B69     		ldr	r3, [r7, #20]
 162 00cc 9B08     		lsrs	r3, r3, #2
 163 00ce 0233     		adds	r3, r3, #2
 164 00d0 52F82330 		ldr	r3, [r2, r3, lsl #2]
 165 00d4 FB61     		str	r3, [r7, #28]
 216:Drivers/STM32F3xx_HAL_Driver/Src/stm32f3xx_hal_exti.c ****       regval &= ~(SYSCFG_EXTICR1_EXTI0 << (SYSCFG_EXTICR1_EXTI1_Pos * (linepos & 0x03u)));
 166              		.loc 1 216 0
 167 00d6 7B69     		ldr	r3, [r7, #20]
 168 00d8 03F00303 		and	r3, r3, #3
 169 00dc 9B00     		lsls	r3, r3, #2
 170 00de 0F22     		movs	r2, #15
 171 00e0 02FA03F3 		lsl	r3, r2, r3
 172 00e4 DB43     		mvns	r3, r3
 173 00e6 FA69     		ldr	r2, [r7, #28]
 174 00e8 1340     		ands	r3, r3, r2
 175 00ea FB61     		str	r3, [r7, #28]
 217:Drivers/STM32F3xx_HAL_Driver/Src/stm32f3xx_hal_exti.c ****       regval |= (pExtiConfig->GPIOSel << (SYSCFG_EXTICR1_EXTI1_Pos * (linepos & 0x03u)));
 176              		.loc 1 217 0
 177 00ec 3B68     		ldr	r3, [r7]
 178 00ee DA68     		ldr	r2, [r3, #12]
 179 00f0 7B69     		ldr	r3, [r7, #20]
 180 00f2 03F00303 		and	r3, r3, #3
 181 00f6 9B00     		lsls	r3, r3, #2
 182 00f8 02FA03F3 		lsl	r3, r2, r3
 183 00fc FA69     		ldr	r2, [r7, #28]
ARM GAS  /tmp/cckLhDKf.s 			page 8


 184 00fe 1343     		orrs	r3, r3, r2
 185 0100 FB61     		str	r3, [r7, #28]
 218:Drivers/STM32F3xx_HAL_Driver/Src/stm32f3xx_hal_exti.c ****       SYSCFG->EXTICR[linepos >> 2u] = regval;
 186              		.loc 1 218 0
 187 0102 2549     		ldr	r1, .L14+8
 188 0104 7B69     		ldr	r3, [r7, #20]
 189 0106 9B08     		lsrs	r3, r3, #2
 190 0108 0233     		adds	r3, r3, #2
 191 010a FA69     		ldr	r2, [r7, #28]
 192 010c 41F82320 		str	r2, [r1, r3, lsl #2]
 193              	.L5:
 219:Drivers/STM32F3xx_HAL_Driver/Src/stm32f3xx_hal_exti.c ****     }
 220:Drivers/STM32F3xx_HAL_Driver/Src/stm32f3xx_hal_exti.c ****   }
 221:Drivers/STM32F3xx_HAL_Driver/Src/stm32f3xx_hal_exti.c **** 
 222:Drivers/STM32F3xx_HAL_Driver/Src/stm32f3xx_hal_exti.c ****   /* Configure interrupt mode : read current mode */
 223:Drivers/STM32F3xx_HAL_Driver/Src/stm32f3xx_hal_exti.c ****   regaddr = (&EXTI->IMR + (EXTI_MODE_OFFSET * offset));
 194              		.loc 1 223 0
 195 0110 BB69     		ldr	r3, [r7, #24]
 196 0112 5B01     		lsls	r3, r3, #5
 197 0114 03F18043 		add	r3, r3, #1073741824
 198 0118 03F58233 		add	r3, r3, #66560
 199 011c FB60     		str	r3, [r7, #12]
 224:Drivers/STM32F3xx_HAL_Driver/Src/stm32f3xx_hal_exti.c ****   regval = *regaddr;
 200              		.loc 1 224 0
 201 011e FB68     		ldr	r3, [r7, #12]
 202 0120 1B68     		ldr	r3, [r3]
 203 0122 FB61     		str	r3, [r7, #28]
 225:Drivers/STM32F3xx_HAL_Driver/Src/stm32f3xx_hal_exti.c **** 
 226:Drivers/STM32F3xx_HAL_Driver/Src/stm32f3xx_hal_exti.c ****   /* Mask or set line */
 227:Drivers/STM32F3xx_HAL_Driver/Src/stm32f3xx_hal_exti.c ****   if ((pExtiConfig->Mode & EXTI_MODE_INTERRUPT) != 0x00u)
 204              		.loc 1 227 0
 205 0124 3B68     		ldr	r3, [r7]
 206 0126 5B68     		ldr	r3, [r3, #4]
 207 0128 03F00103 		and	r3, r3, #1
 208 012c 002B     		cmp	r3, #0
 209 012e 04D0     		beq	.L10
 228:Drivers/STM32F3xx_HAL_Driver/Src/stm32f3xx_hal_exti.c ****   {
 229:Drivers/STM32F3xx_HAL_Driver/Src/stm32f3xx_hal_exti.c ****     regval |= maskline;
 210              		.loc 1 229 0
 211 0130 FA69     		ldr	r2, [r7, #28]
 212 0132 3B69     		ldr	r3, [r7, #16]
 213 0134 1343     		orrs	r3, r3, r2
 214 0136 FB61     		str	r3, [r7, #28]
 215 0138 04E0     		b	.L11
 216              	.L10:
 230:Drivers/STM32F3xx_HAL_Driver/Src/stm32f3xx_hal_exti.c ****   }
 231:Drivers/STM32F3xx_HAL_Driver/Src/stm32f3xx_hal_exti.c ****   else
 232:Drivers/STM32F3xx_HAL_Driver/Src/stm32f3xx_hal_exti.c ****   {
 233:Drivers/STM32F3xx_HAL_Driver/Src/stm32f3xx_hal_exti.c ****     regval &= ~maskline;
 217              		.loc 1 233 0
 218 013a 3B69     		ldr	r3, [r7, #16]
 219 013c DB43     		mvns	r3, r3
 220 013e FA69     		ldr	r2, [r7, #28]
 221 0140 1340     		ands	r3, r3, r2
 222 0142 FB61     		str	r3, [r7, #28]
 223              	.L11:
 234:Drivers/STM32F3xx_HAL_Driver/Src/stm32f3xx_hal_exti.c ****   }
ARM GAS  /tmp/cckLhDKf.s 			page 9


 235:Drivers/STM32F3xx_HAL_Driver/Src/stm32f3xx_hal_exti.c **** 
 236:Drivers/STM32F3xx_HAL_Driver/Src/stm32f3xx_hal_exti.c ****   /* Store interrupt mode */
 237:Drivers/STM32F3xx_HAL_Driver/Src/stm32f3xx_hal_exti.c ****   *regaddr = regval;
 224              		.loc 1 237 0
 225 0144 FB68     		ldr	r3, [r7, #12]
 226 0146 FA69     		ldr	r2, [r7, #28]
 227 0148 1A60     		str	r2, [r3]
 238:Drivers/STM32F3xx_HAL_Driver/Src/stm32f3xx_hal_exti.c **** 
 239:Drivers/STM32F3xx_HAL_Driver/Src/stm32f3xx_hal_exti.c ****   /* Configure event mode : read current mode */
 240:Drivers/STM32F3xx_HAL_Driver/Src/stm32f3xx_hal_exti.c ****   regaddr = (&EXTI->EMR + (EXTI_MODE_OFFSET * offset));
 228              		.loc 1 240 0
 229 014a BB69     		ldr	r3, [r7, #24]
 230 014c 5A01     		lsls	r2, r3, #5
 231 014e 134B     		ldr	r3, .L14+12
 232 0150 1344     		add	r3, r3, r2
 233 0152 FB60     		str	r3, [r7, #12]
 241:Drivers/STM32F3xx_HAL_Driver/Src/stm32f3xx_hal_exti.c ****   regval = *regaddr;
 234              		.loc 1 241 0
 235 0154 FB68     		ldr	r3, [r7, #12]
 236 0156 1B68     		ldr	r3, [r3]
 237 0158 FB61     		str	r3, [r7, #28]
 242:Drivers/STM32F3xx_HAL_Driver/Src/stm32f3xx_hal_exti.c **** 
 243:Drivers/STM32F3xx_HAL_Driver/Src/stm32f3xx_hal_exti.c ****   /* Mask or set line */
 244:Drivers/STM32F3xx_HAL_Driver/Src/stm32f3xx_hal_exti.c ****   if ((pExtiConfig->Mode & EXTI_MODE_EVENT) != 0x00u)
 238              		.loc 1 244 0
 239 015a 3B68     		ldr	r3, [r7]
 240 015c 5B68     		ldr	r3, [r3, #4]
 241 015e 03F00203 		and	r3, r3, #2
 242 0162 002B     		cmp	r3, #0
 243 0164 04D0     		beq	.L12
 245:Drivers/STM32F3xx_HAL_Driver/Src/stm32f3xx_hal_exti.c ****   {
 246:Drivers/STM32F3xx_HAL_Driver/Src/stm32f3xx_hal_exti.c ****     regval |= maskline;
 244              		.loc 1 246 0
 245 0166 FA69     		ldr	r2, [r7, #28]
 246 0168 3B69     		ldr	r3, [r7, #16]
 247 016a 1343     		orrs	r3, r3, r2
 248 016c FB61     		str	r3, [r7, #28]
 249 016e 04E0     		b	.L13
 250              	.L12:
 247:Drivers/STM32F3xx_HAL_Driver/Src/stm32f3xx_hal_exti.c ****   }
 248:Drivers/STM32F3xx_HAL_Driver/Src/stm32f3xx_hal_exti.c ****   else
 249:Drivers/STM32F3xx_HAL_Driver/Src/stm32f3xx_hal_exti.c ****   {
 250:Drivers/STM32F3xx_HAL_Driver/Src/stm32f3xx_hal_exti.c ****     regval &= ~maskline;
 251              		.loc 1 250 0
 252 0170 3B69     		ldr	r3, [r7, #16]
 253 0172 DB43     		mvns	r3, r3
 254 0174 FA69     		ldr	r2, [r7, #28]
 255 0176 1340     		ands	r3, r3, r2
 256 0178 FB61     		str	r3, [r7, #28]
 257              	.L13:
 251:Drivers/STM32F3xx_HAL_Driver/Src/stm32f3xx_hal_exti.c ****   }
 252:Drivers/STM32F3xx_HAL_Driver/Src/stm32f3xx_hal_exti.c **** 
 253:Drivers/STM32F3xx_HAL_Driver/Src/stm32f3xx_hal_exti.c ****   /* Store event mode */
 254:Drivers/STM32F3xx_HAL_Driver/Src/stm32f3xx_hal_exti.c ****   *regaddr = regval;
 258              		.loc 1 254 0
 259 017a FB68     		ldr	r3, [r7, #12]
 260 017c FA69     		ldr	r2, [r7, #28]
ARM GAS  /tmp/cckLhDKf.s 			page 10


 261 017e 1A60     		str	r2, [r3]
 255:Drivers/STM32F3xx_HAL_Driver/Src/stm32f3xx_hal_exti.c **** 
 256:Drivers/STM32F3xx_HAL_Driver/Src/stm32f3xx_hal_exti.c ****   return HAL_OK;
 262              		.loc 1 256 0
 263 0180 0023     		movs	r3, #0
 264              	.L4:
 257:Drivers/STM32F3xx_HAL_Driver/Src/stm32f3xx_hal_exti.c **** }
 265              		.loc 1 257 0
 266 0182 1846     		mov	r0, r3
 267 0184 2437     		adds	r7, r7, #36
 268              	.LCFI3:
 269              		.cfi_def_cfa_offset 4
 270 0186 BD46     		mov	sp, r7
 271              	.LCFI4:
 272              		.cfi_def_cfa_register 13
 273              		@ sp needed
 274 0188 5DF8047B 		ldr	r7, [sp], #4
 275              	.LCFI5:
 276              		.cfi_restore 7
 277              		.cfi_def_cfa_offset 0
 278 018c 7047     		bx	lr
 279              	.L15:
 280 018e 00BF     		.align	2
 281              	.L14:
 282 0190 08040140 		.word	1073808392
 283 0194 0C040140 		.word	1073808396
 284 0198 00000140 		.word	1073807360
 285 019c 04040140 		.word	1073808388
 286              		.cfi_endproc
 287              	.LFE123:
 289              		.section	.text.HAL_EXTI_GetConfigLine,"ax",%progbits
 290              		.align	1
 291              		.global	HAL_EXTI_GetConfigLine
 292              		.syntax unified
 293              		.thumb
 294              		.thumb_func
 295              		.fpu fpv4-sp-d16
 297              	HAL_EXTI_GetConfigLine:
 298              	.LFB124:
 258:Drivers/STM32F3xx_HAL_Driver/Src/stm32f3xx_hal_exti.c **** 
 259:Drivers/STM32F3xx_HAL_Driver/Src/stm32f3xx_hal_exti.c **** /**
 260:Drivers/STM32F3xx_HAL_Driver/Src/stm32f3xx_hal_exti.c ****   * @brief  Get configuration of a dedicated Exti line.
 261:Drivers/STM32F3xx_HAL_Driver/Src/stm32f3xx_hal_exti.c ****   * @param  hexti Exti handle.
 262:Drivers/STM32F3xx_HAL_Driver/Src/stm32f3xx_hal_exti.c ****   * @param  pExtiConfig Pointer on structure to store Exti configuration.
 263:Drivers/STM32F3xx_HAL_Driver/Src/stm32f3xx_hal_exti.c ****   * @retval HAL Status.
 264:Drivers/STM32F3xx_HAL_Driver/Src/stm32f3xx_hal_exti.c ****   */
 265:Drivers/STM32F3xx_HAL_Driver/Src/stm32f3xx_hal_exti.c **** HAL_StatusTypeDef HAL_EXTI_GetConfigLine(EXTI_HandleTypeDef *hexti, EXTI_ConfigTypeDef *pExtiConfig
 266:Drivers/STM32F3xx_HAL_Driver/Src/stm32f3xx_hal_exti.c **** {
 299              		.loc 1 266 0
 300              		.cfi_startproc
 301              		@ args = 0, pretend = 0, frame = 32
 302              		@ frame_needed = 1, uses_anonymous_args = 0
 303              		@ link register save eliminated.
 304 0000 80B4     		push	{r7}
 305              	.LCFI6:
 306              		.cfi_def_cfa_offset 4
 307              		.cfi_offset 7, -4
ARM GAS  /tmp/cckLhDKf.s 			page 11


 308 0002 89B0     		sub	sp, sp, #36
 309              	.LCFI7:
 310              		.cfi_def_cfa_offset 40
 311 0004 00AF     		add	r7, sp, #0
 312              	.LCFI8:
 313              		.cfi_def_cfa_register 7
 314 0006 7860     		str	r0, [r7, #4]
 315 0008 3960     		str	r1, [r7]
 267:Drivers/STM32F3xx_HAL_Driver/Src/stm32f3xx_hal_exti.c ****   __IO uint32_t *regaddr;
 268:Drivers/STM32F3xx_HAL_Driver/Src/stm32f3xx_hal_exti.c ****   uint32_t regval;
 269:Drivers/STM32F3xx_HAL_Driver/Src/stm32f3xx_hal_exti.c ****   uint32_t linepos;
 270:Drivers/STM32F3xx_HAL_Driver/Src/stm32f3xx_hal_exti.c ****   uint32_t maskline;
 271:Drivers/STM32F3xx_HAL_Driver/Src/stm32f3xx_hal_exti.c ****   uint32_t offset;
 272:Drivers/STM32F3xx_HAL_Driver/Src/stm32f3xx_hal_exti.c **** 
 273:Drivers/STM32F3xx_HAL_Driver/Src/stm32f3xx_hal_exti.c ****   /* Check null pointer */
 274:Drivers/STM32F3xx_HAL_Driver/Src/stm32f3xx_hal_exti.c ****   if ((hexti == NULL) || (pExtiConfig == NULL))
 316              		.loc 1 274 0
 317 000a 7B68     		ldr	r3, [r7, #4]
 318 000c 002B     		cmp	r3, #0
 319 000e 02D0     		beq	.L17
 320              		.loc 1 274 0 is_stmt 0 discriminator 1
 321 0010 3B68     		ldr	r3, [r7]
 322 0012 002B     		cmp	r3, #0
 323 0014 01D1     		bne	.L18
 324              	.L17:
 275:Drivers/STM32F3xx_HAL_Driver/Src/stm32f3xx_hal_exti.c ****   {
 276:Drivers/STM32F3xx_HAL_Driver/Src/stm32f3xx_hal_exti.c ****     return HAL_ERROR;
 325              		.loc 1 276 0 is_stmt 1
 326 0016 0123     		movs	r3, #1
 327 0018 8EE0     		b	.L19
 328              	.L18:
 277:Drivers/STM32F3xx_HAL_Driver/Src/stm32f3xx_hal_exti.c ****   }
 278:Drivers/STM32F3xx_HAL_Driver/Src/stm32f3xx_hal_exti.c **** 
 279:Drivers/STM32F3xx_HAL_Driver/Src/stm32f3xx_hal_exti.c ****   /* Check the parameter */
 280:Drivers/STM32F3xx_HAL_Driver/Src/stm32f3xx_hal_exti.c ****   assert_param(IS_EXTI_LINE(hexti->Line));
 281:Drivers/STM32F3xx_HAL_Driver/Src/stm32f3xx_hal_exti.c **** 
 282:Drivers/STM32F3xx_HAL_Driver/Src/stm32f3xx_hal_exti.c ****   /* Store handle line number to configuration structure */
 283:Drivers/STM32F3xx_HAL_Driver/Src/stm32f3xx_hal_exti.c ****   pExtiConfig->Line = hexti->Line;
 329              		.loc 1 283 0
 330 001a 7B68     		ldr	r3, [r7, #4]
 331 001c 1A68     		ldr	r2, [r3]
 332 001e 3B68     		ldr	r3, [r7]
 333 0020 1A60     		str	r2, [r3]
 284:Drivers/STM32F3xx_HAL_Driver/Src/stm32f3xx_hal_exti.c **** 
 285:Drivers/STM32F3xx_HAL_Driver/Src/stm32f3xx_hal_exti.c ****   /* compute line register offset and line mask */
 286:Drivers/STM32F3xx_HAL_Driver/Src/stm32f3xx_hal_exti.c ****   offset = ((pExtiConfig->Line & EXTI_REG_MASK) >> EXTI_REG_SHIFT);
 334              		.loc 1 286 0
 335 0022 3B68     		ldr	r3, [r7]
 336 0024 1B68     		ldr	r3, [r3]
 337 0026 1B0C     		lsrs	r3, r3, #16
 338 0028 03F00103 		and	r3, r3, #1
 339 002c FB61     		str	r3, [r7, #28]
 287:Drivers/STM32F3xx_HAL_Driver/Src/stm32f3xx_hal_exti.c ****   linepos = (pExtiConfig->Line & EXTI_PIN_MASK);
 340              		.loc 1 287 0
 341 002e 3B68     		ldr	r3, [r7]
 342 0030 1B68     		ldr	r3, [r3]
 343 0032 03F01F03 		and	r3, r3, #31
ARM GAS  /tmp/cckLhDKf.s 			page 12


 344 0036 BB61     		str	r3, [r7, #24]
 288:Drivers/STM32F3xx_HAL_Driver/Src/stm32f3xx_hal_exti.c ****   maskline = (1uL << linepos);
 345              		.loc 1 288 0
 346 0038 0122     		movs	r2, #1
 347 003a BB69     		ldr	r3, [r7, #24]
 348 003c 02FA03F3 		lsl	r3, r2, r3
 349 0040 7B61     		str	r3, [r7, #20]
 289:Drivers/STM32F3xx_HAL_Driver/Src/stm32f3xx_hal_exti.c **** 
 290:Drivers/STM32F3xx_HAL_Driver/Src/stm32f3xx_hal_exti.c ****   /* 1] Get core mode : interrupt */
 291:Drivers/STM32F3xx_HAL_Driver/Src/stm32f3xx_hal_exti.c ****   regaddr = (&EXTI->IMR + (EXTI_MODE_OFFSET * offset));
 350              		.loc 1 291 0
 351 0042 FB69     		ldr	r3, [r7, #28]
 352 0044 5B01     		lsls	r3, r3, #5
 353 0046 03F18043 		add	r3, r3, #1073741824
 354 004a 03F58233 		add	r3, r3, #66560
 355 004e 3B61     		str	r3, [r7, #16]
 292:Drivers/STM32F3xx_HAL_Driver/Src/stm32f3xx_hal_exti.c ****   regval = *regaddr;
 356              		.loc 1 292 0
 357 0050 3B69     		ldr	r3, [r7, #16]
 358 0052 1B68     		ldr	r3, [r3]
 359 0054 FB60     		str	r3, [r7, #12]
 293:Drivers/STM32F3xx_HAL_Driver/Src/stm32f3xx_hal_exti.c **** 
 294:Drivers/STM32F3xx_HAL_Driver/Src/stm32f3xx_hal_exti.c ****   /* Check if selected line is enable */
 295:Drivers/STM32F3xx_HAL_Driver/Src/stm32f3xx_hal_exti.c ****   if ((regval & maskline) != 0x00u)
 360              		.loc 1 295 0
 361 0056 FA68     		ldr	r2, [r7, #12]
 362 0058 7B69     		ldr	r3, [r7, #20]
 363 005a 1340     		ands	r3, r3, r2
 364 005c 002B     		cmp	r3, #0
 365 005e 03D0     		beq	.L20
 296:Drivers/STM32F3xx_HAL_Driver/Src/stm32f3xx_hal_exti.c ****   {
 297:Drivers/STM32F3xx_HAL_Driver/Src/stm32f3xx_hal_exti.c ****     pExtiConfig->Mode = EXTI_MODE_INTERRUPT;
 366              		.loc 1 297 0
 367 0060 3B68     		ldr	r3, [r7]
 368 0062 0122     		movs	r2, #1
 369 0064 5A60     		str	r2, [r3, #4]
 370 0066 02E0     		b	.L21
 371              	.L20:
 298:Drivers/STM32F3xx_HAL_Driver/Src/stm32f3xx_hal_exti.c ****   }
 299:Drivers/STM32F3xx_HAL_Driver/Src/stm32f3xx_hal_exti.c ****   else
 300:Drivers/STM32F3xx_HAL_Driver/Src/stm32f3xx_hal_exti.c ****   {
 301:Drivers/STM32F3xx_HAL_Driver/Src/stm32f3xx_hal_exti.c ****     pExtiConfig->Mode = EXTI_MODE_NONE;
 372              		.loc 1 301 0
 373 0068 3B68     		ldr	r3, [r7]
 374 006a 0022     		movs	r2, #0
 375 006c 5A60     		str	r2, [r3, #4]
 376              	.L21:
 302:Drivers/STM32F3xx_HAL_Driver/Src/stm32f3xx_hal_exti.c ****   }
 303:Drivers/STM32F3xx_HAL_Driver/Src/stm32f3xx_hal_exti.c **** 
 304:Drivers/STM32F3xx_HAL_Driver/Src/stm32f3xx_hal_exti.c ****   /* Get event mode */
 305:Drivers/STM32F3xx_HAL_Driver/Src/stm32f3xx_hal_exti.c ****   regaddr = (&EXTI->EMR + (EXTI_MODE_OFFSET * offset));
 377              		.loc 1 305 0
 378 006e FB69     		ldr	r3, [r7, #28]
 379 0070 5A01     		lsls	r2, r3, #5
 380 0072 344B     		ldr	r3, .L30
 381 0074 1344     		add	r3, r3, r2
 382 0076 3B61     		str	r3, [r7, #16]
ARM GAS  /tmp/cckLhDKf.s 			page 13


 306:Drivers/STM32F3xx_HAL_Driver/Src/stm32f3xx_hal_exti.c ****   regval = *regaddr;
 383              		.loc 1 306 0
 384 0078 3B69     		ldr	r3, [r7, #16]
 385 007a 1B68     		ldr	r3, [r3]
 386 007c FB60     		str	r3, [r7, #12]
 307:Drivers/STM32F3xx_HAL_Driver/Src/stm32f3xx_hal_exti.c **** 
 308:Drivers/STM32F3xx_HAL_Driver/Src/stm32f3xx_hal_exti.c ****   /* Check if selected line is enable */
 309:Drivers/STM32F3xx_HAL_Driver/Src/stm32f3xx_hal_exti.c ****   if ((regval & maskline) != 0x00u)
 387              		.loc 1 309 0
 388 007e FA68     		ldr	r2, [r7, #12]
 389 0080 7B69     		ldr	r3, [r7, #20]
 390 0082 1340     		ands	r3, r3, r2
 391 0084 002B     		cmp	r3, #0
 392 0086 05D0     		beq	.L22
 310:Drivers/STM32F3xx_HAL_Driver/Src/stm32f3xx_hal_exti.c ****   {
 311:Drivers/STM32F3xx_HAL_Driver/Src/stm32f3xx_hal_exti.c ****     pExtiConfig->Mode |= EXTI_MODE_EVENT;
 393              		.loc 1 311 0
 394 0088 3B68     		ldr	r3, [r7]
 395 008a 5B68     		ldr	r3, [r3, #4]
 396 008c 43F00202 		orr	r2, r3, #2
 397 0090 3B68     		ldr	r3, [r7]
 398 0092 5A60     		str	r2, [r3, #4]
 399              	.L22:
 312:Drivers/STM32F3xx_HAL_Driver/Src/stm32f3xx_hal_exti.c ****   }
 313:Drivers/STM32F3xx_HAL_Driver/Src/stm32f3xx_hal_exti.c **** 
 314:Drivers/STM32F3xx_HAL_Driver/Src/stm32f3xx_hal_exti.c ****   /* 2] Get trigger for configurable lines : rising */
 315:Drivers/STM32F3xx_HAL_Driver/Src/stm32f3xx_hal_exti.c ****   if ((pExtiConfig->Line & EXTI_CONFIG) != 0x00u)
 400              		.loc 1 315 0
 401 0094 3B68     		ldr	r3, [r7]
 402 0096 1B68     		ldr	r3, [r3]
 403 0098 03F00073 		and	r3, r3, #33554432
 404 009c 002B     		cmp	r3, #0
 405 009e 44D0     		beq	.L23
 316:Drivers/STM32F3xx_HAL_Driver/Src/stm32f3xx_hal_exti.c ****   {
 317:Drivers/STM32F3xx_HAL_Driver/Src/stm32f3xx_hal_exti.c ****     regaddr = (&EXTI->RTSR + (EXTI_CONFIG_OFFSET * offset));
 406              		.loc 1 317 0
 407 00a0 FB69     		ldr	r3, [r7, #28]
 408 00a2 5A01     		lsls	r2, r3, #5
 409 00a4 284B     		ldr	r3, .L30+4
 410 00a6 1344     		add	r3, r3, r2
 411 00a8 3B61     		str	r3, [r7, #16]
 318:Drivers/STM32F3xx_HAL_Driver/Src/stm32f3xx_hal_exti.c ****     regval = *regaddr;
 412              		.loc 1 318 0
 413 00aa 3B69     		ldr	r3, [r7, #16]
 414 00ac 1B68     		ldr	r3, [r3]
 415 00ae FB60     		str	r3, [r7, #12]
 319:Drivers/STM32F3xx_HAL_Driver/Src/stm32f3xx_hal_exti.c **** 
 320:Drivers/STM32F3xx_HAL_Driver/Src/stm32f3xx_hal_exti.c ****     /* Check if configuration of selected line is enable */
 321:Drivers/STM32F3xx_HAL_Driver/Src/stm32f3xx_hal_exti.c ****     if ((regval & maskline) != 0x00u)
 416              		.loc 1 321 0
 417 00b0 FA68     		ldr	r2, [r7, #12]
 418 00b2 7B69     		ldr	r3, [r7, #20]
 419 00b4 1340     		ands	r3, r3, r2
 420 00b6 002B     		cmp	r3, #0
 421 00b8 03D0     		beq	.L24
 322:Drivers/STM32F3xx_HAL_Driver/Src/stm32f3xx_hal_exti.c ****     {
 323:Drivers/STM32F3xx_HAL_Driver/Src/stm32f3xx_hal_exti.c ****       pExtiConfig->Trigger = EXTI_TRIGGER_RISING;
ARM GAS  /tmp/cckLhDKf.s 			page 14


 422              		.loc 1 323 0
 423 00ba 3B68     		ldr	r3, [r7]
 424 00bc 0122     		movs	r2, #1
 425 00be 9A60     		str	r2, [r3, #8]
 426 00c0 02E0     		b	.L25
 427              	.L24:
 324:Drivers/STM32F3xx_HAL_Driver/Src/stm32f3xx_hal_exti.c ****     }
 325:Drivers/STM32F3xx_HAL_Driver/Src/stm32f3xx_hal_exti.c ****     else
 326:Drivers/STM32F3xx_HAL_Driver/Src/stm32f3xx_hal_exti.c ****     {
 327:Drivers/STM32F3xx_HAL_Driver/Src/stm32f3xx_hal_exti.c ****       pExtiConfig->Trigger = EXTI_TRIGGER_NONE;
 428              		.loc 1 327 0
 429 00c2 3B68     		ldr	r3, [r7]
 430 00c4 0022     		movs	r2, #0
 431 00c6 9A60     		str	r2, [r3, #8]
 432              	.L25:
 328:Drivers/STM32F3xx_HAL_Driver/Src/stm32f3xx_hal_exti.c ****     }
 329:Drivers/STM32F3xx_HAL_Driver/Src/stm32f3xx_hal_exti.c **** 
 330:Drivers/STM32F3xx_HAL_Driver/Src/stm32f3xx_hal_exti.c ****     /* Get falling configuration */
 331:Drivers/STM32F3xx_HAL_Driver/Src/stm32f3xx_hal_exti.c ****     regaddr = (&EXTI->FTSR + (EXTI_CONFIG_OFFSET * offset));
 433              		.loc 1 331 0
 434 00c8 FB69     		ldr	r3, [r7, #28]
 435 00ca 5A01     		lsls	r2, r3, #5
 436 00cc 1F4B     		ldr	r3, .L30+8
 437 00ce 1344     		add	r3, r3, r2
 438 00d0 3B61     		str	r3, [r7, #16]
 332:Drivers/STM32F3xx_HAL_Driver/Src/stm32f3xx_hal_exti.c ****     regval = *regaddr;
 439              		.loc 1 332 0
 440 00d2 3B69     		ldr	r3, [r7, #16]
 441 00d4 1B68     		ldr	r3, [r3]
 442 00d6 FB60     		str	r3, [r7, #12]
 333:Drivers/STM32F3xx_HAL_Driver/Src/stm32f3xx_hal_exti.c **** 
 334:Drivers/STM32F3xx_HAL_Driver/Src/stm32f3xx_hal_exti.c ****     /* Check if configuration of selected line is enable */
 335:Drivers/STM32F3xx_HAL_Driver/Src/stm32f3xx_hal_exti.c ****     if ((regval & maskline) != 0x00u)
 443              		.loc 1 335 0
 444 00d8 FA68     		ldr	r2, [r7, #12]
 445 00da 7B69     		ldr	r3, [r7, #20]
 446 00dc 1340     		ands	r3, r3, r2
 447 00de 002B     		cmp	r3, #0
 448 00e0 05D0     		beq	.L26
 336:Drivers/STM32F3xx_HAL_Driver/Src/stm32f3xx_hal_exti.c ****     {
 337:Drivers/STM32F3xx_HAL_Driver/Src/stm32f3xx_hal_exti.c ****       pExtiConfig->Trigger |= EXTI_TRIGGER_FALLING;
 449              		.loc 1 337 0
 450 00e2 3B68     		ldr	r3, [r7]
 451 00e4 9B68     		ldr	r3, [r3, #8]
 452 00e6 43F00202 		orr	r2, r3, #2
 453 00ea 3B68     		ldr	r3, [r7]
 454 00ec 9A60     		str	r2, [r3, #8]
 455              	.L26:
 338:Drivers/STM32F3xx_HAL_Driver/Src/stm32f3xx_hal_exti.c ****     }
 339:Drivers/STM32F3xx_HAL_Driver/Src/stm32f3xx_hal_exti.c **** 
 340:Drivers/STM32F3xx_HAL_Driver/Src/stm32f3xx_hal_exti.c ****     /* Get Gpio port selection for gpio lines */
 341:Drivers/STM32F3xx_HAL_Driver/Src/stm32f3xx_hal_exti.c ****     if ((pExtiConfig->Line & EXTI_GPIO) == EXTI_GPIO)
 456              		.loc 1 341 0
 457 00ee 3B68     		ldr	r3, [r7]
 458 00f0 1B68     		ldr	r3, [r3]
 459 00f2 03F0C063 		and	r3, r3, #100663296
 460 00f6 B3F1C06F 		cmp	r3, #100663296
ARM GAS  /tmp/cckLhDKf.s 			page 15


 461 00fa 12D1     		bne	.L27
 342:Drivers/STM32F3xx_HAL_Driver/Src/stm32f3xx_hal_exti.c ****     {
 343:Drivers/STM32F3xx_HAL_Driver/Src/stm32f3xx_hal_exti.c ****       assert_param(IS_EXTI_GPIO_PIN(linepos));
 344:Drivers/STM32F3xx_HAL_Driver/Src/stm32f3xx_hal_exti.c **** 
 345:Drivers/STM32F3xx_HAL_Driver/Src/stm32f3xx_hal_exti.c ****       regval = SYSCFG->EXTICR[linepos >> 2u];
 462              		.loc 1 345 0
 463 00fc 144A     		ldr	r2, .L30+12
 464 00fe BB69     		ldr	r3, [r7, #24]
 465 0100 9B08     		lsrs	r3, r3, #2
 466 0102 0233     		adds	r3, r3, #2
 467 0104 52F82330 		ldr	r3, [r2, r3, lsl #2]
 468 0108 FB60     		str	r3, [r7, #12]
 346:Drivers/STM32F3xx_HAL_Driver/Src/stm32f3xx_hal_exti.c ****       pExtiConfig->GPIOSel = ((regval << (SYSCFG_EXTICR1_EXTI1_Pos * (3uL - (linepos & 0x03u)))) >>
 469              		.loc 1 346 0
 470 010a BB69     		ldr	r3, [r7, #24]
 471 010c DB43     		mvns	r3, r3
 472 010e 03F00303 		and	r3, r3, #3
 473 0112 9B00     		lsls	r3, r3, #2
 474 0114 FA68     		ldr	r2, [r7, #12]
 475 0116 02FA03F3 		lsl	r3, r2, r3
 476 011a 1A0E     		lsrs	r2, r3, #24
 477 011c 3B68     		ldr	r3, [r7]
 478 011e DA60     		str	r2, [r3, #12]
 479 0120 09E0     		b	.L29
 480              	.L27:
 347:Drivers/STM32F3xx_HAL_Driver/Src/stm32f3xx_hal_exti.c ****     }
 348:Drivers/STM32F3xx_HAL_Driver/Src/stm32f3xx_hal_exti.c ****     else
 349:Drivers/STM32F3xx_HAL_Driver/Src/stm32f3xx_hal_exti.c ****     {
 350:Drivers/STM32F3xx_HAL_Driver/Src/stm32f3xx_hal_exti.c ****       pExtiConfig->GPIOSel = 0x00u;
 481              		.loc 1 350 0
 482 0122 3B68     		ldr	r3, [r7]
 483 0124 0022     		movs	r2, #0
 484 0126 DA60     		str	r2, [r3, #12]
 485 0128 05E0     		b	.L29
 486              	.L23:
 351:Drivers/STM32F3xx_HAL_Driver/Src/stm32f3xx_hal_exti.c ****     }
 352:Drivers/STM32F3xx_HAL_Driver/Src/stm32f3xx_hal_exti.c ****   }
 353:Drivers/STM32F3xx_HAL_Driver/Src/stm32f3xx_hal_exti.c ****   else
 354:Drivers/STM32F3xx_HAL_Driver/Src/stm32f3xx_hal_exti.c ****   {
 355:Drivers/STM32F3xx_HAL_Driver/Src/stm32f3xx_hal_exti.c ****     /* No Trigger selected */
 356:Drivers/STM32F3xx_HAL_Driver/Src/stm32f3xx_hal_exti.c ****     pExtiConfig->Trigger = EXTI_TRIGGER_NONE;
 487              		.loc 1 356 0
 488 012a 3B68     		ldr	r3, [r7]
 489 012c 0022     		movs	r2, #0
 490 012e 9A60     		str	r2, [r3, #8]
 357:Drivers/STM32F3xx_HAL_Driver/Src/stm32f3xx_hal_exti.c ****     pExtiConfig->GPIOSel = 0x00u;
 491              		.loc 1 357 0
 492 0130 3B68     		ldr	r3, [r7]
 493 0132 0022     		movs	r2, #0
 494 0134 DA60     		str	r2, [r3, #12]
 495              	.L29:
 358:Drivers/STM32F3xx_HAL_Driver/Src/stm32f3xx_hal_exti.c ****   }
 359:Drivers/STM32F3xx_HAL_Driver/Src/stm32f3xx_hal_exti.c **** 
 360:Drivers/STM32F3xx_HAL_Driver/Src/stm32f3xx_hal_exti.c ****   return HAL_OK;
 496              		.loc 1 360 0
 497 0136 0023     		movs	r3, #0
 498              	.L19:
ARM GAS  /tmp/cckLhDKf.s 			page 16


 361:Drivers/STM32F3xx_HAL_Driver/Src/stm32f3xx_hal_exti.c **** }
 499              		.loc 1 361 0
 500 0138 1846     		mov	r0, r3
 501 013a 2437     		adds	r7, r7, #36
 502              	.LCFI9:
 503              		.cfi_def_cfa_offset 4
 504 013c BD46     		mov	sp, r7
 505              	.LCFI10:
 506              		.cfi_def_cfa_register 13
 507              		@ sp needed
 508 013e 5DF8047B 		ldr	r7, [sp], #4
 509              	.LCFI11:
 510              		.cfi_restore 7
 511              		.cfi_def_cfa_offset 0
 512 0142 7047     		bx	lr
 513              	.L31:
 514              		.align	2
 515              	.L30:
 516 0144 04040140 		.word	1073808388
 517 0148 08040140 		.word	1073808392
 518 014c 0C040140 		.word	1073808396
 519 0150 00000140 		.word	1073807360
 520              		.cfi_endproc
 521              	.LFE124:
 523              		.section	.text.HAL_EXTI_ClearConfigLine,"ax",%progbits
 524              		.align	1
 525              		.global	HAL_EXTI_ClearConfigLine
 526              		.syntax unified
 527              		.thumb
 528              		.thumb_func
 529              		.fpu fpv4-sp-d16
 531              	HAL_EXTI_ClearConfigLine:
 532              	.LFB125:
 362:Drivers/STM32F3xx_HAL_Driver/Src/stm32f3xx_hal_exti.c **** 
 363:Drivers/STM32F3xx_HAL_Driver/Src/stm32f3xx_hal_exti.c **** /**
 364:Drivers/STM32F3xx_HAL_Driver/Src/stm32f3xx_hal_exti.c ****   * @brief  Clear whole configuration of a dedicated Exti line.
 365:Drivers/STM32F3xx_HAL_Driver/Src/stm32f3xx_hal_exti.c ****   * @param  hexti Exti handle.
 366:Drivers/STM32F3xx_HAL_Driver/Src/stm32f3xx_hal_exti.c ****   * @retval HAL Status.
 367:Drivers/STM32F3xx_HAL_Driver/Src/stm32f3xx_hal_exti.c ****   */
 368:Drivers/STM32F3xx_HAL_Driver/Src/stm32f3xx_hal_exti.c **** HAL_StatusTypeDef HAL_EXTI_ClearConfigLine(EXTI_HandleTypeDef *hexti)
 369:Drivers/STM32F3xx_HAL_Driver/Src/stm32f3xx_hal_exti.c **** {
 533              		.loc 1 369 0
 534              		.cfi_startproc
 535              		@ args = 0, pretend = 0, frame = 32
 536              		@ frame_needed = 1, uses_anonymous_args = 0
 537              		@ link register save eliminated.
 538 0000 80B4     		push	{r7}
 539              	.LCFI12:
 540              		.cfi_def_cfa_offset 4
 541              		.cfi_offset 7, -4
 542 0002 89B0     		sub	sp, sp, #36
 543              	.LCFI13:
 544              		.cfi_def_cfa_offset 40
 545 0004 00AF     		add	r7, sp, #0
 546              	.LCFI14:
 547              		.cfi_def_cfa_register 7
 548 0006 7860     		str	r0, [r7, #4]
ARM GAS  /tmp/cckLhDKf.s 			page 17


 370:Drivers/STM32F3xx_HAL_Driver/Src/stm32f3xx_hal_exti.c ****   __IO uint32_t *regaddr;
 371:Drivers/STM32F3xx_HAL_Driver/Src/stm32f3xx_hal_exti.c ****   uint32_t regval;
 372:Drivers/STM32F3xx_HAL_Driver/Src/stm32f3xx_hal_exti.c ****   uint32_t linepos;
 373:Drivers/STM32F3xx_HAL_Driver/Src/stm32f3xx_hal_exti.c ****   uint32_t maskline;
 374:Drivers/STM32F3xx_HAL_Driver/Src/stm32f3xx_hal_exti.c ****   uint32_t offset;
 375:Drivers/STM32F3xx_HAL_Driver/Src/stm32f3xx_hal_exti.c **** 
 376:Drivers/STM32F3xx_HAL_Driver/Src/stm32f3xx_hal_exti.c ****   /* Check null pointer */
 377:Drivers/STM32F3xx_HAL_Driver/Src/stm32f3xx_hal_exti.c ****   if (hexti == NULL)
 549              		.loc 1 377 0
 550 0008 7B68     		ldr	r3, [r7, #4]
 551 000a 002B     		cmp	r3, #0
 552 000c 01D1     		bne	.L33
 378:Drivers/STM32F3xx_HAL_Driver/Src/stm32f3xx_hal_exti.c ****   {
 379:Drivers/STM32F3xx_HAL_Driver/Src/stm32f3xx_hal_exti.c ****     return HAL_ERROR;
 553              		.loc 1 379 0
 554 000e 0123     		movs	r3, #1
 555 0010 70E0     		b	.L34
 556              	.L33:
 380:Drivers/STM32F3xx_HAL_Driver/Src/stm32f3xx_hal_exti.c ****   }
 381:Drivers/STM32F3xx_HAL_Driver/Src/stm32f3xx_hal_exti.c **** 
 382:Drivers/STM32F3xx_HAL_Driver/Src/stm32f3xx_hal_exti.c ****   /* Check the parameter */
 383:Drivers/STM32F3xx_HAL_Driver/Src/stm32f3xx_hal_exti.c ****   assert_param(IS_EXTI_LINE(hexti->Line));
 384:Drivers/STM32F3xx_HAL_Driver/Src/stm32f3xx_hal_exti.c **** 
 385:Drivers/STM32F3xx_HAL_Driver/Src/stm32f3xx_hal_exti.c ****   /* compute line register offset and line mask */
 386:Drivers/STM32F3xx_HAL_Driver/Src/stm32f3xx_hal_exti.c ****   offset = ((hexti->Line & EXTI_REG_MASK) >> EXTI_REG_SHIFT);
 557              		.loc 1 386 0
 558 0012 7B68     		ldr	r3, [r7, #4]
 559 0014 1B68     		ldr	r3, [r3]
 560 0016 1B0C     		lsrs	r3, r3, #16
 561 0018 03F00103 		and	r3, r3, #1
 562 001c FB61     		str	r3, [r7, #28]
 387:Drivers/STM32F3xx_HAL_Driver/Src/stm32f3xx_hal_exti.c ****   linepos = (hexti->Line & EXTI_PIN_MASK);
 563              		.loc 1 387 0
 564 001e 7B68     		ldr	r3, [r7, #4]
 565 0020 1B68     		ldr	r3, [r3]
 566 0022 03F01F03 		and	r3, r3, #31
 567 0026 BB61     		str	r3, [r7, #24]
 388:Drivers/STM32F3xx_HAL_Driver/Src/stm32f3xx_hal_exti.c ****   maskline = (1uL << linepos);
 568              		.loc 1 388 0
 569 0028 0122     		movs	r2, #1
 570 002a BB69     		ldr	r3, [r7, #24]
 571 002c 02FA03F3 		lsl	r3, r2, r3
 572 0030 7B61     		str	r3, [r7, #20]
 389:Drivers/STM32F3xx_HAL_Driver/Src/stm32f3xx_hal_exti.c **** 
 390:Drivers/STM32F3xx_HAL_Driver/Src/stm32f3xx_hal_exti.c ****   /* 1] Clear interrupt mode */
 391:Drivers/STM32F3xx_HAL_Driver/Src/stm32f3xx_hal_exti.c ****   regaddr = (&EXTI->IMR + (EXTI_MODE_OFFSET * offset));
 573              		.loc 1 391 0
 574 0032 FB69     		ldr	r3, [r7, #28]
 575 0034 5B01     		lsls	r3, r3, #5
 576 0036 03F18043 		add	r3, r3, #1073741824
 577 003a 03F58233 		add	r3, r3, #66560
 578 003e 3B61     		str	r3, [r7, #16]
 392:Drivers/STM32F3xx_HAL_Driver/Src/stm32f3xx_hal_exti.c ****   regval = (*regaddr & ~maskline);
 579              		.loc 1 392 0
 580 0040 3B69     		ldr	r3, [r7, #16]
 581 0042 1A68     		ldr	r2, [r3]
 582 0044 7B69     		ldr	r3, [r7, #20]
ARM GAS  /tmp/cckLhDKf.s 			page 18


 583 0046 DB43     		mvns	r3, r3
 584 0048 1340     		ands	r3, r3, r2
 585 004a FB60     		str	r3, [r7, #12]
 393:Drivers/STM32F3xx_HAL_Driver/Src/stm32f3xx_hal_exti.c ****   *regaddr = regval;
 586              		.loc 1 393 0
 587 004c 3B69     		ldr	r3, [r7, #16]
 588 004e FA68     		ldr	r2, [r7, #12]
 589 0050 1A60     		str	r2, [r3]
 394:Drivers/STM32F3xx_HAL_Driver/Src/stm32f3xx_hal_exti.c **** 
 395:Drivers/STM32F3xx_HAL_Driver/Src/stm32f3xx_hal_exti.c ****   /* 2] Clear event mode */
 396:Drivers/STM32F3xx_HAL_Driver/Src/stm32f3xx_hal_exti.c ****   regaddr = (&EXTI->EMR + (EXTI_MODE_OFFSET * offset));
 590              		.loc 1 396 0
 591 0052 FB69     		ldr	r3, [r7, #28]
 592 0054 5A01     		lsls	r2, r3, #5
 593 0056 2A4B     		ldr	r3, .L36
 594 0058 1344     		add	r3, r3, r2
 595 005a 3B61     		str	r3, [r7, #16]
 397:Drivers/STM32F3xx_HAL_Driver/Src/stm32f3xx_hal_exti.c ****   regval = (*regaddr & ~maskline);
 596              		.loc 1 397 0
 597 005c 3B69     		ldr	r3, [r7, #16]
 598 005e 1A68     		ldr	r2, [r3]
 599 0060 7B69     		ldr	r3, [r7, #20]
 600 0062 DB43     		mvns	r3, r3
 601 0064 1340     		ands	r3, r3, r2
 602 0066 FB60     		str	r3, [r7, #12]
 398:Drivers/STM32F3xx_HAL_Driver/Src/stm32f3xx_hal_exti.c ****   *regaddr = regval;
 603              		.loc 1 398 0
 604 0068 3B69     		ldr	r3, [r7, #16]
 605 006a FA68     		ldr	r2, [r7, #12]
 606 006c 1A60     		str	r2, [r3]
 399:Drivers/STM32F3xx_HAL_Driver/Src/stm32f3xx_hal_exti.c **** 
 400:Drivers/STM32F3xx_HAL_Driver/Src/stm32f3xx_hal_exti.c ****   /* 3] Clear triggers in case of configurable lines */
 401:Drivers/STM32F3xx_HAL_Driver/Src/stm32f3xx_hal_exti.c ****   if ((hexti->Line & EXTI_CONFIG) != 0x00u)
 607              		.loc 1 401 0
 608 006e 7B68     		ldr	r3, [r7, #4]
 609 0070 1B68     		ldr	r3, [r3]
 610 0072 03F00073 		and	r3, r3, #33554432
 611 0076 002B     		cmp	r3, #0
 612 0078 3BD0     		beq	.L35
 402:Drivers/STM32F3xx_HAL_Driver/Src/stm32f3xx_hal_exti.c ****   {
 403:Drivers/STM32F3xx_HAL_Driver/Src/stm32f3xx_hal_exti.c ****     regaddr = (&EXTI->RTSR + (EXTI_CONFIG_OFFSET * offset));
 613              		.loc 1 403 0
 614 007a FB69     		ldr	r3, [r7, #28]
 615 007c 5A01     		lsls	r2, r3, #5
 616 007e 214B     		ldr	r3, .L36+4
 617 0080 1344     		add	r3, r3, r2
 618 0082 3B61     		str	r3, [r7, #16]
 404:Drivers/STM32F3xx_HAL_Driver/Src/stm32f3xx_hal_exti.c ****     regval = (*regaddr & ~maskline);
 619              		.loc 1 404 0
 620 0084 3B69     		ldr	r3, [r7, #16]
 621 0086 1A68     		ldr	r2, [r3]
 622 0088 7B69     		ldr	r3, [r7, #20]
 623 008a DB43     		mvns	r3, r3
 624 008c 1340     		ands	r3, r3, r2
 625 008e FB60     		str	r3, [r7, #12]
 405:Drivers/STM32F3xx_HAL_Driver/Src/stm32f3xx_hal_exti.c ****     *regaddr = regval;
 626              		.loc 1 405 0
ARM GAS  /tmp/cckLhDKf.s 			page 19


 627 0090 3B69     		ldr	r3, [r7, #16]
 628 0092 FA68     		ldr	r2, [r7, #12]
 629 0094 1A60     		str	r2, [r3]
 406:Drivers/STM32F3xx_HAL_Driver/Src/stm32f3xx_hal_exti.c **** 
 407:Drivers/STM32F3xx_HAL_Driver/Src/stm32f3xx_hal_exti.c ****     regaddr = (&EXTI->FTSR + (EXTI_CONFIG_OFFSET * offset));
 630              		.loc 1 407 0
 631 0096 FB69     		ldr	r3, [r7, #28]
 632 0098 5A01     		lsls	r2, r3, #5
 633 009a 1B4B     		ldr	r3, .L36+8
 634 009c 1344     		add	r3, r3, r2
 635 009e 3B61     		str	r3, [r7, #16]
 408:Drivers/STM32F3xx_HAL_Driver/Src/stm32f3xx_hal_exti.c ****     regval = (*regaddr & ~maskline);
 636              		.loc 1 408 0
 637 00a0 3B69     		ldr	r3, [r7, #16]
 638 00a2 1A68     		ldr	r2, [r3]
 639 00a4 7B69     		ldr	r3, [r7, #20]
 640 00a6 DB43     		mvns	r3, r3
 641 00a8 1340     		ands	r3, r3, r2
 642 00aa FB60     		str	r3, [r7, #12]
 409:Drivers/STM32F3xx_HAL_Driver/Src/stm32f3xx_hal_exti.c ****     *regaddr = regval;
 643              		.loc 1 409 0
 644 00ac 3B69     		ldr	r3, [r7, #16]
 645 00ae FA68     		ldr	r2, [r7, #12]
 646 00b0 1A60     		str	r2, [r3]
 410:Drivers/STM32F3xx_HAL_Driver/Src/stm32f3xx_hal_exti.c **** 
 411:Drivers/STM32F3xx_HAL_Driver/Src/stm32f3xx_hal_exti.c ****     /* Get Gpio port selection for gpio lines */
 412:Drivers/STM32F3xx_HAL_Driver/Src/stm32f3xx_hal_exti.c ****     if ((hexti->Line & EXTI_GPIO) == EXTI_GPIO)
 647              		.loc 1 412 0
 648 00b2 7B68     		ldr	r3, [r7, #4]
 649 00b4 1B68     		ldr	r3, [r3]
 650 00b6 03F0C063 		and	r3, r3, #100663296
 651 00ba B3F1C06F 		cmp	r3, #100663296
 652 00be 18D1     		bne	.L35
 413:Drivers/STM32F3xx_HAL_Driver/Src/stm32f3xx_hal_exti.c ****     {
 414:Drivers/STM32F3xx_HAL_Driver/Src/stm32f3xx_hal_exti.c ****       assert_param(IS_EXTI_GPIO_PIN(linepos));
 415:Drivers/STM32F3xx_HAL_Driver/Src/stm32f3xx_hal_exti.c **** 
 416:Drivers/STM32F3xx_HAL_Driver/Src/stm32f3xx_hal_exti.c ****       regval = SYSCFG->EXTICR[linepos >> 2u];
 653              		.loc 1 416 0
 654 00c0 124A     		ldr	r2, .L36+12
 655 00c2 BB69     		ldr	r3, [r7, #24]
 656 00c4 9B08     		lsrs	r3, r3, #2
 657 00c6 0233     		adds	r3, r3, #2
 658 00c8 52F82330 		ldr	r3, [r2, r3, lsl #2]
 659 00cc FB60     		str	r3, [r7, #12]
 417:Drivers/STM32F3xx_HAL_Driver/Src/stm32f3xx_hal_exti.c ****       regval &= ~(SYSCFG_EXTICR1_EXTI0 << (SYSCFG_EXTICR1_EXTI1_Pos * (linepos & 0x03u)));
 660              		.loc 1 417 0
 661 00ce BB69     		ldr	r3, [r7, #24]
 662 00d0 03F00303 		and	r3, r3, #3
 663 00d4 9B00     		lsls	r3, r3, #2
 664 00d6 0F22     		movs	r2, #15
 665 00d8 02FA03F3 		lsl	r3, r2, r3
 666 00dc DB43     		mvns	r3, r3
 667 00de FA68     		ldr	r2, [r7, #12]
 668 00e0 1340     		ands	r3, r3, r2
 669 00e2 FB60     		str	r3, [r7, #12]
 418:Drivers/STM32F3xx_HAL_Driver/Src/stm32f3xx_hal_exti.c ****       SYSCFG->EXTICR[linepos >> 2u] = regval;
 670              		.loc 1 418 0
ARM GAS  /tmp/cckLhDKf.s 			page 20


 671 00e4 0949     		ldr	r1, .L36+12
 672 00e6 BB69     		ldr	r3, [r7, #24]
 673 00e8 9B08     		lsrs	r3, r3, #2
 674 00ea 0233     		adds	r3, r3, #2
 675 00ec FA68     		ldr	r2, [r7, #12]
 676 00ee 41F82320 		str	r2, [r1, r3, lsl #2]
 677              	.L35:
 419:Drivers/STM32F3xx_HAL_Driver/Src/stm32f3xx_hal_exti.c ****     }
 420:Drivers/STM32F3xx_HAL_Driver/Src/stm32f3xx_hal_exti.c ****   }
 421:Drivers/STM32F3xx_HAL_Driver/Src/stm32f3xx_hal_exti.c **** 
 422:Drivers/STM32F3xx_HAL_Driver/Src/stm32f3xx_hal_exti.c ****   return HAL_OK;
 678              		.loc 1 422 0
 679 00f2 0023     		movs	r3, #0
 680              	.L34:
 423:Drivers/STM32F3xx_HAL_Driver/Src/stm32f3xx_hal_exti.c **** }
 681              		.loc 1 423 0
 682 00f4 1846     		mov	r0, r3
 683 00f6 2437     		adds	r7, r7, #36
 684              	.LCFI15:
 685              		.cfi_def_cfa_offset 4
 686 00f8 BD46     		mov	sp, r7
 687              	.LCFI16:
 688              		.cfi_def_cfa_register 13
 689              		@ sp needed
 690 00fa 5DF8047B 		ldr	r7, [sp], #4
 691              	.LCFI17:
 692              		.cfi_restore 7
 693              		.cfi_def_cfa_offset 0
 694 00fe 7047     		bx	lr
 695              	.L37:
 696              		.align	2
 697              	.L36:
 698 0100 04040140 		.word	1073808388
 699 0104 08040140 		.word	1073808392
 700 0108 0C040140 		.word	1073808396
 701 010c 00000140 		.word	1073807360
 702              		.cfi_endproc
 703              	.LFE125:
 705              		.section	.text.HAL_EXTI_RegisterCallback,"ax",%progbits
 706              		.align	1
 707              		.global	HAL_EXTI_RegisterCallback
 708              		.syntax unified
 709              		.thumb
 710              		.thumb_func
 711              		.fpu fpv4-sp-d16
 713              	HAL_EXTI_RegisterCallback:
 714              	.LFB126:
 424:Drivers/STM32F3xx_HAL_Driver/Src/stm32f3xx_hal_exti.c **** 
 425:Drivers/STM32F3xx_HAL_Driver/Src/stm32f3xx_hal_exti.c **** /**
 426:Drivers/STM32F3xx_HAL_Driver/Src/stm32f3xx_hal_exti.c ****   * @brief  Register callback for a dedicated Exti line.
 427:Drivers/STM32F3xx_HAL_Driver/Src/stm32f3xx_hal_exti.c ****   * @param  hexti Exti handle.
 428:Drivers/STM32F3xx_HAL_Driver/Src/stm32f3xx_hal_exti.c ****   * @param  CallbackID User callback identifier.
 429:Drivers/STM32F3xx_HAL_Driver/Src/stm32f3xx_hal_exti.c ****   *         This parameter can be one of @arg @ref EXTI_CallbackIDTypeDef values.
 430:Drivers/STM32F3xx_HAL_Driver/Src/stm32f3xx_hal_exti.c ****   * @param  pPendingCbfn function pointer to be stored as callback.
 431:Drivers/STM32F3xx_HAL_Driver/Src/stm32f3xx_hal_exti.c ****   * @retval HAL Status.
 432:Drivers/STM32F3xx_HAL_Driver/Src/stm32f3xx_hal_exti.c ****   */
 433:Drivers/STM32F3xx_HAL_Driver/Src/stm32f3xx_hal_exti.c **** HAL_StatusTypeDef HAL_EXTI_RegisterCallback(EXTI_HandleTypeDef *hexti, EXTI_CallbackIDTypeDef Callb
ARM GAS  /tmp/cckLhDKf.s 			page 21


 434:Drivers/STM32F3xx_HAL_Driver/Src/stm32f3xx_hal_exti.c **** {
 715              		.loc 1 434 0
 716              		.cfi_startproc
 717              		@ args = 0, pretend = 0, frame = 24
 718              		@ frame_needed = 1, uses_anonymous_args = 0
 719              		@ link register save eliminated.
 720 0000 80B4     		push	{r7}
 721              	.LCFI18:
 722              		.cfi_def_cfa_offset 4
 723              		.cfi_offset 7, -4
 724 0002 87B0     		sub	sp, sp, #28
 725              	.LCFI19:
 726              		.cfi_def_cfa_offset 32
 727 0004 00AF     		add	r7, sp, #0
 728              	.LCFI20:
 729              		.cfi_def_cfa_register 7
 730 0006 F860     		str	r0, [r7, #12]
 731 0008 0B46     		mov	r3, r1
 732 000a 7A60     		str	r2, [r7, #4]
 733 000c FB72     		strb	r3, [r7, #11]
 435:Drivers/STM32F3xx_HAL_Driver/Src/stm32f3xx_hal_exti.c ****   HAL_StatusTypeDef status = HAL_OK;
 734              		.loc 1 435 0
 735 000e 0023     		movs	r3, #0
 736 0010 FB75     		strb	r3, [r7, #23]
 436:Drivers/STM32F3xx_HAL_Driver/Src/stm32f3xx_hal_exti.c **** 
 437:Drivers/STM32F3xx_HAL_Driver/Src/stm32f3xx_hal_exti.c ****   switch (CallbackID)
 737              		.loc 1 437 0
 738 0012 FB7A     		ldrb	r3, [r7, #11]	@ zero_extendqisi2
 739 0014 002B     		cmp	r3, #0
 740 0016 03D1     		bne	.L43
 438:Drivers/STM32F3xx_HAL_Driver/Src/stm32f3xx_hal_exti.c ****   {
 439:Drivers/STM32F3xx_HAL_Driver/Src/stm32f3xx_hal_exti.c ****     case  HAL_EXTI_COMMON_CB_ID:
 440:Drivers/STM32F3xx_HAL_Driver/Src/stm32f3xx_hal_exti.c ****       hexti->PendingCallback = pPendingCbfn;
 741              		.loc 1 440 0
 742 0018 FB68     		ldr	r3, [r7, #12]
 743 001a 7A68     		ldr	r2, [r7, #4]
 744 001c 5A60     		str	r2, [r3, #4]
 441:Drivers/STM32F3xx_HAL_Driver/Src/stm32f3xx_hal_exti.c ****       break;
 745              		.loc 1 441 0
 746 001e 02E0     		b	.L41
 747              	.L43:
 442:Drivers/STM32F3xx_HAL_Driver/Src/stm32f3xx_hal_exti.c **** 
 443:Drivers/STM32F3xx_HAL_Driver/Src/stm32f3xx_hal_exti.c ****     default:
 444:Drivers/STM32F3xx_HAL_Driver/Src/stm32f3xx_hal_exti.c ****       status = HAL_ERROR;
 748              		.loc 1 444 0
 749 0020 0123     		movs	r3, #1
 750 0022 FB75     		strb	r3, [r7, #23]
 445:Drivers/STM32F3xx_HAL_Driver/Src/stm32f3xx_hal_exti.c ****       break;
 751              		.loc 1 445 0
 752 0024 00BF     		nop
 753              	.L41:
 446:Drivers/STM32F3xx_HAL_Driver/Src/stm32f3xx_hal_exti.c ****   }
 447:Drivers/STM32F3xx_HAL_Driver/Src/stm32f3xx_hal_exti.c **** 
 448:Drivers/STM32F3xx_HAL_Driver/Src/stm32f3xx_hal_exti.c ****   return status;
 754              		.loc 1 448 0
 755 0026 FB7D     		ldrb	r3, [r7, #23]	@ zero_extendqisi2
 449:Drivers/STM32F3xx_HAL_Driver/Src/stm32f3xx_hal_exti.c **** }
ARM GAS  /tmp/cckLhDKf.s 			page 22


 756              		.loc 1 449 0
 757 0028 1846     		mov	r0, r3
 758 002a 1C37     		adds	r7, r7, #28
 759              	.LCFI21:
 760              		.cfi_def_cfa_offset 4
 761 002c BD46     		mov	sp, r7
 762              	.LCFI22:
 763              		.cfi_def_cfa_register 13
 764              		@ sp needed
 765 002e 5DF8047B 		ldr	r7, [sp], #4
 766              	.LCFI23:
 767              		.cfi_restore 7
 768              		.cfi_def_cfa_offset 0
 769 0032 7047     		bx	lr
 770              		.cfi_endproc
 771              	.LFE126:
 773              		.section	.text.HAL_EXTI_GetHandle,"ax",%progbits
 774              		.align	1
 775              		.global	HAL_EXTI_GetHandle
 776              		.syntax unified
 777              		.thumb
 778              		.thumb_func
 779              		.fpu fpv4-sp-d16
 781              	HAL_EXTI_GetHandle:
 782              	.LFB127:
 450:Drivers/STM32F3xx_HAL_Driver/Src/stm32f3xx_hal_exti.c **** 
 451:Drivers/STM32F3xx_HAL_Driver/Src/stm32f3xx_hal_exti.c **** /**
 452:Drivers/STM32F3xx_HAL_Driver/Src/stm32f3xx_hal_exti.c ****   * @brief  Store line number as handle private field.
 453:Drivers/STM32F3xx_HAL_Driver/Src/stm32f3xx_hal_exti.c ****   * @param  hexti Exti handle.
 454:Drivers/STM32F3xx_HAL_Driver/Src/stm32f3xx_hal_exti.c ****   * @param  ExtiLine Exti line number.
 455:Drivers/STM32F3xx_HAL_Driver/Src/stm32f3xx_hal_exti.c ****   *         This parameter can be from 0 to @ref EXTI_LINE_NB.
 456:Drivers/STM32F3xx_HAL_Driver/Src/stm32f3xx_hal_exti.c ****   * @retval HAL Status.
 457:Drivers/STM32F3xx_HAL_Driver/Src/stm32f3xx_hal_exti.c ****   */
 458:Drivers/STM32F3xx_HAL_Driver/Src/stm32f3xx_hal_exti.c **** HAL_StatusTypeDef HAL_EXTI_GetHandle(EXTI_HandleTypeDef *hexti, uint32_t ExtiLine)
 459:Drivers/STM32F3xx_HAL_Driver/Src/stm32f3xx_hal_exti.c **** {
 783              		.loc 1 459 0
 784              		.cfi_startproc
 785              		@ args = 0, pretend = 0, frame = 8
 786              		@ frame_needed = 1, uses_anonymous_args = 0
 787              		@ link register save eliminated.
 788 0000 80B4     		push	{r7}
 789              	.LCFI24:
 790              		.cfi_def_cfa_offset 4
 791              		.cfi_offset 7, -4
 792 0002 83B0     		sub	sp, sp, #12
 793              	.LCFI25:
 794              		.cfi_def_cfa_offset 16
 795 0004 00AF     		add	r7, sp, #0
 796              	.LCFI26:
 797              		.cfi_def_cfa_register 7
 798 0006 7860     		str	r0, [r7, #4]
 799 0008 3960     		str	r1, [r7]
 460:Drivers/STM32F3xx_HAL_Driver/Src/stm32f3xx_hal_exti.c ****   /* Check the parameters */
 461:Drivers/STM32F3xx_HAL_Driver/Src/stm32f3xx_hal_exti.c ****   assert_param(IS_EXTI_LINE(ExtiLine));
 462:Drivers/STM32F3xx_HAL_Driver/Src/stm32f3xx_hal_exti.c **** 
 463:Drivers/STM32F3xx_HAL_Driver/Src/stm32f3xx_hal_exti.c ****   /* Check null pointer */
 464:Drivers/STM32F3xx_HAL_Driver/Src/stm32f3xx_hal_exti.c ****   if (hexti == NULL)
ARM GAS  /tmp/cckLhDKf.s 			page 23


 800              		.loc 1 464 0
 801 000a 7B68     		ldr	r3, [r7, #4]
 802 000c 002B     		cmp	r3, #0
 803 000e 01D1     		bne	.L45
 465:Drivers/STM32F3xx_HAL_Driver/Src/stm32f3xx_hal_exti.c ****   {
 466:Drivers/STM32F3xx_HAL_Driver/Src/stm32f3xx_hal_exti.c ****     return HAL_ERROR;
 804              		.loc 1 466 0
 805 0010 0123     		movs	r3, #1
 806 0012 03E0     		b	.L46
 807              	.L45:
 467:Drivers/STM32F3xx_HAL_Driver/Src/stm32f3xx_hal_exti.c ****   }
 468:Drivers/STM32F3xx_HAL_Driver/Src/stm32f3xx_hal_exti.c ****   else
 469:Drivers/STM32F3xx_HAL_Driver/Src/stm32f3xx_hal_exti.c ****   {
 470:Drivers/STM32F3xx_HAL_Driver/Src/stm32f3xx_hal_exti.c ****     /* Store line number as handle private field */
 471:Drivers/STM32F3xx_HAL_Driver/Src/stm32f3xx_hal_exti.c ****     hexti->Line = ExtiLine;
 808              		.loc 1 471 0
 809 0014 7B68     		ldr	r3, [r7, #4]
 810 0016 3A68     		ldr	r2, [r7]
 811 0018 1A60     		str	r2, [r3]
 472:Drivers/STM32F3xx_HAL_Driver/Src/stm32f3xx_hal_exti.c **** 
 473:Drivers/STM32F3xx_HAL_Driver/Src/stm32f3xx_hal_exti.c ****     return HAL_OK;
 812              		.loc 1 473 0
 813 001a 0023     		movs	r3, #0
 814              	.L46:
 474:Drivers/STM32F3xx_HAL_Driver/Src/stm32f3xx_hal_exti.c ****   }
 475:Drivers/STM32F3xx_HAL_Driver/Src/stm32f3xx_hal_exti.c **** }
 815              		.loc 1 475 0
 816 001c 1846     		mov	r0, r3
 817 001e 0C37     		adds	r7, r7, #12
 818              	.LCFI27:
 819              		.cfi_def_cfa_offset 4
 820 0020 BD46     		mov	sp, r7
 821              	.LCFI28:
 822              		.cfi_def_cfa_register 13
 823              		@ sp needed
 824 0022 5DF8047B 		ldr	r7, [sp], #4
 825              	.LCFI29:
 826              		.cfi_restore 7
 827              		.cfi_def_cfa_offset 0
 828 0026 7047     		bx	lr
 829              		.cfi_endproc
 830              	.LFE127:
 832              		.section	.text.HAL_EXTI_IRQHandler,"ax",%progbits
 833              		.align	1
 834              		.global	HAL_EXTI_IRQHandler
 835              		.syntax unified
 836              		.thumb
 837              		.thumb_func
 838              		.fpu fpv4-sp-d16
 840              	HAL_EXTI_IRQHandler:
 841              	.LFB128:
 476:Drivers/STM32F3xx_HAL_Driver/Src/stm32f3xx_hal_exti.c **** 
 477:Drivers/STM32F3xx_HAL_Driver/Src/stm32f3xx_hal_exti.c **** /**
 478:Drivers/STM32F3xx_HAL_Driver/Src/stm32f3xx_hal_exti.c ****   * @}
 479:Drivers/STM32F3xx_HAL_Driver/Src/stm32f3xx_hal_exti.c ****   */
 480:Drivers/STM32F3xx_HAL_Driver/Src/stm32f3xx_hal_exti.c **** 
 481:Drivers/STM32F3xx_HAL_Driver/Src/stm32f3xx_hal_exti.c **** /** @addtogroup EXTI_Exported_Functions_Group2
ARM GAS  /tmp/cckLhDKf.s 			page 24


 482:Drivers/STM32F3xx_HAL_Driver/Src/stm32f3xx_hal_exti.c ****   *  @brief EXTI IO functions.
 483:Drivers/STM32F3xx_HAL_Driver/Src/stm32f3xx_hal_exti.c ****   *
 484:Drivers/STM32F3xx_HAL_Driver/Src/stm32f3xx_hal_exti.c **** @verbatim
 485:Drivers/STM32F3xx_HAL_Driver/Src/stm32f3xx_hal_exti.c ****  ===============================================================================
 486:Drivers/STM32F3xx_HAL_Driver/Src/stm32f3xx_hal_exti.c ****                        ##### IO operation functions #####
 487:Drivers/STM32F3xx_HAL_Driver/Src/stm32f3xx_hal_exti.c ****  ===============================================================================
 488:Drivers/STM32F3xx_HAL_Driver/Src/stm32f3xx_hal_exti.c **** 
 489:Drivers/STM32F3xx_HAL_Driver/Src/stm32f3xx_hal_exti.c **** @endverbatim
 490:Drivers/STM32F3xx_HAL_Driver/Src/stm32f3xx_hal_exti.c ****   * @{
 491:Drivers/STM32F3xx_HAL_Driver/Src/stm32f3xx_hal_exti.c ****   */
 492:Drivers/STM32F3xx_HAL_Driver/Src/stm32f3xx_hal_exti.c **** 
 493:Drivers/STM32F3xx_HAL_Driver/Src/stm32f3xx_hal_exti.c **** /**
 494:Drivers/STM32F3xx_HAL_Driver/Src/stm32f3xx_hal_exti.c ****   * @brief  Handle EXTI interrupt request.
 495:Drivers/STM32F3xx_HAL_Driver/Src/stm32f3xx_hal_exti.c ****   * @param  hexti Exti handle.
 496:Drivers/STM32F3xx_HAL_Driver/Src/stm32f3xx_hal_exti.c ****   * @retval none.
 497:Drivers/STM32F3xx_HAL_Driver/Src/stm32f3xx_hal_exti.c ****   */
 498:Drivers/STM32F3xx_HAL_Driver/Src/stm32f3xx_hal_exti.c **** void HAL_EXTI_IRQHandler(EXTI_HandleTypeDef *hexti)
 499:Drivers/STM32F3xx_HAL_Driver/Src/stm32f3xx_hal_exti.c **** {
 842              		.loc 1 499 0
 843              		.cfi_startproc
 844              		@ args = 0, pretend = 0, frame = 24
 845              		@ frame_needed = 1, uses_anonymous_args = 0
 846 0000 80B5     		push	{r7, lr}
 847              	.LCFI30:
 848              		.cfi_def_cfa_offset 8
 849              		.cfi_offset 7, -8
 850              		.cfi_offset 14, -4
 851 0002 86B0     		sub	sp, sp, #24
 852              	.LCFI31:
 853              		.cfi_def_cfa_offset 32
 854 0004 00AF     		add	r7, sp, #0
 855              	.LCFI32:
 856              		.cfi_def_cfa_register 7
 857 0006 7860     		str	r0, [r7, #4]
 500:Drivers/STM32F3xx_HAL_Driver/Src/stm32f3xx_hal_exti.c ****   __IO uint32_t *regaddr;
 501:Drivers/STM32F3xx_HAL_Driver/Src/stm32f3xx_hal_exti.c ****   uint32_t regval;
 502:Drivers/STM32F3xx_HAL_Driver/Src/stm32f3xx_hal_exti.c ****   uint32_t maskline;
 503:Drivers/STM32F3xx_HAL_Driver/Src/stm32f3xx_hal_exti.c ****   uint32_t offset;
 504:Drivers/STM32F3xx_HAL_Driver/Src/stm32f3xx_hal_exti.c **** 
 505:Drivers/STM32F3xx_HAL_Driver/Src/stm32f3xx_hal_exti.c ****   /* Compute line register offset and line mask */
 506:Drivers/STM32F3xx_HAL_Driver/Src/stm32f3xx_hal_exti.c ****   offset = ((hexti->Line & EXTI_REG_MASK) >> EXTI_REG_SHIFT);
 858              		.loc 1 506 0
 859 0008 7B68     		ldr	r3, [r7, #4]
 860 000a 1B68     		ldr	r3, [r3]
 861 000c 1B0C     		lsrs	r3, r3, #16
 862 000e 03F00103 		and	r3, r3, #1
 863 0012 7B61     		str	r3, [r7, #20]
 507:Drivers/STM32F3xx_HAL_Driver/Src/stm32f3xx_hal_exti.c ****   maskline = (1uL << (hexti->Line & EXTI_PIN_MASK));
 864              		.loc 1 507 0
 865 0014 7B68     		ldr	r3, [r7, #4]
 866 0016 1B68     		ldr	r3, [r3]
 867 0018 03F01F03 		and	r3, r3, #31
 868 001c 0122     		movs	r2, #1
 869 001e 02FA03F3 		lsl	r3, r2, r3
 870 0022 3B61     		str	r3, [r7, #16]
 508:Drivers/STM32F3xx_HAL_Driver/Src/stm32f3xx_hal_exti.c **** 
 509:Drivers/STM32F3xx_HAL_Driver/Src/stm32f3xx_hal_exti.c ****   /* Get pending bit  */
ARM GAS  /tmp/cckLhDKf.s 			page 25


 510:Drivers/STM32F3xx_HAL_Driver/Src/stm32f3xx_hal_exti.c ****   regaddr = (&EXTI->PR + (EXTI_CONFIG_OFFSET * offset));
 871              		.loc 1 510 0
 872 0024 7B69     		ldr	r3, [r7, #20]
 873 0026 5A01     		lsls	r2, r3, #5
 874 0028 0C4B     		ldr	r3, .L50
 875 002a 1344     		add	r3, r3, r2
 876 002c FB60     		str	r3, [r7, #12]
 511:Drivers/STM32F3xx_HAL_Driver/Src/stm32f3xx_hal_exti.c ****   regval = (*regaddr & maskline);
 877              		.loc 1 511 0
 878 002e FB68     		ldr	r3, [r7, #12]
 879 0030 1B68     		ldr	r3, [r3]
 880 0032 3A69     		ldr	r2, [r7, #16]
 881 0034 1340     		ands	r3, r3, r2
 882 0036 BB60     		str	r3, [r7, #8]
 512:Drivers/STM32F3xx_HAL_Driver/Src/stm32f3xx_hal_exti.c **** 
 513:Drivers/STM32F3xx_HAL_Driver/Src/stm32f3xx_hal_exti.c ****   if (regval != 0x00u)
 883              		.loc 1 513 0
 884 0038 BB68     		ldr	r3, [r7, #8]
 885 003a 002B     		cmp	r3, #0
 886 003c 09D0     		beq	.L49
 514:Drivers/STM32F3xx_HAL_Driver/Src/stm32f3xx_hal_exti.c ****   {
 515:Drivers/STM32F3xx_HAL_Driver/Src/stm32f3xx_hal_exti.c ****     /* Clear pending bit */
 516:Drivers/STM32F3xx_HAL_Driver/Src/stm32f3xx_hal_exti.c ****     EXTI->PR = maskline;
 887              		.loc 1 516 0
 888 003e 084A     		ldr	r2, .L50+4
 889 0040 3B69     		ldr	r3, [r7, #16]
 890 0042 5361     		str	r3, [r2, #20]
 517:Drivers/STM32F3xx_HAL_Driver/Src/stm32f3xx_hal_exti.c **** 
 518:Drivers/STM32F3xx_HAL_Driver/Src/stm32f3xx_hal_exti.c ****     /* Call callback */
 519:Drivers/STM32F3xx_HAL_Driver/Src/stm32f3xx_hal_exti.c ****     if (hexti->PendingCallback != NULL)
 891              		.loc 1 519 0
 892 0044 7B68     		ldr	r3, [r7, #4]
 893 0046 5B68     		ldr	r3, [r3, #4]
 894 0048 002B     		cmp	r3, #0
 895 004a 02D0     		beq	.L49
 520:Drivers/STM32F3xx_HAL_Driver/Src/stm32f3xx_hal_exti.c ****     {
 521:Drivers/STM32F3xx_HAL_Driver/Src/stm32f3xx_hal_exti.c ****       hexti->PendingCallback();
 896              		.loc 1 521 0
 897 004c 7B68     		ldr	r3, [r7, #4]
 898 004e 5B68     		ldr	r3, [r3, #4]
 899 0050 9847     		blx	r3
 900              	.LVL0:
 901              	.L49:
 522:Drivers/STM32F3xx_HAL_Driver/Src/stm32f3xx_hal_exti.c ****     }
 523:Drivers/STM32F3xx_HAL_Driver/Src/stm32f3xx_hal_exti.c ****   }
 524:Drivers/STM32F3xx_HAL_Driver/Src/stm32f3xx_hal_exti.c **** }
 902              		.loc 1 524 0
 903 0052 00BF     		nop
 904 0054 1837     		adds	r7, r7, #24
 905              	.LCFI33:
 906              		.cfi_def_cfa_offset 8
 907 0056 BD46     		mov	sp, r7
 908              	.LCFI34:
 909              		.cfi_def_cfa_register 13
 910              		@ sp needed
 911 0058 80BD     		pop	{r7, pc}
 912              	.L51:
ARM GAS  /tmp/cckLhDKf.s 			page 26


 913 005a 00BF     		.align	2
 914              	.L50:
 915 005c 14040140 		.word	1073808404
 916 0060 00040140 		.word	1073808384
 917              		.cfi_endproc
 918              	.LFE128:
 920              		.section	.text.HAL_EXTI_GetPending,"ax",%progbits
 921              		.align	1
 922              		.global	HAL_EXTI_GetPending
 923              		.syntax unified
 924              		.thumb
 925              		.thumb_func
 926              		.fpu fpv4-sp-d16
 928              	HAL_EXTI_GetPending:
 929              	.LFB129:
 525:Drivers/STM32F3xx_HAL_Driver/Src/stm32f3xx_hal_exti.c **** 
 526:Drivers/STM32F3xx_HAL_Driver/Src/stm32f3xx_hal_exti.c **** /**
 527:Drivers/STM32F3xx_HAL_Driver/Src/stm32f3xx_hal_exti.c ****   * @brief  Get interrupt pending bit of a dedicated line.
 528:Drivers/STM32F3xx_HAL_Driver/Src/stm32f3xx_hal_exti.c ****   * @param  hexti Exti handle.
 529:Drivers/STM32F3xx_HAL_Driver/Src/stm32f3xx_hal_exti.c ****   * @param  Edge Specify which pending edge as to be checked.
 530:Drivers/STM32F3xx_HAL_Driver/Src/stm32f3xx_hal_exti.c ****   *         This parameter can be one of the following values:
 531:Drivers/STM32F3xx_HAL_Driver/Src/stm32f3xx_hal_exti.c ****   *           @arg @ref EXTI_TRIGGER_RISING_FALLING
 532:Drivers/STM32F3xx_HAL_Driver/Src/stm32f3xx_hal_exti.c ****   *         This parameter is kept for compatibility with other series.
 533:Drivers/STM32F3xx_HAL_Driver/Src/stm32f3xx_hal_exti.c ****   * @retval 1 if interrupt is pending else 0.
 534:Drivers/STM32F3xx_HAL_Driver/Src/stm32f3xx_hal_exti.c ****   */
 535:Drivers/STM32F3xx_HAL_Driver/Src/stm32f3xx_hal_exti.c **** uint32_t HAL_EXTI_GetPending(EXTI_HandleTypeDef *hexti, uint32_t Edge)
 536:Drivers/STM32F3xx_HAL_Driver/Src/stm32f3xx_hal_exti.c **** {
 930              		.loc 1 536 0
 931              		.cfi_startproc
 932              		@ args = 0, pretend = 0, frame = 32
 933              		@ frame_needed = 1, uses_anonymous_args = 0
 934              		@ link register save eliminated.
 935 0000 80B4     		push	{r7}
 936              	.LCFI35:
 937              		.cfi_def_cfa_offset 4
 938              		.cfi_offset 7, -4
 939 0002 89B0     		sub	sp, sp, #36
 940              	.LCFI36:
 941              		.cfi_def_cfa_offset 40
 942 0004 00AF     		add	r7, sp, #0
 943              	.LCFI37:
 944              		.cfi_def_cfa_register 7
 945 0006 7860     		str	r0, [r7, #4]
 946 0008 3960     		str	r1, [r7]
 537:Drivers/STM32F3xx_HAL_Driver/Src/stm32f3xx_hal_exti.c ****   __IO uint32_t *regaddr;
 538:Drivers/STM32F3xx_HAL_Driver/Src/stm32f3xx_hal_exti.c ****   uint32_t regval;
 539:Drivers/STM32F3xx_HAL_Driver/Src/stm32f3xx_hal_exti.c ****   uint32_t linepos;
 540:Drivers/STM32F3xx_HAL_Driver/Src/stm32f3xx_hal_exti.c ****   uint32_t maskline;
 541:Drivers/STM32F3xx_HAL_Driver/Src/stm32f3xx_hal_exti.c ****   uint32_t offset;
 542:Drivers/STM32F3xx_HAL_Driver/Src/stm32f3xx_hal_exti.c **** 
 543:Drivers/STM32F3xx_HAL_Driver/Src/stm32f3xx_hal_exti.c ****   /* Check parameters */
 544:Drivers/STM32F3xx_HAL_Driver/Src/stm32f3xx_hal_exti.c ****   assert_param(IS_EXTI_LINE(hexti->Line));
 545:Drivers/STM32F3xx_HAL_Driver/Src/stm32f3xx_hal_exti.c ****   assert_param(IS_EXTI_CONFIG_LINE(hexti->Line));
 546:Drivers/STM32F3xx_HAL_Driver/Src/stm32f3xx_hal_exti.c ****   assert_param(IS_EXTI_PENDING_EDGE(Edge));
 547:Drivers/STM32F3xx_HAL_Driver/Src/stm32f3xx_hal_exti.c **** 
 548:Drivers/STM32F3xx_HAL_Driver/Src/stm32f3xx_hal_exti.c ****   /* compute line register offset and line mask */
 549:Drivers/STM32F3xx_HAL_Driver/Src/stm32f3xx_hal_exti.c ****   offset = ((hexti->Line & EXTI_REG_MASK) >> EXTI_REG_SHIFT);
ARM GAS  /tmp/cckLhDKf.s 			page 27


 947              		.loc 1 549 0
 948 000a 7B68     		ldr	r3, [r7, #4]
 949 000c 1B68     		ldr	r3, [r3]
 950 000e 1B0C     		lsrs	r3, r3, #16
 951 0010 03F00103 		and	r3, r3, #1
 952 0014 FB61     		str	r3, [r7, #28]
 550:Drivers/STM32F3xx_HAL_Driver/Src/stm32f3xx_hal_exti.c ****   linepos = (hexti->Line & EXTI_PIN_MASK);
 953              		.loc 1 550 0
 954 0016 7B68     		ldr	r3, [r7, #4]
 955 0018 1B68     		ldr	r3, [r3]
 956 001a 03F01F03 		and	r3, r3, #31
 957 001e BB61     		str	r3, [r7, #24]
 551:Drivers/STM32F3xx_HAL_Driver/Src/stm32f3xx_hal_exti.c ****   maskline = (1uL << linepos);
 958              		.loc 1 551 0
 959 0020 0122     		movs	r2, #1
 960 0022 BB69     		ldr	r3, [r7, #24]
 961 0024 02FA03F3 		lsl	r3, r2, r3
 962 0028 7B61     		str	r3, [r7, #20]
 552:Drivers/STM32F3xx_HAL_Driver/Src/stm32f3xx_hal_exti.c **** 
 553:Drivers/STM32F3xx_HAL_Driver/Src/stm32f3xx_hal_exti.c ****   /* Get pending bit  */
 554:Drivers/STM32F3xx_HAL_Driver/Src/stm32f3xx_hal_exti.c ****   regaddr = (&EXTI->PR + (EXTI_CONFIG_OFFSET * offset));
 963              		.loc 1 554 0
 964 002a FB69     		ldr	r3, [r7, #28]
 965 002c 5A01     		lsls	r2, r3, #5
 966 002e 094B     		ldr	r3, .L54
 967 0030 1344     		add	r3, r3, r2
 968 0032 3B61     		str	r3, [r7, #16]
 555:Drivers/STM32F3xx_HAL_Driver/Src/stm32f3xx_hal_exti.c ****   /* return 1 if bit is set else 0 */
 556:Drivers/STM32F3xx_HAL_Driver/Src/stm32f3xx_hal_exti.c ****   regval = ((*regaddr & maskline) >> linepos);
 969              		.loc 1 556 0
 970 0034 3B69     		ldr	r3, [r7, #16]
 971 0036 1A68     		ldr	r2, [r3]
 972 0038 7B69     		ldr	r3, [r7, #20]
 973 003a 1A40     		ands	r2, r2, r3
 974 003c BB69     		ldr	r3, [r7, #24]
 975 003e 22FA03F3 		lsr	r3, r2, r3
 976 0042 FB60     		str	r3, [r7, #12]
 557:Drivers/STM32F3xx_HAL_Driver/Src/stm32f3xx_hal_exti.c ****   return regval;
 977              		.loc 1 557 0
 978 0044 FB68     		ldr	r3, [r7, #12]
 558:Drivers/STM32F3xx_HAL_Driver/Src/stm32f3xx_hal_exti.c **** }
 979              		.loc 1 558 0
 980 0046 1846     		mov	r0, r3
 981 0048 2437     		adds	r7, r7, #36
 982              	.LCFI38:
 983              		.cfi_def_cfa_offset 4
 984 004a BD46     		mov	sp, r7
 985              	.LCFI39:
 986              		.cfi_def_cfa_register 13
 987              		@ sp needed
 988 004c 5DF8047B 		ldr	r7, [sp], #4
 989              	.LCFI40:
 990              		.cfi_restore 7
 991              		.cfi_def_cfa_offset 0
 992 0050 7047     		bx	lr
 993              	.L55:
 994 0052 00BF     		.align	2
ARM GAS  /tmp/cckLhDKf.s 			page 28


 995              	.L54:
 996 0054 14040140 		.word	1073808404
 997              		.cfi_endproc
 998              	.LFE129:
 1000              		.section	.text.HAL_EXTI_ClearPending,"ax",%progbits
 1001              		.align	1
 1002              		.global	HAL_EXTI_ClearPending
 1003              		.syntax unified
 1004              		.thumb
 1005              		.thumb_func
 1006              		.fpu fpv4-sp-d16
 1008              	HAL_EXTI_ClearPending:
 1009              	.LFB130:
 559:Drivers/STM32F3xx_HAL_Driver/Src/stm32f3xx_hal_exti.c **** 
 560:Drivers/STM32F3xx_HAL_Driver/Src/stm32f3xx_hal_exti.c **** /**
 561:Drivers/STM32F3xx_HAL_Driver/Src/stm32f3xx_hal_exti.c ****   * @brief  Clear interrupt pending bit of a dedicated line.
 562:Drivers/STM32F3xx_HAL_Driver/Src/stm32f3xx_hal_exti.c ****   * @param  hexti Exti handle.
 563:Drivers/STM32F3xx_HAL_Driver/Src/stm32f3xx_hal_exti.c ****   * @param  Edge Specify which pending edge as to be clear.
 564:Drivers/STM32F3xx_HAL_Driver/Src/stm32f3xx_hal_exti.c ****   *         This parameter can be one of the following values:
 565:Drivers/STM32F3xx_HAL_Driver/Src/stm32f3xx_hal_exti.c ****   *           @arg @ref EXTI_TRIGGER_RISING_FALLING
 566:Drivers/STM32F3xx_HAL_Driver/Src/stm32f3xx_hal_exti.c ****   *         This parameter is kept for compatibility with other series.
 567:Drivers/STM32F3xx_HAL_Driver/Src/stm32f3xx_hal_exti.c ****   * @retval None.
 568:Drivers/STM32F3xx_HAL_Driver/Src/stm32f3xx_hal_exti.c ****   */
 569:Drivers/STM32F3xx_HAL_Driver/Src/stm32f3xx_hal_exti.c **** void HAL_EXTI_ClearPending(EXTI_HandleTypeDef *hexti, uint32_t Edge)
 570:Drivers/STM32F3xx_HAL_Driver/Src/stm32f3xx_hal_exti.c **** {
 1010              		.loc 1 570 0
 1011              		.cfi_startproc
 1012              		@ args = 0, pretend = 0, frame = 24
 1013              		@ frame_needed = 1, uses_anonymous_args = 0
 1014              		@ link register save eliminated.
 1015 0000 80B4     		push	{r7}
 1016              	.LCFI41:
 1017              		.cfi_def_cfa_offset 4
 1018              		.cfi_offset 7, -4
 1019 0002 87B0     		sub	sp, sp, #28
 1020              	.LCFI42:
 1021              		.cfi_def_cfa_offset 32
 1022 0004 00AF     		add	r7, sp, #0
 1023              	.LCFI43:
 1024              		.cfi_def_cfa_register 7
 1025 0006 7860     		str	r0, [r7, #4]
 1026 0008 3960     		str	r1, [r7]
 571:Drivers/STM32F3xx_HAL_Driver/Src/stm32f3xx_hal_exti.c ****   __IO uint32_t *regaddr;
 572:Drivers/STM32F3xx_HAL_Driver/Src/stm32f3xx_hal_exti.c ****   uint32_t maskline;
 573:Drivers/STM32F3xx_HAL_Driver/Src/stm32f3xx_hal_exti.c ****   uint32_t offset;
 574:Drivers/STM32F3xx_HAL_Driver/Src/stm32f3xx_hal_exti.c **** 
 575:Drivers/STM32F3xx_HAL_Driver/Src/stm32f3xx_hal_exti.c ****   /* Check parameters */
 576:Drivers/STM32F3xx_HAL_Driver/Src/stm32f3xx_hal_exti.c ****   assert_param(IS_EXTI_LINE(hexti->Line));
 577:Drivers/STM32F3xx_HAL_Driver/Src/stm32f3xx_hal_exti.c ****   assert_param(IS_EXTI_CONFIG_LINE(hexti->Line));
 578:Drivers/STM32F3xx_HAL_Driver/Src/stm32f3xx_hal_exti.c ****   assert_param(IS_EXTI_PENDING_EDGE(Edge));
 579:Drivers/STM32F3xx_HAL_Driver/Src/stm32f3xx_hal_exti.c **** 
 580:Drivers/STM32F3xx_HAL_Driver/Src/stm32f3xx_hal_exti.c ****   /* compute line register offset and line mask */
 581:Drivers/STM32F3xx_HAL_Driver/Src/stm32f3xx_hal_exti.c ****   offset = ((hexti->Line & EXTI_REG_MASK) >> EXTI_REG_SHIFT);
 1027              		.loc 1 581 0
 1028 000a 7B68     		ldr	r3, [r7, #4]
 1029 000c 1B68     		ldr	r3, [r3]
 1030 000e 1B0C     		lsrs	r3, r3, #16
ARM GAS  /tmp/cckLhDKf.s 			page 29


 1031 0010 03F00103 		and	r3, r3, #1
 1032 0014 7B61     		str	r3, [r7, #20]
 582:Drivers/STM32F3xx_HAL_Driver/Src/stm32f3xx_hal_exti.c ****   maskline = (1uL << (hexti->Line & EXTI_PIN_MASK));
 1033              		.loc 1 582 0
 1034 0016 7B68     		ldr	r3, [r7, #4]
 1035 0018 1B68     		ldr	r3, [r3]
 1036 001a 03F01F03 		and	r3, r3, #31
 1037 001e 0122     		movs	r2, #1
 1038 0020 02FA03F3 		lsl	r3, r2, r3
 1039 0024 3B61     		str	r3, [r7, #16]
 583:Drivers/STM32F3xx_HAL_Driver/Src/stm32f3xx_hal_exti.c **** 
 584:Drivers/STM32F3xx_HAL_Driver/Src/stm32f3xx_hal_exti.c ****   /* Get pending bit  */
 585:Drivers/STM32F3xx_HAL_Driver/Src/stm32f3xx_hal_exti.c ****   regaddr = (&EXTI->PR + (EXTI_CONFIG_OFFSET * offset));
 1040              		.loc 1 585 0
 1041 0026 7B69     		ldr	r3, [r7, #20]
 1042 0028 5A01     		lsls	r2, r3, #5
 1043 002a 064B     		ldr	r3, .L57
 1044 002c 1344     		add	r3, r3, r2
 1045 002e FB60     		str	r3, [r7, #12]
 586:Drivers/STM32F3xx_HAL_Driver/Src/stm32f3xx_hal_exti.c **** 
 587:Drivers/STM32F3xx_HAL_Driver/Src/stm32f3xx_hal_exti.c ****   /* Clear Pending bit */
 588:Drivers/STM32F3xx_HAL_Driver/Src/stm32f3xx_hal_exti.c ****   *regaddr =  maskline;
 1046              		.loc 1 588 0
 1047 0030 FB68     		ldr	r3, [r7, #12]
 1048 0032 3A69     		ldr	r2, [r7, #16]
 1049 0034 1A60     		str	r2, [r3]
 589:Drivers/STM32F3xx_HAL_Driver/Src/stm32f3xx_hal_exti.c **** }
 1050              		.loc 1 589 0
 1051 0036 00BF     		nop
 1052 0038 1C37     		adds	r7, r7, #28
 1053              	.LCFI44:
 1054              		.cfi_def_cfa_offset 4
 1055 003a BD46     		mov	sp, r7
 1056              	.LCFI45:
 1057              		.cfi_def_cfa_register 13
 1058              		@ sp needed
 1059 003c 5DF8047B 		ldr	r7, [sp], #4
 1060              	.LCFI46:
 1061              		.cfi_restore 7
 1062              		.cfi_def_cfa_offset 0
 1063 0040 7047     		bx	lr
 1064              	.L58:
 1065 0042 00BF     		.align	2
 1066              	.L57:
 1067 0044 14040140 		.word	1073808404
 1068              		.cfi_endproc
 1069              	.LFE130:
 1071              		.section	.text.HAL_EXTI_GenerateSWI,"ax",%progbits
 1072              		.align	1
 1073              		.global	HAL_EXTI_GenerateSWI
 1074              		.syntax unified
 1075              		.thumb
 1076              		.thumb_func
 1077              		.fpu fpv4-sp-d16
 1079              	HAL_EXTI_GenerateSWI:
 1080              	.LFB131:
 590:Drivers/STM32F3xx_HAL_Driver/Src/stm32f3xx_hal_exti.c **** 
ARM GAS  /tmp/cckLhDKf.s 			page 30


 591:Drivers/STM32F3xx_HAL_Driver/Src/stm32f3xx_hal_exti.c **** /**
 592:Drivers/STM32F3xx_HAL_Driver/Src/stm32f3xx_hal_exti.c ****   * @brief  Generate a software interrupt for a dedicated line.
 593:Drivers/STM32F3xx_HAL_Driver/Src/stm32f3xx_hal_exti.c ****   * @param  hexti Exti handle.
 594:Drivers/STM32F3xx_HAL_Driver/Src/stm32f3xx_hal_exti.c ****   * @retval None.
 595:Drivers/STM32F3xx_HAL_Driver/Src/stm32f3xx_hal_exti.c ****   */
 596:Drivers/STM32F3xx_HAL_Driver/Src/stm32f3xx_hal_exti.c **** void HAL_EXTI_GenerateSWI(EXTI_HandleTypeDef *hexti)
 597:Drivers/STM32F3xx_HAL_Driver/Src/stm32f3xx_hal_exti.c **** {
 1081              		.loc 1 597 0
 1082              		.cfi_startproc
 1083              		@ args = 0, pretend = 0, frame = 24
 1084              		@ frame_needed = 1, uses_anonymous_args = 0
 1085              		@ link register save eliminated.
 1086 0000 80B4     		push	{r7}
 1087              	.LCFI47:
 1088              		.cfi_def_cfa_offset 4
 1089              		.cfi_offset 7, -4
 1090 0002 87B0     		sub	sp, sp, #28
 1091              	.LCFI48:
 1092              		.cfi_def_cfa_offset 32
 1093 0004 00AF     		add	r7, sp, #0
 1094              	.LCFI49:
 1095              		.cfi_def_cfa_register 7
 1096 0006 7860     		str	r0, [r7, #4]
 598:Drivers/STM32F3xx_HAL_Driver/Src/stm32f3xx_hal_exti.c ****   __IO uint32_t *regaddr;
 599:Drivers/STM32F3xx_HAL_Driver/Src/stm32f3xx_hal_exti.c ****   uint32_t maskline;
 600:Drivers/STM32F3xx_HAL_Driver/Src/stm32f3xx_hal_exti.c ****   uint32_t offset;
 601:Drivers/STM32F3xx_HAL_Driver/Src/stm32f3xx_hal_exti.c **** 
 602:Drivers/STM32F3xx_HAL_Driver/Src/stm32f3xx_hal_exti.c ****   /* Check parameters */
 603:Drivers/STM32F3xx_HAL_Driver/Src/stm32f3xx_hal_exti.c ****   assert_param(IS_EXTI_LINE(hexti->Line));
 604:Drivers/STM32F3xx_HAL_Driver/Src/stm32f3xx_hal_exti.c ****   assert_param(IS_EXTI_CONFIG_LINE(hexti->Line));
 605:Drivers/STM32F3xx_HAL_Driver/Src/stm32f3xx_hal_exti.c **** 
 606:Drivers/STM32F3xx_HAL_Driver/Src/stm32f3xx_hal_exti.c ****   /* compute line register offset and line mask */
 607:Drivers/STM32F3xx_HAL_Driver/Src/stm32f3xx_hal_exti.c ****   offset = ((hexti->Line & EXTI_REG_MASK) >> EXTI_REG_SHIFT);
 1097              		.loc 1 607 0
 1098 0008 7B68     		ldr	r3, [r7, #4]
 1099 000a 1B68     		ldr	r3, [r3]
 1100 000c 1B0C     		lsrs	r3, r3, #16
 1101 000e 03F00103 		and	r3, r3, #1
 1102 0012 7B61     		str	r3, [r7, #20]
 608:Drivers/STM32F3xx_HAL_Driver/Src/stm32f3xx_hal_exti.c ****   maskline = (1uL << (hexti->Line & EXTI_PIN_MASK));
 1103              		.loc 1 608 0
 1104 0014 7B68     		ldr	r3, [r7, #4]
 1105 0016 1B68     		ldr	r3, [r3]
 1106 0018 03F01F03 		and	r3, r3, #31
 1107 001c 0122     		movs	r2, #1
 1108 001e 02FA03F3 		lsl	r3, r2, r3
 1109 0022 3B61     		str	r3, [r7, #16]
 609:Drivers/STM32F3xx_HAL_Driver/Src/stm32f3xx_hal_exti.c **** 
 610:Drivers/STM32F3xx_HAL_Driver/Src/stm32f3xx_hal_exti.c ****   regaddr = (&EXTI->SWIER + (EXTI_CONFIG_OFFSET * offset));
 1110              		.loc 1 610 0
 1111 0024 7B69     		ldr	r3, [r7, #20]
 1112 0026 5A01     		lsls	r2, r3, #5
 1113 0028 054B     		ldr	r3, .L60
 1114 002a 1344     		add	r3, r3, r2
 1115 002c FB60     		str	r3, [r7, #12]
 611:Drivers/STM32F3xx_HAL_Driver/Src/stm32f3xx_hal_exti.c ****   *regaddr = maskline;
 1116              		.loc 1 611 0
ARM GAS  /tmp/cckLhDKf.s 			page 31


 1117 002e FB68     		ldr	r3, [r7, #12]
 1118 0030 3A69     		ldr	r2, [r7, #16]
 1119 0032 1A60     		str	r2, [r3]
 612:Drivers/STM32F3xx_HAL_Driver/Src/stm32f3xx_hal_exti.c **** }
 1120              		.loc 1 612 0
 1121 0034 00BF     		nop
 1122 0036 1C37     		adds	r7, r7, #28
 1123              	.LCFI50:
 1124              		.cfi_def_cfa_offset 4
 1125 0038 BD46     		mov	sp, r7
 1126              	.LCFI51:
 1127              		.cfi_def_cfa_register 13
 1128              		@ sp needed
 1129 003a 5DF8047B 		ldr	r7, [sp], #4
 1130              	.LCFI52:
 1131              		.cfi_restore 7
 1132              		.cfi_def_cfa_offset 0
 1133 003e 7047     		bx	lr
 1134              	.L61:
 1135              		.align	2
 1136              	.L60:
 1137 0040 10040140 		.word	1073808400
 1138              		.cfi_endproc
 1139              	.LFE131:
 1141              		.text
 1142              	.Letext0:
 1143              		.file 2 "/opt/st/stm32cubeide_1.3.0/plugins/com.st.stm32cube.ide.mcu.externaltools.gnu-tools-for-s
 1144              		.file 3 "/opt/st/stm32cubeide_1.3.0/plugins/com.st.stm32cube.ide.mcu.externaltools.gnu-tools-for-s
 1145              		.file 4 "Drivers/CMSIS/Include/core_cm4.h"
 1146              		.file 5 "Drivers/CMSIS/Device/ST/STM32F3xx/Include/system_stm32f3xx.h"
 1147              		.file 6 "Drivers/CMSIS/Device/ST/STM32F3xx/Include/stm32f303x8.h"
 1148              		.file 7 "Drivers/STM32F3xx_HAL_Driver/Inc/stm32f3xx_hal_def.h"
 1149              		.file 8 "Drivers/STM32F3xx_HAL_Driver/Inc/stm32f3xx_hal_exti.h"
 1150              		.file 9 "Drivers/STM32F3xx_HAL_Driver/Inc/stm32f3xx_hal.h"
ARM GAS  /tmp/cckLhDKf.s 			page 32

