ARM GAS  /tmp/ccAMRbe4.s 			page 1


   1              		.cpu cortex-m4
   2              		.eabi_attribute 27, 1
   3              		.eabi_attribute 28, 1
   4              		.eabi_attribute 20, 1
   5              		.eabi_attribute 21, 1
   6              		.eabi_attribute 23, 3
   7              		.eabi_attribute 24, 1
   8              		.eabi_attribute 25, 1
   9              		.eabi_attribute 26, 1
  10              		.eabi_attribute 30, 6
  11              		.eabi_attribute 34, 1
  12              		.eabi_attribute 18, 4
  13              		.file	"stm32f3xx_hal_dma.c"
  14              		.text
  15              	.Ltext0:
  16              		.cfi_sections	.debug_frame
  17              		.section	.text.HAL_DMA_Init,"ax",%progbits
  18              		.align	1
  19              		.global	HAL_DMA_Init
  20              		.syntax unified
  21              		.thumb
  22              		.thumb_func
  23              		.fpu fpv4-sp-d16
  25              	HAL_DMA_Init:
  26              	.LFB123:
  27              		.file 1 "Drivers/STM32F3xx_HAL_Driver/Src/stm32f3xx_hal_dma.c"
   1:Drivers/STM32F3xx_HAL_Driver/Src/stm32f3xx_hal_dma.c **** /**
   2:Drivers/STM32F3xx_HAL_Driver/Src/stm32f3xx_hal_dma.c ****   ******************************************************************************
   3:Drivers/STM32F3xx_HAL_Driver/Src/stm32f3xx_hal_dma.c ****   * @file    stm32f3xx_hal_dma.c
   4:Drivers/STM32F3xx_HAL_Driver/Src/stm32f3xx_hal_dma.c ****   * @author  MCD Application Team
   5:Drivers/STM32F3xx_HAL_Driver/Src/stm32f3xx_hal_dma.c ****   * @brief   DMA HAL module driver.
   6:Drivers/STM32F3xx_HAL_Driver/Src/stm32f3xx_hal_dma.c ****   *    
   7:Drivers/STM32F3xx_HAL_Driver/Src/stm32f3xx_hal_dma.c ****   *         This file provides firmware functions to manage the following 
   8:Drivers/STM32F3xx_HAL_Driver/Src/stm32f3xx_hal_dma.c ****   *         functionalities of the Direct Memory Access (DMA) peripheral:
   9:Drivers/STM32F3xx_HAL_Driver/Src/stm32f3xx_hal_dma.c ****   *           + Initialization and de-initialization functions
  10:Drivers/STM32F3xx_HAL_Driver/Src/stm32f3xx_hal_dma.c ****   *           + IO operation functions
  11:Drivers/STM32F3xx_HAL_Driver/Src/stm32f3xx_hal_dma.c ****   *           + Peripheral State and errors functions
  12:Drivers/STM32F3xx_HAL_Driver/Src/stm32f3xx_hal_dma.c ****   @verbatim     
  13:Drivers/STM32F3xx_HAL_Driver/Src/stm32f3xx_hal_dma.c ****   ==============================================================================      
  14:Drivers/STM32F3xx_HAL_Driver/Src/stm32f3xx_hal_dma.c ****                         ##### How to use this driver #####
  15:Drivers/STM32F3xx_HAL_Driver/Src/stm32f3xx_hal_dma.c ****   ============================================================================== 
  16:Drivers/STM32F3xx_HAL_Driver/Src/stm32f3xx_hal_dma.c ****   [..]
  17:Drivers/STM32F3xx_HAL_Driver/Src/stm32f3xx_hal_dma.c ****    (#) Enable and configure the peripheral to be connected to the DMA Channel
  18:Drivers/STM32F3xx_HAL_Driver/Src/stm32f3xx_hal_dma.c ****        (except for internal SRAM / FLASH memories: no initialization is 
  19:Drivers/STM32F3xx_HAL_Driver/Src/stm32f3xx_hal_dma.c ****        necessary). Please refer to Reference manual for connection between peripherals
  20:Drivers/STM32F3xx_HAL_Driver/Src/stm32f3xx_hal_dma.c ****        and DMA requests .
  21:Drivers/STM32F3xx_HAL_Driver/Src/stm32f3xx_hal_dma.c **** 
  22:Drivers/STM32F3xx_HAL_Driver/Src/stm32f3xx_hal_dma.c ****    (#) For a given Channel, program the required configuration through the following parameters:   
  23:Drivers/STM32F3xx_HAL_Driver/Src/stm32f3xx_hal_dma.c ****        Transfer Direction, Source and Destination data formats, 
  24:Drivers/STM32F3xx_HAL_Driver/Src/stm32f3xx_hal_dma.c ****        Circular or Normal mode, Channel Priority level, Source and Destination Increment mode, 
  25:Drivers/STM32F3xx_HAL_Driver/Src/stm32f3xx_hal_dma.c ****        using HAL_DMA_Init() function.
  26:Drivers/STM32F3xx_HAL_Driver/Src/stm32f3xx_hal_dma.c **** 
  27:Drivers/STM32F3xx_HAL_Driver/Src/stm32f3xx_hal_dma.c ****    (#) Use HAL_DMA_GetState() function to return the DMA state and HAL_DMA_GetError() in case of er
  28:Drivers/STM32F3xx_HAL_Driver/Src/stm32f3xx_hal_dma.c ****        detection.
  29:Drivers/STM32F3xx_HAL_Driver/Src/stm32f3xx_hal_dma.c ****                     
  30:Drivers/STM32F3xx_HAL_Driver/Src/stm32f3xx_hal_dma.c ****    (#) Use HAL_DMA_Abort() function to abort the current transfer
  31:Drivers/STM32F3xx_HAL_Driver/Src/stm32f3xx_hal_dma.c ****                    
ARM GAS  /tmp/ccAMRbe4.s 			page 2


  32:Drivers/STM32F3xx_HAL_Driver/Src/stm32f3xx_hal_dma.c ****      -@-   In Memory-to-Memory transfer mode, Circular mode is not allowed.
  33:Drivers/STM32F3xx_HAL_Driver/Src/stm32f3xx_hal_dma.c ****      *** Polling mode IO operation ***
  34:Drivers/STM32F3xx_HAL_Driver/Src/stm32f3xx_hal_dma.c ****      =================================   
  35:Drivers/STM32F3xx_HAL_Driver/Src/stm32f3xx_hal_dma.c ****     [..] 
  36:Drivers/STM32F3xx_HAL_Driver/Src/stm32f3xx_hal_dma.c ****       (+) Use HAL_DMA_Start() to start DMA transfer after the configuration of Source 
  37:Drivers/STM32F3xx_HAL_Driver/Src/stm32f3xx_hal_dma.c ****           address and destination address and the Length of data to be transferred
  38:Drivers/STM32F3xx_HAL_Driver/Src/stm32f3xx_hal_dma.c ****       (+) Use HAL_DMA_PollForTransfer() to poll for the end of current transfer, in this  
  39:Drivers/STM32F3xx_HAL_Driver/Src/stm32f3xx_hal_dma.c ****           case a fixed Timeout can be configured by User depending from his application.
  40:Drivers/STM32F3xx_HAL_Driver/Src/stm32f3xx_hal_dma.c **** 
  41:Drivers/STM32F3xx_HAL_Driver/Src/stm32f3xx_hal_dma.c ****      *** Interrupt mode IO operation ***    
  42:Drivers/STM32F3xx_HAL_Driver/Src/stm32f3xx_hal_dma.c ****      =================================== 
  43:Drivers/STM32F3xx_HAL_Driver/Src/stm32f3xx_hal_dma.c ****     [..]
  44:Drivers/STM32F3xx_HAL_Driver/Src/stm32f3xx_hal_dma.c ****       (+) Configure the DMA interrupt priority using HAL_NVIC_SetPriority()
  45:Drivers/STM32F3xx_HAL_Driver/Src/stm32f3xx_hal_dma.c ****       (+) Enable the DMA IRQ handler using HAL_NVIC_EnableIRQ() 
  46:Drivers/STM32F3xx_HAL_Driver/Src/stm32f3xx_hal_dma.c ****       (+) Use HAL_DMA_Start_IT() to start DMA transfer after the configuration of  
  47:Drivers/STM32F3xx_HAL_Driver/Src/stm32f3xx_hal_dma.c ****           Source address and destination address and the Length of data to be transferred. 
  48:Drivers/STM32F3xx_HAL_Driver/Src/stm32f3xx_hal_dma.c ****           In this case the DMA interrupt is configured 
  49:Drivers/STM32F3xx_HAL_Driver/Src/stm32f3xx_hal_dma.c ****       (+) Use HAL_DMA_Channel_IRQHandler() called under DMA_IRQHandler() Interrupt subroutine
  50:Drivers/STM32F3xx_HAL_Driver/Src/stm32f3xx_hal_dma.c ****       (+) At the end of data transfer HAL_DMA_IRQHandler() function is executed and user can 
  51:Drivers/STM32F3xx_HAL_Driver/Src/stm32f3xx_hal_dma.c ****           add his own function by customization of function pointer XferCpltCallback and 
  52:Drivers/STM32F3xx_HAL_Driver/Src/stm32f3xx_hal_dma.c ****           XferErrorCallback (i.e a member of DMA handle structure). 
  53:Drivers/STM32F3xx_HAL_Driver/Src/stm32f3xx_hal_dma.c **** 
  54:Drivers/STM32F3xx_HAL_Driver/Src/stm32f3xx_hal_dma.c ****      *** DMA HAL driver macros list ***
  55:Drivers/STM32F3xx_HAL_Driver/Src/stm32f3xx_hal_dma.c ****      ============================================= 
  56:Drivers/STM32F3xx_HAL_Driver/Src/stm32f3xx_hal_dma.c ****      [..]
  57:Drivers/STM32F3xx_HAL_Driver/Src/stm32f3xx_hal_dma.c ****        Below the list of most used macros in DMA HAL driver.
  58:Drivers/STM32F3xx_HAL_Driver/Src/stm32f3xx_hal_dma.c **** 
  59:Drivers/STM32F3xx_HAL_Driver/Src/stm32f3xx_hal_dma.c ****      [..] 
  60:Drivers/STM32F3xx_HAL_Driver/Src/stm32f3xx_hal_dma.c ****       (@) You can refer to the DMA HAL driver header file for more useful macros  
  61:Drivers/STM32F3xx_HAL_Driver/Src/stm32f3xx_hal_dma.c **** 
  62:Drivers/STM32F3xx_HAL_Driver/Src/stm32f3xx_hal_dma.c ****   @endverbatim
  63:Drivers/STM32F3xx_HAL_Driver/Src/stm32f3xx_hal_dma.c ****   ******************************************************************************
  64:Drivers/STM32F3xx_HAL_Driver/Src/stm32f3xx_hal_dma.c ****   * @attention
  65:Drivers/STM32F3xx_HAL_Driver/Src/stm32f3xx_hal_dma.c ****   *
  66:Drivers/STM32F3xx_HAL_Driver/Src/stm32f3xx_hal_dma.c ****   * <h2><center>&copy; Copyright (c) 2016 STMicroelectronics.
  67:Drivers/STM32F3xx_HAL_Driver/Src/stm32f3xx_hal_dma.c ****   * All rights reserved.</center></h2>
  68:Drivers/STM32F3xx_HAL_Driver/Src/stm32f3xx_hal_dma.c ****   *
  69:Drivers/STM32F3xx_HAL_Driver/Src/stm32f3xx_hal_dma.c ****   * This software component is licensed by ST under BSD 3-Clause license,
  70:Drivers/STM32F3xx_HAL_Driver/Src/stm32f3xx_hal_dma.c ****   * the "License"; You may not use this file except in compliance with the
  71:Drivers/STM32F3xx_HAL_Driver/Src/stm32f3xx_hal_dma.c ****   * License. You may obtain a copy of the License at:
  72:Drivers/STM32F3xx_HAL_Driver/Src/stm32f3xx_hal_dma.c ****   *                        opensource.org/licenses/BSD-3-Clause
  73:Drivers/STM32F3xx_HAL_Driver/Src/stm32f3xx_hal_dma.c ****   *
  74:Drivers/STM32F3xx_HAL_Driver/Src/stm32f3xx_hal_dma.c ****   ******************************************************************************
  75:Drivers/STM32F3xx_HAL_Driver/Src/stm32f3xx_hal_dma.c ****   */ 
  76:Drivers/STM32F3xx_HAL_Driver/Src/stm32f3xx_hal_dma.c **** 
  77:Drivers/STM32F3xx_HAL_Driver/Src/stm32f3xx_hal_dma.c **** /* Includes ------------------------------------------------------------------*/
  78:Drivers/STM32F3xx_HAL_Driver/Src/stm32f3xx_hal_dma.c **** #include "stm32f3xx_hal.h"
  79:Drivers/STM32F3xx_HAL_Driver/Src/stm32f3xx_hal_dma.c **** 
  80:Drivers/STM32F3xx_HAL_Driver/Src/stm32f3xx_hal_dma.c **** /** @addtogroup STM32F3xx_HAL_Driver
  81:Drivers/STM32F3xx_HAL_Driver/Src/stm32f3xx_hal_dma.c ****   * @{
  82:Drivers/STM32F3xx_HAL_Driver/Src/stm32f3xx_hal_dma.c ****   */
  83:Drivers/STM32F3xx_HAL_Driver/Src/stm32f3xx_hal_dma.c **** 
  84:Drivers/STM32F3xx_HAL_Driver/Src/stm32f3xx_hal_dma.c **** /** @defgroup DMA DMA
  85:Drivers/STM32F3xx_HAL_Driver/Src/stm32f3xx_hal_dma.c ****   * @brief DMA HAL module driver
  86:Drivers/STM32F3xx_HAL_Driver/Src/stm32f3xx_hal_dma.c ****   * @{
  87:Drivers/STM32F3xx_HAL_Driver/Src/stm32f3xx_hal_dma.c ****   */
  88:Drivers/STM32F3xx_HAL_Driver/Src/stm32f3xx_hal_dma.c **** 
ARM GAS  /tmp/ccAMRbe4.s 			page 3


  89:Drivers/STM32F3xx_HAL_Driver/Src/stm32f3xx_hal_dma.c **** #ifdef HAL_DMA_MODULE_ENABLED
  90:Drivers/STM32F3xx_HAL_Driver/Src/stm32f3xx_hal_dma.c **** 
  91:Drivers/STM32F3xx_HAL_Driver/Src/stm32f3xx_hal_dma.c **** /* Private typedef -----------------------------------------------------------*/
  92:Drivers/STM32F3xx_HAL_Driver/Src/stm32f3xx_hal_dma.c **** /* Private define ------------------------------------------------------------*/
  93:Drivers/STM32F3xx_HAL_Driver/Src/stm32f3xx_hal_dma.c **** /* Private macro -------------------------------------------------------------*/
  94:Drivers/STM32F3xx_HAL_Driver/Src/stm32f3xx_hal_dma.c **** /* Private variables ---------------------------------------------------------*/
  95:Drivers/STM32F3xx_HAL_Driver/Src/stm32f3xx_hal_dma.c **** /* Private function prototypes -----------------------------------------------*/
  96:Drivers/STM32F3xx_HAL_Driver/Src/stm32f3xx_hal_dma.c **** /** @defgroup DMA_Private_Functions DMA Private Functions
  97:Drivers/STM32F3xx_HAL_Driver/Src/stm32f3xx_hal_dma.c ****   * @{
  98:Drivers/STM32F3xx_HAL_Driver/Src/stm32f3xx_hal_dma.c ****   */
  99:Drivers/STM32F3xx_HAL_Driver/Src/stm32f3xx_hal_dma.c **** static void DMA_SetConfig(DMA_HandleTypeDef *hdma, uint32_t SrcAddress, uint32_t DstAddress, uint32
 100:Drivers/STM32F3xx_HAL_Driver/Src/stm32f3xx_hal_dma.c **** static void DMA_CalcBaseAndBitshift(DMA_HandleTypeDef *hdma);
 101:Drivers/STM32F3xx_HAL_Driver/Src/stm32f3xx_hal_dma.c **** /**
 102:Drivers/STM32F3xx_HAL_Driver/Src/stm32f3xx_hal_dma.c ****   * @}
 103:Drivers/STM32F3xx_HAL_Driver/Src/stm32f3xx_hal_dma.c ****   */
 104:Drivers/STM32F3xx_HAL_Driver/Src/stm32f3xx_hal_dma.c **** 
 105:Drivers/STM32F3xx_HAL_Driver/Src/stm32f3xx_hal_dma.c **** /* Exported functions ---------------------------------------------------------*/
 106:Drivers/STM32F3xx_HAL_Driver/Src/stm32f3xx_hal_dma.c **** 
 107:Drivers/STM32F3xx_HAL_Driver/Src/stm32f3xx_hal_dma.c **** /** @defgroup DMA_Exported_Functions DMA Exported Functions
 108:Drivers/STM32F3xx_HAL_Driver/Src/stm32f3xx_hal_dma.c ****   * @{
 109:Drivers/STM32F3xx_HAL_Driver/Src/stm32f3xx_hal_dma.c ****   */
 110:Drivers/STM32F3xx_HAL_Driver/Src/stm32f3xx_hal_dma.c **** 
 111:Drivers/STM32F3xx_HAL_Driver/Src/stm32f3xx_hal_dma.c **** /** @defgroup DMA_Exported_Functions_Group1 Initialization and de-initialization functions
 112:Drivers/STM32F3xx_HAL_Driver/Src/stm32f3xx_hal_dma.c ****  *  @brief   Initialization and de-initialization functions 
 113:Drivers/STM32F3xx_HAL_Driver/Src/stm32f3xx_hal_dma.c ****  *
 114:Drivers/STM32F3xx_HAL_Driver/Src/stm32f3xx_hal_dma.c **** @verbatim   
 115:Drivers/STM32F3xx_HAL_Driver/Src/stm32f3xx_hal_dma.c ****  ===============================================================================
 116:Drivers/STM32F3xx_HAL_Driver/Src/stm32f3xx_hal_dma.c ****              ##### Initialization and de-initialization functions  #####
 117:Drivers/STM32F3xx_HAL_Driver/Src/stm32f3xx_hal_dma.c ****  ===============================================================================  
 118:Drivers/STM32F3xx_HAL_Driver/Src/stm32f3xx_hal_dma.c ****     [..]
 119:Drivers/STM32F3xx_HAL_Driver/Src/stm32f3xx_hal_dma.c ****     This section provides functions allowing to initialize the DMA Channel source
 120:Drivers/STM32F3xx_HAL_Driver/Src/stm32f3xx_hal_dma.c ****     and destination addresses, incrementation and data sizes, transfer direction, 
 121:Drivers/STM32F3xx_HAL_Driver/Src/stm32f3xx_hal_dma.c ****     circular/normal mode selection, memory-to-memory mode selection and Channel priority value.
 122:Drivers/STM32F3xx_HAL_Driver/Src/stm32f3xx_hal_dma.c ****     [..]
 123:Drivers/STM32F3xx_HAL_Driver/Src/stm32f3xx_hal_dma.c ****     The HAL_DMA_Init() function follows the DMA configuration procedures as described in
 124:Drivers/STM32F3xx_HAL_Driver/Src/stm32f3xx_hal_dma.c ****     reference manual.  
 125:Drivers/STM32F3xx_HAL_Driver/Src/stm32f3xx_hal_dma.c **** 
 126:Drivers/STM32F3xx_HAL_Driver/Src/stm32f3xx_hal_dma.c **** @endverbatim
 127:Drivers/STM32F3xx_HAL_Driver/Src/stm32f3xx_hal_dma.c ****   * @{
 128:Drivers/STM32F3xx_HAL_Driver/Src/stm32f3xx_hal_dma.c ****   */
 129:Drivers/STM32F3xx_HAL_Driver/Src/stm32f3xx_hal_dma.c ****   
 130:Drivers/STM32F3xx_HAL_Driver/Src/stm32f3xx_hal_dma.c **** /**
 131:Drivers/STM32F3xx_HAL_Driver/Src/stm32f3xx_hal_dma.c ****   * @brief  Initialize the DMA according to the specified
 132:Drivers/STM32F3xx_HAL_Driver/Src/stm32f3xx_hal_dma.c ****   *         parameters in the DMA_InitTypeDef and initialize the associated handle.
 133:Drivers/STM32F3xx_HAL_Driver/Src/stm32f3xx_hal_dma.c ****   * @param  hdma Pointer to a DMA_HandleTypeDef structure that contains
 134:Drivers/STM32F3xx_HAL_Driver/Src/stm32f3xx_hal_dma.c ****   *               the configuration information for the specified DMA Channel.  
 135:Drivers/STM32F3xx_HAL_Driver/Src/stm32f3xx_hal_dma.c ****   * @retval HAL status
 136:Drivers/STM32F3xx_HAL_Driver/Src/stm32f3xx_hal_dma.c ****   */
 137:Drivers/STM32F3xx_HAL_Driver/Src/stm32f3xx_hal_dma.c **** HAL_StatusTypeDef HAL_DMA_Init(DMA_HandleTypeDef *hdma)
 138:Drivers/STM32F3xx_HAL_Driver/Src/stm32f3xx_hal_dma.c **** { 
  28              		.loc 1 138 0
  29              		.cfi_startproc
  30              		@ args = 0, pretend = 0, frame = 16
  31              		@ frame_needed = 1, uses_anonymous_args = 0
  32 0000 80B5     		push	{r7, lr}
  33              	.LCFI0:
  34              		.cfi_def_cfa_offset 8
ARM GAS  /tmp/ccAMRbe4.s 			page 4


  35              		.cfi_offset 7, -8
  36              		.cfi_offset 14, -4
  37 0002 84B0     		sub	sp, sp, #16
  38              	.LCFI1:
  39              		.cfi_def_cfa_offset 24
  40 0004 00AF     		add	r7, sp, #0
  41              	.LCFI2:
  42              		.cfi_def_cfa_register 7
  43 0006 7860     		str	r0, [r7, #4]
 139:Drivers/STM32F3xx_HAL_Driver/Src/stm32f3xx_hal_dma.c ****   uint32_t tmp = 0U;
  44              		.loc 1 139 0
  45 0008 0023     		movs	r3, #0
  46 000a FB60     		str	r3, [r7, #12]
 140:Drivers/STM32F3xx_HAL_Driver/Src/stm32f3xx_hal_dma.c ****   
 141:Drivers/STM32F3xx_HAL_Driver/Src/stm32f3xx_hal_dma.c ****   /* Check the DMA handle allocation */
 142:Drivers/STM32F3xx_HAL_Driver/Src/stm32f3xx_hal_dma.c ****   if(NULL == hdma)
  47              		.loc 1 142 0
  48 000c 7B68     		ldr	r3, [r7, #4]
  49 000e 002B     		cmp	r3, #0
  50 0010 01D1     		bne	.L2
 143:Drivers/STM32F3xx_HAL_Driver/Src/stm32f3xx_hal_dma.c ****   {
 144:Drivers/STM32F3xx_HAL_Driver/Src/stm32f3xx_hal_dma.c ****     return HAL_ERROR;
  51              		.loc 1 144 0
  52 0012 0123     		movs	r3, #1
  53 0014 37E0     		b	.L3
  54              	.L2:
 145:Drivers/STM32F3xx_HAL_Driver/Src/stm32f3xx_hal_dma.c ****   }
 146:Drivers/STM32F3xx_HAL_Driver/Src/stm32f3xx_hal_dma.c ****   
 147:Drivers/STM32F3xx_HAL_Driver/Src/stm32f3xx_hal_dma.c ****   /* Check the parameters */
 148:Drivers/STM32F3xx_HAL_Driver/Src/stm32f3xx_hal_dma.c ****   assert_param(IS_DMA_ALL_INSTANCE(hdma->Instance));
 149:Drivers/STM32F3xx_HAL_Driver/Src/stm32f3xx_hal_dma.c ****   assert_param(IS_DMA_DIRECTION(hdma->Init.Direction));
 150:Drivers/STM32F3xx_HAL_Driver/Src/stm32f3xx_hal_dma.c ****   assert_param(IS_DMA_PERIPHERAL_INC_STATE(hdma->Init.PeriphInc));
 151:Drivers/STM32F3xx_HAL_Driver/Src/stm32f3xx_hal_dma.c ****   assert_param(IS_DMA_MEMORY_INC_STATE(hdma->Init.MemInc));
 152:Drivers/STM32F3xx_HAL_Driver/Src/stm32f3xx_hal_dma.c ****   assert_param(IS_DMA_PERIPHERAL_DATA_SIZE(hdma->Init.PeriphDataAlignment));
 153:Drivers/STM32F3xx_HAL_Driver/Src/stm32f3xx_hal_dma.c ****   assert_param(IS_DMA_MEMORY_DATA_SIZE(hdma->Init.MemDataAlignment));
 154:Drivers/STM32F3xx_HAL_Driver/Src/stm32f3xx_hal_dma.c ****   assert_param(IS_DMA_MODE(hdma->Init.Mode));
 155:Drivers/STM32F3xx_HAL_Driver/Src/stm32f3xx_hal_dma.c ****   assert_param(IS_DMA_PRIORITY(hdma->Init.Priority));
 156:Drivers/STM32F3xx_HAL_Driver/Src/stm32f3xx_hal_dma.c ****   
 157:Drivers/STM32F3xx_HAL_Driver/Src/stm32f3xx_hal_dma.c ****   /* Change DMA peripheral state */
 158:Drivers/STM32F3xx_HAL_Driver/Src/stm32f3xx_hal_dma.c ****   hdma->State = HAL_DMA_STATE_BUSY;
  55              		.loc 1 158 0
  56 0016 7B68     		ldr	r3, [r7, #4]
  57 0018 0222     		movs	r2, #2
  58 001a 83F82120 		strb	r2, [r3, #33]
 159:Drivers/STM32F3xx_HAL_Driver/Src/stm32f3xx_hal_dma.c **** 
 160:Drivers/STM32F3xx_HAL_Driver/Src/stm32f3xx_hal_dma.c ****   /* Get the CR register value */
 161:Drivers/STM32F3xx_HAL_Driver/Src/stm32f3xx_hal_dma.c ****   tmp = hdma->Instance->CCR;
  59              		.loc 1 161 0
  60 001e 7B68     		ldr	r3, [r7, #4]
  61 0020 1B68     		ldr	r3, [r3]
  62 0022 1B68     		ldr	r3, [r3]
  63 0024 FB60     		str	r3, [r7, #12]
 162:Drivers/STM32F3xx_HAL_Driver/Src/stm32f3xx_hal_dma.c ****   
 163:Drivers/STM32F3xx_HAL_Driver/Src/stm32f3xx_hal_dma.c ****   /* Clear PL, MSIZE, PSIZE, MINC, PINC, CIRC, DIR bits */
 164:Drivers/STM32F3xx_HAL_Driver/Src/stm32f3xx_hal_dma.c ****   tmp &= ((uint32_t)~(DMA_CCR_PL    | DMA_CCR_MSIZE  | DMA_CCR_PSIZE  | \
  64              		.loc 1 164 0
  65 0026 FB68     		ldr	r3, [r7, #12]
ARM GAS  /tmp/ccAMRbe4.s 			page 5


  66 0028 23F47F53 		bic	r3, r3, #16320
  67 002c 23F03003 		bic	r3, r3, #48
  68 0030 FB60     		str	r3, [r7, #12]
 165:Drivers/STM32F3xx_HAL_Driver/Src/stm32f3xx_hal_dma.c ****                       DMA_CCR_MINC  | DMA_CCR_PINC   | DMA_CCR_CIRC   | \
 166:Drivers/STM32F3xx_HAL_Driver/Src/stm32f3xx_hal_dma.c ****                       DMA_CCR_DIR));
 167:Drivers/STM32F3xx_HAL_Driver/Src/stm32f3xx_hal_dma.c ****   
 168:Drivers/STM32F3xx_HAL_Driver/Src/stm32f3xx_hal_dma.c ****   /* Prepare the DMA Channel configuration */
 169:Drivers/STM32F3xx_HAL_Driver/Src/stm32f3xx_hal_dma.c ****   tmp |=  hdma->Init.Direction        |
  69              		.loc 1 169 0
  70 0032 7B68     		ldr	r3, [r7, #4]
  71 0034 5A68     		ldr	r2, [r3, #4]
 170:Drivers/STM32F3xx_HAL_Driver/Src/stm32f3xx_hal_dma.c ****           hdma->Init.PeriphInc           | hdma->Init.MemInc           |
  72              		.loc 1 170 0
  73 0036 7B68     		ldr	r3, [r7, #4]
  74 0038 9B68     		ldr	r3, [r3, #8]
 169:Drivers/STM32F3xx_HAL_Driver/Src/stm32f3xx_hal_dma.c ****           hdma->Init.PeriphInc           | hdma->Init.MemInc           |
  75              		.loc 1 169 0
  76 003a 1A43     		orrs	r2, r2, r3
  77              		.loc 1 170 0
  78 003c 7B68     		ldr	r3, [r7, #4]
  79 003e DB68     		ldr	r3, [r3, #12]
  80 0040 1A43     		orrs	r2, r2, r3
 171:Drivers/STM32F3xx_HAL_Driver/Src/stm32f3xx_hal_dma.c ****           hdma->Init.PeriphDataAlignment | hdma->Init.MemDataAlignment |
  81              		.loc 1 171 0
  82 0042 7B68     		ldr	r3, [r7, #4]
  83 0044 1B69     		ldr	r3, [r3, #16]
 170:Drivers/STM32F3xx_HAL_Driver/Src/stm32f3xx_hal_dma.c ****           hdma->Init.PeriphInc           | hdma->Init.MemInc           |
  84              		.loc 1 170 0
  85 0046 1A43     		orrs	r2, r2, r3
  86              		.loc 1 171 0
  87 0048 7B68     		ldr	r3, [r7, #4]
  88 004a 5B69     		ldr	r3, [r3, #20]
  89 004c 1A43     		orrs	r2, r2, r3
 172:Drivers/STM32F3xx_HAL_Driver/Src/stm32f3xx_hal_dma.c ****           hdma->Init.Mode                | hdma->Init.Priority;
  90              		.loc 1 172 0
  91 004e 7B68     		ldr	r3, [r7, #4]
  92 0050 9B69     		ldr	r3, [r3, #24]
 171:Drivers/STM32F3xx_HAL_Driver/Src/stm32f3xx_hal_dma.c ****           hdma->Init.PeriphDataAlignment | hdma->Init.MemDataAlignment |
  93              		.loc 1 171 0
  94 0052 1A43     		orrs	r2, r2, r3
  95              		.loc 1 172 0
  96 0054 7B68     		ldr	r3, [r7, #4]
  97 0056 DB69     		ldr	r3, [r3, #28]
  98 0058 1343     		orrs	r3, r3, r2
 169:Drivers/STM32F3xx_HAL_Driver/Src/stm32f3xx_hal_dma.c ****           hdma->Init.PeriphInc           | hdma->Init.MemInc           |
  99              		.loc 1 169 0
 100 005a FA68     		ldr	r2, [r7, #12]
 101 005c 1343     		orrs	r3, r3, r2
 102 005e FB60     		str	r3, [r7, #12]
 173:Drivers/STM32F3xx_HAL_Driver/Src/stm32f3xx_hal_dma.c **** 
 174:Drivers/STM32F3xx_HAL_Driver/Src/stm32f3xx_hal_dma.c ****   /* Write to DMA Channel CR register */
 175:Drivers/STM32F3xx_HAL_Driver/Src/stm32f3xx_hal_dma.c ****   hdma->Instance->CCR = tmp;  
 103              		.loc 1 175 0
 104 0060 7B68     		ldr	r3, [r7, #4]
 105 0062 1B68     		ldr	r3, [r3]
 106 0064 FA68     		ldr	r2, [r7, #12]
 107 0066 1A60     		str	r2, [r3]
ARM GAS  /tmp/ccAMRbe4.s 			page 6


 176:Drivers/STM32F3xx_HAL_Driver/Src/stm32f3xx_hal_dma.c ****   
 177:Drivers/STM32F3xx_HAL_Driver/Src/stm32f3xx_hal_dma.c ****   /* Initialize DmaBaseAddress and ChannelIndex parameters used 
 178:Drivers/STM32F3xx_HAL_Driver/Src/stm32f3xx_hal_dma.c ****      by HAL_DMA_IRQHandler() and HAL_DMA_PollForTransfer() */
 179:Drivers/STM32F3xx_HAL_Driver/Src/stm32f3xx_hal_dma.c ****   DMA_CalcBaseAndBitshift(hdma);
 108              		.loc 1 179 0
 109 0068 7868     		ldr	r0, [r7, #4]
 110 006a FFF7FEFF 		bl	DMA_CalcBaseAndBitshift
 180:Drivers/STM32F3xx_HAL_Driver/Src/stm32f3xx_hal_dma.c ****   
 181:Drivers/STM32F3xx_HAL_Driver/Src/stm32f3xx_hal_dma.c ****   /* Initialise the error code */
 182:Drivers/STM32F3xx_HAL_Driver/Src/stm32f3xx_hal_dma.c ****   hdma->ErrorCode = HAL_DMA_ERROR_NONE;
 111              		.loc 1 182 0
 112 006e 7B68     		ldr	r3, [r7, #4]
 113 0070 0022     		movs	r2, #0
 114 0072 9A63     		str	r2, [r3, #56]
 183:Drivers/STM32F3xx_HAL_Driver/Src/stm32f3xx_hal_dma.c **** 
 184:Drivers/STM32F3xx_HAL_Driver/Src/stm32f3xx_hal_dma.c ****   /* Initialize the DMA state*/
 185:Drivers/STM32F3xx_HAL_Driver/Src/stm32f3xx_hal_dma.c ****   hdma->State = HAL_DMA_STATE_READY;
 115              		.loc 1 185 0
 116 0074 7B68     		ldr	r3, [r7, #4]
 117 0076 0122     		movs	r2, #1
 118 0078 83F82120 		strb	r2, [r3, #33]
 186:Drivers/STM32F3xx_HAL_Driver/Src/stm32f3xx_hal_dma.c ****   
 187:Drivers/STM32F3xx_HAL_Driver/Src/stm32f3xx_hal_dma.c ****   /* Allocate lock resource and initialize it */
 188:Drivers/STM32F3xx_HAL_Driver/Src/stm32f3xx_hal_dma.c ****   hdma->Lock = HAL_UNLOCKED;
 119              		.loc 1 188 0
 120 007c 7B68     		ldr	r3, [r7, #4]
 121 007e 0022     		movs	r2, #0
 122 0080 83F82020 		strb	r2, [r3, #32]
 189:Drivers/STM32F3xx_HAL_Driver/Src/stm32f3xx_hal_dma.c ****   
 190:Drivers/STM32F3xx_HAL_Driver/Src/stm32f3xx_hal_dma.c ****   return HAL_OK;
 123              		.loc 1 190 0
 124 0084 0023     		movs	r3, #0
 125              	.L3:
 191:Drivers/STM32F3xx_HAL_Driver/Src/stm32f3xx_hal_dma.c **** }  
 126              		.loc 1 191 0
 127 0086 1846     		mov	r0, r3
 128 0088 1037     		adds	r7, r7, #16
 129              	.LCFI3:
 130              		.cfi_def_cfa_offset 8
 131 008a BD46     		mov	sp, r7
 132              	.LCFI4:
 133              		.cfi_def_cfa_register 13
 134              		@ sp needed
 135 008c 80BD     		pop	{r7, pc}
 136              		.cfi_endproc
 137              	.LFE123:
 139              		.section	.text.HAL_DMA_DeInit,"ax",%progbits
 140              		.align	1
 141              		.global	HAL_DMA_DeInit
 142              		.syntax unified
 143              		.thumb
 144              		.thumb_func
 145              		.fpu fpv4-sp-d16
 147              	HAL_DMA_DeInit:
 148              	.LFB124:
 192:Drivers/STM32F3xx_HAL_Driver/Src/stm32f3xx_hal_dma.c ****   
 193:Drivers/STM32F3xx_HAL_Driver/Src/stm32f3xx_hal_dma.c **** /**
ARM GAS  /tmp/ccAMRbe4.s 			page 7


 194:Drivers/STM32F3xx_HAL_Driver/Src/stm32f3xx_hal_dma.c ****   * @brief  DeInitialize the DMA peripheral 
 195:Drivers/STM32F3xx_HAL_Driver/Src/stm32f3xx_hal_dma.c ****   * @param  hdma pointer to a DMA_HandleTypeDef structure that contains
 196:Drivers/STM32F3xx_HAL_Driver/Src/stm32f3xx_hal_dma.c ****   *               the configuration information for the specified DMA Channel.  
 197:Drivers/STM32F3xx_HAL_Driver/Src/stm32f3xx_hal_dma.c ****   * @retval HAL status
 198:Drivers/STM32F3xx_HAL_Driver/Src/stm32f3xx_hal_dma.c ****   */
 199:Drivers/STM32F3xx_HAL_Driver/Src/stm32f3xx_hal_dma.c **** HAL_StatusTypeDef HAL_DMA_DeInit(DMA_HandleTypeDef *hdma)
 200:Drivers/STM32F3xx_HAL_Driver/Src/stm32f3xx_hal_dma.c **** {
 149              		.loc 1 200 0
 150              		.cfi_startproc
 151              		@ args = 0, pretend = 0, frame = 8
 152              		@ frame_needed = 1, uses_anonymous_args = 0
 153 0000 80B5     		push	{r7, lr}
 154              	.LCFI5:
 155              		.cfi_def_cfa_offset 8
 156              		.cfi_offset 7, -8
 157              		.cfi_offset 14, -4
 158 0002 82B0     		sub	sp, sp, #8
 159              	.LCFI6:
 160              		.cfi_def_cfa_offset 16
 161 0004 00AF     		add	r7, sp, #0
 162              	.LCFI7:
 163              		.cfi_def_cfa_register 7
 164 0006 7860     		str	r0, [r7, #4]
 201:Drivers/STM32F3xx_HAL_Driver/Src/stm32f3xx_hal_dma.c ****   /* Check the DMA handle allocation */
 202:Drivers/STM32F3xx_HAL_Driver/Src/stm32f3xx_hal_dma.c ****   if(NULL == hdma)
 165              		.loc 1 202 0
 166 0008 7B68     		ldr	r3, [r7, #4]
 167 000a 002B     		cmp	r3, #0
 168 000c 01D1     		bne	.L5
 203:Drivers/STM32F3xx_HAL_Driver/Src/stm32f3xx_hal_dma.c ****   {
 204:Drivers/STM32F3xx_HAL_Driver/Src/stm32f3xx_hal_dma.c ****     return HAL_ERROR;
 169              		.loc 1 204 0
 170 000e 0123     		movs	r3, #1
 171 0010 3AE0     		b	.L6
 172              	.L5:
 205:Drivers/STM32F3xx_HAL_Driver/Src/stm32f3xx_hal_dma.c ****   }
 206:Drivers/STM32F3xx_HAL_Driver/Src/stm32f3xx_hal_dma.c ****   
 207:Drivers/STM32F3xx_HAL_Driver/Src/stm32f3xx_hal_dma.c ****   /* Check the parameters */
 208:Drivers/STM32F3xx_HAL_Driver/Src/stm32f3xx_hal_dma.c ****   assert_param(IS_DMA_ALL_INSTANCE(hdma->Instance));
 209:Drivers/STM32F3xx_HAL_Driver/Src/stm32f3xx_hal_dma.c **** 
 210:Drivers/STM32F3xx_HAL_Driver/Src/stm32f3xx_hal_dma.c ****   /* Disable the selected DMA Channelx */
 211:Drivers/STM32F3xx_HAL_Driver/Src/stm32f3xx_hal_dma.c ****   hdma->Instance->CCR &= ~DMA_CCR_EN;
 173              		.loc 1 211 0
 174 0012 7B68     		ldr	r3, [r7, #4]
 175 0014 1B68     		ldr	r3, [r3]
 176 0016 1A68     		ldr	r2, [r3]
 177 0018 7B68     		ldr	r3, [r7, #4]
 178 001a 1B68     		ldr	r3, [r3]
 179 001c 22F00102 		bic	r2, r2, #1
 180 0020 1A60     		str	r2, [r3]
 212:Drivers/STM32F3xx_HAL_Driver/Src/stm32f3xx_hal_dma.c **** 
 213:Drivers/STM32F3xx_HAL_Driver/Src/stm32f3xx_hal_dma.c ****   /* Reset DMA Channel control register */
 214:Drivers/STM32F3xx_HAL_Driver/Src/stm32f3xx_hal_dma.c ****   hdma->Instance->CCR  = 0U;
 181              		.loc 1 214 0
 182 0022 7B68     		ldr	r3, [r7, #4]
 183 0024 1B68     		ldr	r3, [r3]
 184 0026 0022     		movs	r2, #0
ARM GAS  /tmp/ccAMRbe4.s 			page 8


 185 0028 1A60     		str	r2, [r3]
 215:Drivers/STM32F3xx_HAL_Driver/Src/stm32f3xx_hal_dma.c **** 
 216:Drivers/STM32F3xx_HAL_Driver/Src/stm32f3xx_hal_dma.c ****   /* Reset DMA Channel Number of Data to Transfer register */
 217:Drivers/STM32F3xx_HAL_Driver/Src/stm32f3xx_hal_dma.c ****   hdma->Instance->CNDTR = 0U;
 186              		.loc 1 217 0
 187 002a 7B68     		ldr	r3, [r7, #4]
 188 002c 1B68     		ldr	r3, [r3]
 189 002e 0022     		movs	r2, #0
 190 0030 5A60     		str	r2, [r3, #4]
 218:Drivers/STM32F3xx_HAL_Driver/Src/stm32f3xx_hal_dma.c **** 
 219:Drivers/STM32F3xx_HAL_Driver/Src/stm32f3xx_hal_dma.c ****   /* Reset DMA Channel peripheral address register */
 220:Drivers/STM32F3xx_HAL_Driver/Src/stm32f3xx_hal_dma.c ****   hdma->Instance->CPAR  = 0U;
 191              		.loc 1 220 0
 192 0032 7B68     		ldr	r3, [r7, #4]
 193 0034 1B68     		ldr	r3, [r3]
 194 0036 0022     		movs	r2, #0
 195 0038 9A60     		str	r2, [r3, #8]
 221:Drivers/STM32F3xx_HAL_Driver/Src/stm32f3xx_hal_dma.c ****   
 222:Drivers/STM32F3xx_HAL_Driver/Src/stm32f3xx_hal_dma.c ****   /* Reset DMA Channel memory address register */
 223:Drivers/STM32F3xx_HAL_Driver/Src/stm32f3xx_hal_dma.c ****   hdma->Instance->CMAR = 0U;
 196              		.loc 1 223 0
 197 003a 7B68     		ldr	r3, [r7, #4]
 198 003c 1B68     		ldr	r3, [r3]
 199 003e 0022     		movs	r2, #0
 200 0040 DA60     		str	r2, [r3, #12]
 224:Drivers/STM32F3xx_HAL_Driver/Src/stm32f3xx_hal_dma.c **** 
 225:Drivers/STM32F3xx_HAL_Driver/Src/stm32f3xx_hal_dma.c ****   /* Get DMA Base Address */  
 226:Drivers/STM32F3xx_HAL_Driver/Src/stm32f3xx_hal_dma.c ****   DMA_CalcBaseAndBitshift(hdma);
 201              		.loc 1 226 0
 202 0042 7868     		ldr	r0, [r7, #4]
 203 0044 FFF7FEFF 		bl	DMA_CalcBaseAndBitshift
 227:Drivers/STM32F3xx_HAL_Driver/Src/stm32f3xx_hal_dma.c **** 
 228:Drivers/STM32F3xx_HAL_Driver/Src/stm32f3xx_hal_dma.c ****   /* Clear all flags */
 229:Drivers/STM32F3xx_HAL_Driver/Src/stm32f3xx_hal_dma.c ****   hdma->DmaBaseAddress->IFCR = DMA_FLAG_GL1 << hdma->ChannelIndex;
 204              		.loc 1 229 0
 205 0048 7B68     		ldr	r3, [r7, #4]
 206 004a 1A6C     		ldr	r2, [r3, #64]
 207 004c 7B68     		ldr	r3, [r7, #4]
 208 004e DB6B     		ldr	r3, [r3, #60]
 209 0050 0121     		movs	r1, #1
 210 0052 01FA02F2 		lsl	r2, r1, r2
 211 0056 5A60     		str	r2, [r3, #4]
 230:Drivers/STM32F3xx_HAL_Driver/Src/stm32f3xx_hal_dma.c **** 
 231:Drivers/STM32F3xx_HAL_Driver/Src/stm32f3xx_hal_dma.c ****   /* Clean callbacks */
 232:Drivers/STM32F3xx_HAL_Driver/Src/stm32f3xx_hal_dma.c ****   hdma->XferCpltCallback = NULL;
 212              		.loc 1 232 0
 213 0058 7B68     		ldr	r3, [r7, #4]
 214 005a 0022     		movs	r2, #0
 215 005c 9A62     		str	r2, [r3, #40]
 233:Drivers/STM32F3xx_HAL_Driver/Src/stm32f3xx_hal_dma.c ****   hdma->XferHalfCpltCallback = NULL;
 216              		.loc 1 233 0
 217 005e 7B68     		ldr	r3, [r7, #4]
 218 0060 0022     		movs	r2, #0
 219 0062 DA62     		str	r2, [r3, #44]
 234:Drivers/STM32F3xx_HAL_Driver/Src/stm32f3xx_hal_dma.c ****   hdma->XferErrorCallback = NULL;
 220              		.loc 1 234 0
 221 0064 7B68     		ldr	r3, [r7, #4]
ARM GAS  /tmp/ccAMRbe4.s 			page 9


 222 0066 0022     		movs	r2, #0
 223 0068 1A63     		str	r2, [r3, #48]
 235:Drivers/STM32F3xx_HAL_Driver/Src/stm32f3xx_hal_dma.c ****   hdma->XferAbortCallback = NULL;
 224              		.loc 1 235 0
 225 006a 7B68     		ldr	r3, [r7, #4]
 226 006c 0022     		movs	r2, #0
 227 006e 5A63     		str	r2, [r3, #52]
 236:Drivers/STM32F3xx_HAL_Driver/Src/stm32f3xx_hal_dma.c **** 
 237:Drivers/STM32F3xx_HAL_Driver/Src/stm32f3xx_hal_dma.c ****   /* Reset the error code */
 238:Drivers/STM32F3xx_HAL_Driver/Src/stm32f3xx_hal_dma.c ****   hdma->ErrorCode = HAL_DMA_ERROR_NONE;
 228              		.loc 1 238 0
 229 0070 7B68     		ldr	r3, [r7, #4]
 230 0072 0022     		movs	r2, #0
 231 0074 9A63     		str	r2, [r3, #56]
 239:Drivers/STM32F3xx_HAL_Driver/Src/stm32f3xx_hal_dma.c **** 
 240:Drivers/STM32F3xx_HAL_Driver/Src/stm32f3xx_hal_dma.c ****   /* Reset the DMA state */
 241:Drivers/STM32F3xx_HAL_Driver/Src/stm32f3xx_hal_dma.c ****   hdma->State = HAL_DMA_STATE_RESET;
 232              		.loc 1 241 0
 233 0076 7B68     		ldr	r3, [r7, #4]
 234 0078 0022     		movs	r2, #0
 235 007a 83F82120 		strb	r2, [r3, #33]
 242:Drivers/STM32F3xx_HAL_Driver/Src/stm32f3xx_hal_dma.c **** 
 243:Drivers/STM32F3xx_HAL_Driver/Src/stm32f3xx_hal_dma.c ****   /* Release Lock */
 244:Drivers/STM32F3xx_HAL_Driver/Src/stm32f3xx_hal_dma.c ****   __HAL_UNLOCK(hdma);
 236              		.loc 1 244 0
 237 007e 7B68     		ldr	r3, [r7, #4]
 238 0080 0022     		movs	r2, #0
 239 0082 83F82020 		strb	r2, [r3, #32]
 245:Drivers/STM32F3xx_HAL_Driver/Src/stm32f3xx_hal_dma.c **** 
 246:Drivers/STM32F3xx_HAL_Driver/Src/stm32f3xx_hal_dma.c ****   return HAL_OK;
 240              		.loc 1 246 0
 241 0086 0023     		movs	r3, #0
 242              	.L6:
 247:Drivers/STM32F3xx_HAL_Driver/Src/stm32f3xx_hal_dma.c **** }
 243              		.loc 1 247 0
 244 0088 1846     		mov	r0, r3
 245 008a 0837     		adds	r7, r7, #8
 246              	.LCFI8:
 247              		.cfi_def_cfa_offset 8
 248 008c BD46     		mov	sp, r7
 249              	.LCFI9:
 250              		.cfi_def_cfa_register 13
 251              		@ sp needed
 252 008e 80BD     		pop	{r7, pc}
 253              		.cfi_endproc
 254              	.LFE124:
 256              		.section	.text.HAL_DMA_Start,"ax",%progbits
 257              		.align	1
 258              		.global	HAL_DMA_Start
 259              		.syntax unified
 260              		.thumb
 261              		.thumb_func
 262              		.fpu fpv4-sp-d16
 264              	HAL_DMA_Start:
 265              	.LFB125:
 248:Drivers/STM32F3xx_HAL_Driver/Src/stm32f3xx_hal_dma.c **** 
 249:Drivers/STM32F3xx_HAL_Driver/Src/stm32f3xx_hal_dma.c **** /**
ARM GAS  /tmp/ccAMRbe4.s 			page 10


 250:Drivers/STM32F3xx_HAL_Driver/Src/stm32f3xx_hal_dma.c ****   * @}
 251:Drivers/STM32F3xx_HAL_Driver/Src/stm32f3xx_hal_dma.c ****   */
 252:Drivers/STM32F3xx_HAL_Driver/Src/stm32f3xx_hal_dma.c **** 
 253:Drivers/STM32F3xx_HAL_Driver/Src/stm32f3xx_hal_dma.c **** /** @defgroup DMA_Exported_Functions_Group2 Input and Output operation functions 
 254:Drivers/STM32F3xx_HAL_Driver/Src/stm32f3xx_hal_dma.c ****  *  @brief   I/O operation functions  
 255:Drivers/STM32F3xx_HAL_Driver/Src/stm32f3xx_hal_dma.c ****  *
 256:Drivers/STM32F3xx_HAL_Driver/Src/stm32f3xx_hal_dma.c **** @verbatim   
 257:Drivers/STM32F3xx_HAL_Driver/Src/stm32f3xx_hal_dma.c ****  ===============================================================================
 258:Drivers/STM32F3xx_HAL_Driver/Src/stm32f3xx_hal_dma.c ****                       #####  IO operation functions  #####
 259:Drivers/STM32F3xx_HAL_Driver/Src/stm32f3xx_hal_dma.c ****  ===============================================================================  
 260:Drivers/STM32F3xx_HAL_Driver/Src/stm32f3xx_hal_dma.c ****     [..]  This section provides functions allowing to:
 261:Drivers/STM32F3xx_HAL_Driver/Src/stm32f3xx_hal_dma.c ****       (+) Configure the source, destination address and data length and Start DMA transfer
 262:Drivers/STM32F3xx_HAL_Driver/Src/stm32f3xx_hal_dma.c ****       (+) Configure the source, destination address and data length and 
 263:Drivers/STM32F3xx_HAL_Driver/Src/stm32f3xx_hal_dma.c ****           Start DMA transfer with interrupt
 264:Drivers/STM32F3xx_HAL_Driver/Src/stm32f3xx_hal_dma.c ****       (+) Abort DMA transfer
 265:Drivers/STM32F3xx_HAL_Driver/Src/stm32f3xx_hal_dma.c ****       (+) Poll for transfer complete
 266:Drivers/STM32F3xx_HAL_Driver/Src/stm32f3xx_hal_dma.c ****       (+) Handle DMA interrupt request  
 267:Drivers/STM32F3xx_HAL_Driver/Src/stm32f3xx_hal_dma.c **** 
 268:Drivers/STM32F3xx_HAL_Driver/Src/stm32f3xx_hal_dma.c **** @endverbatim
 269:Drivers/STM32F3xx_HAL_Driver/Src/stm32f3xx_hal_dma.c ****   * @{
 270:Drivers/STM32F3xx_HAL_Driver/Src/stm32f3xx_hal_dma.c ****   */
 271:Drivers/STM32F3xx_HAL_Driver/Src/stm32f3xx_hal_dma.c **** 
 272:Drivers/STM32F3xx_HAL_Driver/Src/stm32f3xx_hal_dma.c **** /**
 273:Drivers/STM32F3xx_HAL_Driver/Src/stm32f3xx_hal_dma.c ****   * @brief  Start the DMA Transfer.
 274:Drivers/STM32F3xx_HAL_Driver/Src/stm32f3xx_hal_dma.c ****   * @param  hdma      : pointer to a DMA_HandleTypeDef structure that contains
 275:Drivers/STM32F3xx_HAL_Driver/Src/stm32f3xx_hal_dma.c ****   *                     the configuration information for the specified DMA Channel.  
 276:Drivers/STM32F3xx_HAL_Driver/Src/stm32f3xx_hal_dma.c ****   * @param  SrcAddress The source memory Buffer address
 277:Drivers/STM32F3xx_HAL_Driver/Src/stm32f3xx_hal_dma.c ****   * @param  DstAddress The destination memory Buffer address
 278:Drivers/STM32F3xx_HAL_Driver/Src/stm32f3xx_hal_dma.c ****   * @param  DataLength The length of data to be transferred from source to destination
 279:Drivers/STM32F3xx_HAL_Driver/Src/stm32f3xx_hal_dma.c ****   * @retval HAL status
 280:Drivers/STM32F3xx_HAL_Driver/Src/stm32f3xx_hal_dma.c ****   */
 281:Drivers/STM32F3xx_HAL_Driver/Src/stm32f3xx_hal_dma.c **** HAL_StatusTypeDef HAL_DMA_Start(DMA_HandleTypeDef *hdma, uint32_t SrcAddress, uint32_t DstAddress, 
 282:Drivers/STM32F3xx_HAL_Driver/Src/stm32f3xx_hal_dma.c **** {
 266              		.loc 1 282 0
 267              		.cfi_startproc
 268              		@ args = 0, pretend = 0, frame = 24
 269              		@ frame_needed = 1, uses_anonymous_args = 0
 270 0000 80B5     		push	{r7, lr}
 271              	.LCFI10:
 272              		.cfi_def_cfa_offset 8
 273              		.cfi_offset 7, -8
 274              		.cfi_offset 14, -4
 275 0002 86B0     		sub	sp, sp, #24
 276              	.LCFI11:
 277              		.cfi_def_cfa_offset 32
 278 0004 00AF     		add	r7, sp, #0
 279              	.LCFI12:
 280              		.cfi_def_cfa_register 7
 281 0006 F860     		str	r0, [r7, #12]
 282 0008 B960     		str	r1, [r7, #8]
 283 000a 7A60     		str	r2, [r7, #4]
 284 000c 3B60     		str	r3, [r7]
 283:Drivers/STM32F3xx_HAL_Driver/Src/stm32f3xx_hal_dma.c **** 	HAL_StatusTypeDef status = HAL_OK;
 285              		.loc 1 283 0
 286 000e 0023     		movs	r3, #0
 287 0010 FB75     		strb	r3, [r7, #23]
 284:Drivers/STM32F3xx_HAL_Driver/Src/stm32f3xx_hal_dma.c **** 
ARM GAS  /tmp/ccAMRbe4.s 			page 11


 285:Drivers/STM32F3xx_HAL_Driver/Src/stm32f3xx_hal_dma.c ****   /* Check the parameters */
 286:Drivers/STM32F3xx_HAL_Driver/Src/stm32f3xx_hal_dma.c ****   assert_param(IS_DMA_BUFFER_SIZE(DataLength));
 287:Drivers/STM32F3xx_HAL_Driver/Src/stm32f3xx_hal_dma.c ****   
 288:Drivers/STM32F3xx_HAL_Driver/Src/stm32f3xx_hal_dma.c ****   /* Process locked */
 289:Drivers/STM32F3xx_HAL_Driver/Src/stm32f3xx_hal_dma.c ****   __HAL_LOCK(hdma);
 288              		.loc 1 289 0
 289 0012 FB68     		ldr	r3, [r7, #12]
 290 0014 93F82030 		ldrb	r3, [r3, #32]	@ zero_extendqisi2
 291 0018 012B     		cmp	r3, #1
 292 001a 01D1     		bne	.L8
 293              		.loc 1 289 0 is_stmt 0 discriminator 1
 294 001c 0223     		movs	r3, #2
 295 001e 2DE0     		b	.L9
 296              	.L8:
 297              		.loc 1 289 0 discriminator 2
 298 0020 FB68     		ldr	r3, [r7, #12]
 299 0022 0122     		movs	r2, #1
 300 0024 83F82020 		strb	r2, [r3, #32]
 290:Drivers/STM32F3xx_HAL_Driver/Src/stm32f3xx_hal_dma.c ****   
 291:Drivers/STM32F3xx_HAL_Driver/Src/stm32f3xx_hal_dma.c ****   if(HAL_DMA_STATE_READY == hdma->State)
 301              		.loc 1 291 0 is_stmt 1 discriminator 2
 302 0028 FB68     		ldr	r3, [r7, #12]
 303 002a 93F82130 		ldrb	r3, [r3, #33]	@ zero_extendqisi2
 304 002e 012B     		cmp	r3, #1
 305 0030 1DD1     		bne	.L10
 292:Drivers/STM32F3xx_HAL_Driver/Src/stm32f3xx_hal_dma.c ****   {
 293:Drivers/STM32F3xx_HAL_Driver/Src/stm32f3xx_hal_dma.c ****   	/* Change DMA peripheral state */  
 294:Drivers/STM32F3xx_HAL_Driver/Src/stm32f3xx_hal_dma.c ****   	hdma->State = HAL_DMA_STATE_BUSY;
 306              		.loc 1 294 0
 307 0032 FB68     		ldr	r3, [r7, #12]
 308 0034 0222     		movs	r2, #2
 309 0036 83F82120 		strb	r2, [r3, #33]
 295:Drivers/STM32F3xx_HAL_Driver/Src/stm32f3xx_hal_dma.c ****   	
 296:Drivers/STM32F3xx_HAL_Driver/Src/stm32f3xx_hal_dma.c ****   	hdma->ErrorCode = HAL_DMA_ERROR_NONE;
 310              		.loc 1 296 0
 311 003a FB68     		ldr	r3, [r7, #12]
 312 003c 0022     		movs	r2, #0
 313 003e 9A63     		str	r2, [r3, #56]
 297:Drivers/STM32F3xx_HAL_Driver/Src/stm32f3xx_hal_dma.c ****   	
 298:Drivers/STM32F3xx_HAL_Driver/Src/stm32f3xx_hal_dma.c ****   	/* Disable the peripheral */
 299:Drivers/STM32F3xx_HAL_Driver/Src/stm32f3xx_hal_dma.c ****   	hdma->Instance->CCR &= ~DMA_CCR_EN;  
 314              		.loc 1 299 0
 315 0040 FB68     		ldr	r3, [r7, #12]
 316 0042 1B68     		ldr	r3, [r3]
 317 0044 1A68     		ldr	r2, [r3]
 318 0046 FB68     		ldr	r3, [r7, #12]
 319 0048 1B68     		ldr	r3, [r3]
 320 004a 22F00102 		bic	r2, r2, #1
 321 004e 1A60     		str	r2, [r3]
 300:Drivers/STM32F3xx_HAL_Driver/Src/stm32f3xx_hal_dma.c ****   	
 301:Drivers/STM32F3xx_HAL_Driver/Src/stm32f3xx_hal_dma.c ****   	/* Configure the source, destination address and the data length */
 302:Drivers/STM32F3xx_HAL_Driver/Src/stm32f3xx_hal_dma.c ****   	DMA_SetConfig(hdma, SrcAddress, DstAddress, DataLength);
 322              		.loc 1 302 0
 323 0050 3B68     		ldr	r3, [r7]
 324 0052 7A68     		ldr	r2, [r7, #4]
 325 0054 B968     		ldr	r1, [r7, #8]
 326 0056 F868     		ldr	r0, [r7, #12]
ARM GAS  /tmp/ccAMRbe4.s 			page 12


 327 0058 FFF7FEFF 		bl	DMA_SetConfig
 303:Drivers/STM32F3xx_HAL_Driver/Src/stm32f3xx_hal_dma.c ****   	
 304:Drivers/STM32F3xx_HAL_Driver/Src/stm32f3xx_hal_dma.c ****   	/* Enable the Peripheral */
 305:Drivers/STM32F3xx_HAL_Driver/Src/stm32f3xx_hal_dma.c ****   	hdma->Instance->CCR |= DMA_CCR_EN;  
 328              		.loc 1 305 0
 329 005c FB68     		ldr	r3, [r7, #12]
 330 005e 1B68     		ldr	r3, [r3]
 331 0060 1A68     		ldr	r2, [r3]
 332 0062 FB68     		ldr	r3, [r7, #12]
 333 0064 1B68     		ldr	r3, [r3]
 334 0066 42F00102 		orr	r2, r2, #1
 335 006a 1A60     		str	r2, [r3]
 336 006c 05E0     		b	.L11
 337              	.L10:
 306:Drivers/STM32F3xx_HAL_Driver/Src/stm32f3xx_hal_dma.c ****   }
 307:Drivers/STM32F3xx_HAL_Driver/Src/stm32f3xx_hal_dma.c ****   else
 308:Drivers/STM32F3xx_HAL_Driver/Src/stm32f3xx_hal_dma.c ****   {
 309:Drivers/STM32F3xx_HAL_Driver/Src/stm32f3xx_hal_dma.c ****   	/* Process Unlocked */
 310:Drivers/STM32F3xx_HAL_Driver/Src/stm32f3xx_hal_dma.c ****   	__HAL_UNLOCK(hdma);
 338              		.loc 1 310 0
 339 006e FB68     		ldr	r3, [r7, #12]
 340 0070 0022     		movs	r2, #0
 341 0072 83F82020 		strb	r2, [r3, #32]
 311:Drivers/STM32F3xx_HAL_Driver/Src/stm32f3xx_hal_dma.c ****   	
 312:Drivers/STM32F3xx_HAL_Driver/Src/stm32f3xx_hal_dma.c ****   	/* Remain BUSY */
 313:Drivers/STM32F3xx_HAL_Driver/Src/stm32f3xx_hal_dma.c ****   	status = HAL_BUSY;
 342              		.loc 1 313 0
 343 0076 0223     		movs	r3, #2
 344 0078 FB75     		strb	r3, [r7, #23]
 345              	.L11:
 314:Drivers/STM32F3xx_HAL_Driver/Src/stm32f3xx_hal_dma.c ****   }  
 315:Drivers/STM32F3xx_HAL_Driver/Src/stm32f3xx_hal_dma.c **** 
 316:Drivers/STM32F3xx_HAL_Driver/Src/stm32f3xx_hal_dma.c ****   return status; 
 346              		.loc 1 316 0
 347 007a FB7D     		ldrb	r3, [r7, #23]	@ zero_extendqisi2
 348              	.L9:
 317:Drivers/STM32F3xx_HAL_Driver/Src/stm32f3xx_hal_dma.c **** } 
 349              		.loc 1 317 0
 350 007c 1846     		mov	r0, r3
 351 007e 1837     		adds	r7, r7, #24
 352              	.LCFI13:
 353              		.cfi_def_cfa_offset 8
 354 0080 BD46     		mov	sp, r7
 355              	.LCFI14:
 356              		.cfi_def_cfa_register 13
 357              		@ sp needed
 358 0082 80BD     		pop	{r7, pc}
 359              		.cfi_endproc
 360              	.LFE125:
 362              		.section	.text.HAL_DMA_Start_IT,"ax",%progbits
 363              		.align	1
 364              		.global	HAL_DMA_Start_IT
 365              		.syntax unified
 366              		.thumb
 367              		.thumb_func
 368              		.fpu fpv4-sp-d16
 370              	HAL_DMA_Start_IT:
ARM GAS  /tmp/ccAMRbe4.s 			page 13


 371              	.LFB126:
 318:Drivers/STM32F3xx_HAL_Driver/Src/stm32f3xx_hal_dma.c **** 
 319:Drivers/STM32F3xx_HAL_Driver/Src/stm32f3xx_hal_dma.c **** /**
 320:Drivers/STM32F3xx_HAL_Driver/Src/stm32f3xx_hal_dma.c ****   * @brief  Start the DMA Transfer with interrupt enabled.
 321:Drivers/STM32F3xx_HAL_Driver/Src/stm32f3xx_hal_dma.c ****   * @param  hdma       pointer to a DMA_HandleTypeDef structure that contains
 322:Drivers/STM32F3xx_HAL_Driver/Src/stm32f3xx_hal_dma.c ****   *                     the configuration information for the specified DMA Channel.  
 323:Drivers/STM32F3xx_HAL_Driver/Src/stm32f3xx_hal_dma.c ****   * @param  SrcAddress The source memory Buffer address
 324:Drivers/STM32F3xx_HAL_Driver/Src/stm32f3xx_hal_dma.c ****   * @param  DstAddress The destination memory Buffer address
 325:Drivers/STM32F3xx_HAL_Driver/Src/stm32f3xx_hal_dma.c ****   * @param  DataLength The length of data to be transferred from source to destination
 326:Drivers/STM32F3xx_HAL_Driver/Src/stm32f3xx_hal_dma.c ****   * @retval HAL status
 327:Drivers/STM32F3xx_HAL_Driver/Src/stm32f3xx_hal_dma.c ****   */
 328:Drivers/STM32F3xx_HAL_Driver/Src/stm32f3xx_hal_dma.c **** HAL_StatusTypeDef HAL_DMA_Start_IT(DMA_HandleTypeDef *hdma, uint32_t SrcAddress, uint32_t DstAddres
 329:Drivers/STM32F3xx_HAL_Driver/Src/stm32f3xx_hal_dma.c **** {
 372              		.loc 1 329 0
 373              		.cfi_startproc
 374              		@ args = 0, pretend = 0, frame = 24
 375              		@ frame_needed = 1, uses_anonymous_args = 0
 376 0000 80B5     		push	{r7, lr}
 377              	.LCFI15:
 378              		.cfi_def_cfa_offset 8
 379              		.cfi_offset 7, -8
 380              		.cfi_offset 14, -4
 381 0002 86B0     		sub	sp, sp, #24
 382              	.LCFI16:
 383              		.cfi_def_cfa_offset 32
 384 0004 00AF     		add	r7, sp, #0
 385              	.LCFI17:
 386              		.cfi_def_cfa_register 7
 387 0006 F860     		str	r0, [r7, #12]
 388 0008 B960     		str	r1, [r7, #8]
 389 000a 7A60     		str	r2, [r7, #4]
 390 000c 3B60     		str	r3, [r7]
 330:Drivers/STM32F3xx_HAL_Driver/Src/stm32f3xx_hal_dma.c **** 	HAL_StatusTypeDef status = HAL_OK;
 391              		.loc 1 330 0
 392 000e 0023     		movs	r3, #0
 393 0010 FB75     		strb	r3, [r7, #23]
 331:Drivers/STM32F3xx_HAL_Driver/Src/stm32f3xx_hal_dma.c **** 
 332:Drivers/STM32F3xx_HAL_Driver/Src/stm32f3xx_hal_dma.c ****   /* Check the parameters */
 333:Drivers/STM32F3xx_HAL_Driver/Src/stm32f3xx_hal_dma.c ****   assert_param(IS_DMA_BUFFER_SIZE(DataLength));
 334:Drivers/STM32F3xx_HAL_Driver/Src/stm32f3xx_hal_dma.c ****   
 335:Drivers/STM32F3xx_HAL_Driver/Src/stm32f3xx_hal_dma.c ****   /* Process locked */
 336:Drivers/STM32F3xx_HAL_Driver/Src/stm32f3xx_hal_dma.c ****   __HAL_LOCK(hdma);
 394              		.loc 1 336 0
 395 0012 FB68     		ldr	r3, [r7, #12]
 396 0014 93F82030 		ldrb	r3, [r3, #32]	@ zero_extendqisi2
 397 0018 012B     		cmp	r3, #1
 398 001a 01D1     		bne	.L13
 399              		.loc 1 336 0 is_stmt 0 discriminator 1
 400 001c 0223     		movs	r3, #2
 401 001e 4AE0     		b	.L14
 402              	.L13:
 403              		.loc 1 336 0 discriminator 2
 404 0020 FB68     		ldr	r3, [r7, #12]
 405 0022 0122     		movs	r2, #1
 406 0024 83F82020 		strb	r2, [r3, #32]
 337:Drivers/STM32F3xx_HAL_Driver/Src/stm32f3xx_hal_dma.c ****   
 338:Drivers/STM32F3xx_HAL_Driver/Src/stm32f3xx_hal_dma.c ****   if(HAL_DMA_STATE_READY == hdma->State)
ARM GAS  /tmp/ccAMRbe4.s 			page 14


 407              		.loc 1 338 0 is_stmt 1 discriminator 2
 408 0028 FB68     		ldr	r3, [r7, #12]
 409 002a 93F82130 		ldrb	r3, [r3, #33]	@ zero_extendqisi2
 410 002e 012B     		cmp	r3, #1
 411 0030 3AD1     		bne	.L15
 339:Drivers/STM32F3xx_HAL_Driver/Src/stm32f3xx_hal_dma.c ****   {
 340:Drivers/STM32F3xx_HAL_Driver/Src/stm32f3xx_hal_dma.c ****   	/* Change DMA peripheral state */  
 341:Drivers/STM32F3xx_HAL_Driver/Src/stm32f3xx_hal_dma.c ****   	hdma->State = HAL_DMA_STATE_BUSY;
 412              		.loc 1 341 0
 413 0032 FB68     		ldr	r3, [r7, #12]
 414 0034 0222     		movs	r2, #2
 415 0036 83F82120 		strb	r2, [r3, #33]
 342:Drivers/STM32F3xx_HAL_Driver/Src/stm32f3xx_hal_dma.c ****   	
 343:Drivers/STM32F3xx_HAL_Driver/Src/stm32f3xx_hal_dma.c ****   	hdma->ErrorCode = HAL_DMA_ERROR_NONE;
 416              		.loc 1 343 0
 417 003a FB68     		ldr	r3, [r7, #12]
 418 003c 0022     		movs	r2, #0
 419 003e 9A63     		str	r2, [r3, #56]
 344:Drivers/STM32F3xx_HAL_Driver/Src/stm32f3xx_hal_dma.c ****   	
 345:Drivers/STM32F3xx_HAL_Driver/Src/stm32f3xx_hal_dma.c ****   	/* Disable the peripheral */
 346:Drivers/STM32F3xx_HAL_Driver/Src/stm32f3xx_hal_dma.c ****   	hdma->Instance->CCR &= ~DMA_CCR_EN;
 420              		.loc 1 346 0
 421 0040 FB68     		ldr	r3, [r7, #12]
 422 0042 1B68     		ldr	r3, [r3]
 423 0044 1A68     		ldr	r2, [r3]
 424 0046 FB68     		ldr	r3, [r7, #12]
 425 0048 1B68     		ldr	r3, [r3]
 426 004a 22F00102 		bic	r2, r2, #1
 427 004e 1A60     		str	r2, [r3]
 347:Drivers/STM32F3xx_HAL_Driver/Src/stm32f3xx_hal_dma.c ****   	
 348:Drivers/STM32F3xx_HAL_Driver/Src/stm32f3xx_hal_dma.c ****   	/* Configure the source, destination address and the data length */  
 349:Drivers/STM32F3xx_HAL_Driver/Src/stm32f3xx_hal_dma.c ****   	DMA_SetConfig(hdma, SrcAddress, DstAddress, DataLength);
 428              		.loc 1 349 0
 429 0050 3B68     		ldr	r3, [r7]
 430 0052 7A68     		ldr	r2, [r7, #4]
 431 0054 B968     		ldr	r1, [r7, #8]
 432 0056 F868     		ldr	r0, [r7, #12]
 433 0058 FFF7FEFF 		bl	DMA_SetConfig
 350:Drivers/STM32F3xx_HAL_Driver/Src/stm32f3xx_hal_dma.c ****   	
 351:Drivers/STM32F3xx_HAL_Driver/Src/stm32f3xx_hal_dma.c ****   	/* Enable the transfer complete, & transfer error interrupts */
 352:Drivers/STM32F3xx_HAL_Driver/Src/stm32f3xx_hal_dma.c ****   	/* Half transfer interrupt is optional: enable it only if associated callback is available */
 353:Drivers/STM32F3xx_HAL_Driver/Src/stm32f3xx_hal_dma.c ****     if(NULL != hdma->XferHalfCpltCallback )
 434              		.loc 1 353 0
 435 005c FB68     		ldr	r3, [r7, #12]
 436 005e DB6A     		ldr	r3, [r3, #44]
 437 0060 002B     		cmp	r3, #0
 438 0062 08D0     		beq	.L16
 354:Drivers/STM32F3xx_HAL_Driver/Src/stm32f3xx_hal_dma.c ****     {
 355:Drivers/STM32F3xx_HAL_Driver/Src/stm32f3xx_hal_dma.c ****       hdma->Instance->CCR |= (DMA_IT_TC | DMA_IT_HT | DMA_IT_TE);
 439              		.loc 1 355 0
 440 0064 FB68     		ldr	r3, [r7, #12]
 441 0066 1B68     		ldr	r3, [r3]
 442 0068 1A68     		ldr	r2, [r3]
 443 006a FB68     		ldr	r3, [r7, #12]
 444 006c 1B68     		ldr	r3, [r3]
 445 006e 42F00E02 		orr	r2, r2, #14
 446 0072 1A60     		str	r2, [r3]
ARM GAS  /tmp/ccAMRbe4.s 			page 15


 447 0074 0FE0     		b	.L17
 448              	.L16:
 356:Drivers/STM32F3xx_HAL_Driver/Src/stm32f3xx_hal_dma.c ****     }
 357:Drivers/STM32F3xx_HAL_Driver/Src/stm32f3xx_hal_dma.c ****   	else
 358:Drivers/STM32F3xx_HAL_Driver/Src/stm32f3xx_hal_dma.c ****   	{
 359:Drivers/STM32F3xx_HAL_Driver/Src/stm32f3xx_hal_dma.c ****   		hdma->Instance->CCR |= (DMA_IT_TC | DMA_IT_TE);
 449              		.loc 1 359 0
 450 0076 FB68     		ldr	r3, [r7, #12]
 451 0078 1B68     		ldr	r3, [r3]
 452 007a 1A68     		ldr	r2, [r3]
 453 007c FB68     		ldr	r3, [r7, #12]
 454 007e 1B68     		ldr	r3, [r3]
 455 0080 42F00A02 		orr	r2, r2, #10
 456 0084 1A60     		str	r2, [r3]
 360:Drivers/STM32F3xx_HAL_Driver/Src/stm32f3xx_hal_dma.c ****   		hdma->Instance->CCR &= ~DMA_IT_HT;
 457              		.loc 1 360 0
 458 0086 FB68     		ldr	r3, [r7, #12]
 459 0088 1B68     		ldr	r3, [r3]
 460 008a 1A68     		ldr	r2, [r3]
 461 008c FB68     		ldr	r3, [r7, #12]
 462 008e 1B68     		ldr	r3, [r3]
 463 0090 22F00402 		bic	r2, r2, #4
 464 0094 1A60     		str	r2, [r3]
 465              	.L17:
 361:Drivers/STM32F3xx_HAL_Driver/Src/stm32f3xx_hal_dma.c ****   	}
 362:Drivers/STM32F3xx_HAL_Driver/Src/stm32f3xx_hal_dma.c ****   	
 363:Drivers/STM32F3xx_HAL_Driver/Src/stm32f3xx_hal_dma.c ****   	/* Enable the Peripheral */
 364:Drivers/STM32F3xx_HAL_Driver/Src/stm32f3xx_hal_dma.c ****   	hdma->Instance->CCR |= DMA_CCR_EN;
 466              		.loc 1 364 0
 467 0096 FB68     		ldr	r3, [r7, #12]
 468 0098 1B68     		ldr	r3, [r3]
 469 009a 1A68     		ldr	r2, [r3]
 470 009c FB68     		ldr	r3, [r7, #12]
 471 009e 1B68     		ldr	r3, [r3]
 472 00a0 42F00102 		orr	r2, r2, #1
 473 00a4 1A60     		str	r2, [r3]
 474 00a6 05E0     		b	.L18
 475              	.L15:
 365:Drivers/STM32F3xx_HAL_Driver/Src/stm32f3xx_hal_dma.c ****   }
 366:Drivers/STM32F3xx_HAL_Driver/Src/stm32f3xx_hal_dma.c ****   else
 367:Drivers/STM32F3xx_HAL_Driver/Src/stm32f3xx_hal_dma.c ****   {
 368:Drivers/STM32F3xx_HAL_Driver/Src/stm32f3xx_hal_dma.c ****   	/* Process Unlocked */
 369:Drivers/STM32F3xx_HAL_Driver/Src/stm32f3xx_hal_dma.c ****     __HAL_UNLOCK(hdma); 
 476              		.loc 1 369 0
 477 00a8 FB68     		ldr	r3, [r7, #12]
 478 00aa 0022     		movs	r2, #0
 479 00ac 83F82020 		strb	r2, [r3, #32]
 370:Drivers/STM32F3xx_HAL_Driver/Src/stm32f3xx_hal_dma.c ****   
 371:Drivers/STM32F3xx_HAL_Driver/Src/stm32f3xx_hal_dma.c ****     /* Remain BUSY */
 372:Drivers/STM32F3xx_HAL_Driver/Src/stm32f3xx_hal_dma.c ****     status = HAL_BUSY;
 480              		.loc 1 372 0
 481 00b0 0223     		movs	r3, #2
 482 00b2 FB75     		strb	r3, [r7, #23]
 483              	.L18:
 373:Drivers/STM32F3xx_HAL_Driver/Src/stm32f3xx_hal_dma.c ****   }     
 374:Drivers/STM32F3xx_HAL_Driver/Src/stm32f3xx_hal_dma.c ****   
 375:Drivers/STM32F3xx_HAL_Driver/Src/stm32f3xx_hal_dma.c ****   return status;    
ARM GAS  /tmp/ccAMRbe4.s 			page 16


 484              		.loc 1 375 0
 485 00b4 FB7D     		ldrb	r3, [r7, #23]	@ zero_extendqisi2
 486              	.L14:
 376:Drivers/STM32F3xx_HAL_Driver/Src/stm32f3xx_hal_dma.c **** } 
 487              		.loc 1 376 0
 488 00b6 1846     		mov	r0, r3
 489 00b8 1837     		adds	r7, r7, #24
 490              	.LCFI18:
 491              		.cfi_def_cfa_offset 8
 492 00ba BD46     		mov	sp, r7
 493              	.LCFI19:
 494              		.cfi_def_cfa_register 13
 495              		@ sp needed
 496 00bc 80BD     		pop	{r7, pc}
 497              		.cfi_endproc
 498              	.LFE126:
 500              		.section	.text.HAL_DMA_Abort,"ax",%progbits
 501              		.align	1
 502              		.global	HAL_DMA_Abort
 503              		.syntax unified
 504              		.thumb
 505              		.thumb_func
 506              		.fpu fpv4-sp-d16
 508              	HAL_DMA_Abort:
 509              	.LFB127:
 377:Drivers/STM32F3xx_HAL_Driver/Src/stm32f3xx_hal_dma.c **** 
 378:Drivers/STM32F3xx_HAL_Driver/Src/stm32f3xx_hal_dma.c **** /**
 379:Drivers/STM32F3xx_HAL_Driver/Src/stm32f3xx_hal_dma.c ****   * @brief  Abort the DMA Transfer.
 380:Drivers/STM32F3xx_HAL_Driver/Src/stm32f3xx_hal_dma.c ****   * @param  hdma  : pointer to a DMA_HandleTypeDef structure that contains
 381:Drivers/STM32F3xx_HAL_Driver/Src/stm32f3xx_hal_dma.c ****   *                 the configuration information for the specified DMA Channel.
 382:Drivers/STM32F3xx_HAL_Driver/Src/stm32f3xx_hal_dma.c ****   * @retval HAL status
 383:Drivers/STM32F3xx_HAL_Driver/Src/stm32f3xx_hal_dma.c ****   */
 384:Drivers/STM32F3xx_HAL_Driver/Src/stm32f3xx_hal_dma.c **** HAL_StatusTypeDef HAL_DMA_Abort(DMA_HandleTypeDef *hdma)
 385:Drivers/STM32F3xx_HAL_Driver/Src/stm32f3xx_hal_dma.c **** {
 510              		.loc 1 385 0
 511              		.cfi_startproc
 512              		@ args = 0, pretend = 0, frame = 8
 513              		@ frame_needed = 1, uses_anonymous_args = 0
 514              		@ link register save eliminated.
 515 0000 80B4     		push	{r7}
 516              	.LCFI20:
 517              		.cfi_def_cfa_offset 4
 518              		.cfi_offset 7, -4
 519 0002 83B0     		sub	sp, sp, #12
 520              	.LCFI21:
 521              		.cfi_def_cfa_offset 16
 522 0004 00AF     		add	r7, sp, #0
 523              	.LCFI22:
 524              		.cfi_def_cfa_register 7
 525 0006 7860     		str	r0, [r7, #4]
 386:Drivers/STM32F3xx_HAL_Driver/Src/stm32f3xx_hal_dma.c ****   if(hdma->State != HAL_DMA_STATE_BUSY)
 526              		.loc 1 386 0
 527 0008 7B68     		ldr	r3, [r7, #4]
 528 000a 93F82130 		ldrb	r3, [r3, #33]	@ zero_extendqisi2
 529 000e 022B     		cmp	r3, #2
 530 0010 08D0     		beq	.L20
 387:Drivers/STM32F3xx_HAL_Driver/Src/stm32f3xx_hal_dma.c ****   {
ARM GAS  /tmp/ccAMRbe4.s 			page 17


 388:Drivers/STM32F3xx_HAL_Driver/Src/stm32f3xx_hal_dma.c ****     /* no transfer ongoing */
 389:Drivers/STM32F3xx_HAL_Driver/Src/stm32f3xx_hal_dma.c ****     hdma->ErrorCode = HAL_DMA_ERROR_NO_XFER;
 531              		.loc 1 389 0
 532 0012 7B68     		ldr	r3, [r7, #4]
 533 0014 0422     		movs	r2, #4
 534 0016 9A63     		str	r2, [r3, #56]
 390:Drivers/STM32F3xx_HAL_Driver/Src/stm32f3xx_hal_dma.c ****     
 391:Drivers/STM32F3xx_HAL_Driver/Src/stm32f3xx_hal_dma.c ****     /* Process Unlocked */
 392:Drivers/STM32F3xx_HAL_Driver/Src/stm32f3xx_hal_dma.c ****     __HAL_UNLOCK(hdma);
 535              		.loc 1 392 0
 536 0018 7B68     		ldr	r3, [r7, #4]
 537 001a 0022     		movs	r2, #0
 538 001c 83F82020 		strb	r2, [r3, #32]
 393:Drivers/STM32F3xx_HAL_Driver/Src/stm32f3xx_hal_dma.c ****     
 394:Drivers/STM32F3xx_HAL_Driver/Src/stm32f3xx_hal_dma.c ****     return HAL_ERROR;
 539              		.loc 1 394 0
 540 0020 0123     		movs	r3, #1
 541 0022 20E0     		b	.L21
 542              	.L20:
 395:Drivers/STM32F3xx_HAL_Driver/Src/stm32f3xx_hal_dma.c ****   }
 396:Drivers/STM32F3xx_HAL_Driver/Src/stm32f3xx_hal_dma.c ****   else
 397:Drivers/STM32F3xx_HAL_Driver/Src/stm32f3xx_hal_dma.c ****   {
 398:Drivers/STM32F3xx_HAL_Driver/Src/stm32f3xx_hal_dma.c ****     /* Disable DMA IT */
 399:Drivers/STM32F3xx_HAL_Driver/Src/stm32f3xx_hal_dma.c ****      hdma->Instance->CCR &= ~(DMA_IT_TC | DMA_IT_HT | DMA_IT_TE);
 543              		.loc 1 399 0
 544 0024 7B68     		ldr	r3, [r7, #4]
 545 0026 1B68     		ldr	r3, [r3]
 546 0028 1A68     		ldr	r2, [r3]
 547 002a 7B68     		ldr	r3, [r7, #4]
 548 002c 1B68     		ldr	r3, [r3]
 549 002e 22F00E02 		bic	r2, r2, #14
 550 0032 1A60     		str	r2, [r3]
 400:Drivers/STM32F3xx_HAL_Driver/Src/stm32f3xx_hal_dma.c ****     
 401:Drivers/STM32F3xx_HAL_Driver/Src/stm32f3xx_hal_dma.c ****     /* Disable the channel */
 402:Drivers/STM32F3xx_HAL_Driver/Src/stm32f3xx_hal_dma.c ****     hdma->Instance->CCR &= ~DMA_CCR_EN;
 551              		.loc 1 402 0
 552 0034 7B68     		ldr	r3, [r7, #4]
 553 0036 1B68     		ldr	r3, [r3]
 554 0038 1A68     		ldr	r2, [r3]
 555 003a 7B68     		ldr	r3, [r7, #4]
 556 003c 1B68     		ldr	r3, [r3]
 557 003e 22F00102 		bic	r2, r2, #1
 558 0042 1A60     		str	r2, [r3]
 403:Drivers/STM32F3xx_HAL_Driver/Src/stm32f3xx_hal_dma.c ****     
 404:Drivers/STM32F3xx_HAL_Driver/Src/stm32f3xx_hal_dma.c ****     /* Clear all flags */
 405:Drivers/STM32F3xx_HAL_Driver/Src/stm32f3xx_hal_dma.c ****     hdma->DmaBaseAddress->IFCR = (DMA_FLAG_GL1 << hdma->ChannelIndex);
 559              		.loc 1 405 0
 560 0044 7B68     		ldr	r3, [r7, #4]
 561 0046 1A6C     		ldr	r2, [r3, #64]
 562 0048 7B68     		ldr	r3, [r7, #4]
 563 004a DB6B     		ldr	r3, [r3, #60]
 564 004c 0121     		movs	r1, #1
 565 004e 01FA02F2 		lsl	r2, r1, r2
 566 0052 5A60     		str	r2, [r3, #4]
 406:Drivers/STM32F3xx_HAL_Driver/Src/stm32f3xx_hal_dma.c ****   }
 407:Drivers/STM32F3xx_HAL_Driver/Src/stm32f3xx_hal_dma.c ****   /* Change the DMA state*/
 408:Drivers/STM32F3xx_HAL_Driver/Src/stm32f3xx_hal_dma.c ****   hdma->State = HAL_DMA_STATE_READY; 
ARM GAS  /tmp/ccAMRbe4.s 			page 18


 567              		.loc 1 408 0
 568 0054 7B68     		ldr	r3, [r7, #4]
 569 0056 0122     		movs	r2, #1
 570 0058 83F82120 		strb	r2, [r3, #33]
 409:Drivers/STM32F3xx_HAL_Driver/Src/stm32f3xx_hal_dma.c ****   
 410:Drivers/STM32F3xx_HAL_Driver/Src/stm32f3xx_hal_dma.c ****   /* Process Unlocked */
 411:Drivers/STM32F3xx_HAL_Driver/Src/stm32f3xx_hal_dma.c ****   __HAL_UNLOCK(hdma);
 571              		.loc 1 411 0
 572 005c 7B68     		ldr	r3, [r7, #4]
 573 005e 0022     		movs	r2, #0
 574 0060 83F82020 		strb	r2, [r3, #32]
 412:Drivers/STM32F3xx_HAL_Driver/Src/stm32f3xx_hal_dma.c ****   
 413:Drivers/STM32F3xx_HAL_Driver/Src/stm32f3xx_hal_dma.c ****   return HAL_OK;
 575              		.loc 1 413 0
 576 0064 0023     		movs	r3, #0
 577              	.L21:
 414:Drivers/STM32F3xx_HAL_Driver/Src/stm32f3xx_hal_dma.c **** }
 578              		.loc 1 414 0
 579 0066 1846     		mov	r0, r3
 580 0068 0C37     		adds	r7, r7, #12
 581              	.LCFI23:
 582              		.cfi_def_cfa_offset 4
 583 006a BD46     		mov	sp, r7
 584              	.LCFI24:
 585              		.cfi_def_cfa_register 13
 586              		@ sp needed
 587 006c 5DF8047B 		ldr	r7, [sp], #4
 588              	.LCFI25:
 589              		.cfi_restore 7
 590              		.cfi_def_cfa_offset 0
 591 0070 7047     		bx	lr
 592              		.cfi_endproc
 593              	.LFE127:
 595              		.section	.text.HAL_DMA_Abort_IT,"ax",%progbits
 596              		.align	1
 597              		.global	HAL_DMA_Abort_IT
 598              		.syntax unified
 599              		.thumb
 600              		.thumb_func
 601              		.fpu fpv4-sp-d16
 603              	HAL_DMA_Abort_IT:
 604              	.LFB128:
 415:Drivers/STM32F3xx_HAL_Driver/Src/stm32f3xx_hal_dma.c **** 
 416:Drivers/STM32F3xx_HAL_Driver/Src/stm32f3xx_hal_dma.c **** /**
 417:Drivers/STM32F3xx_HAL_Driver/Src/stm32f3xx_hal_dma.c ****   * @brief  Abort the DMA Transfer in Interrupt mode.
 418:Drivers/STM32F3xx_HAL_Driver/Src/stm32f3xx_hal_dma.c ****   * @param  hdma  : pointer to a DMA_HandleTypeDef structure that contains
 419:Drivers/STM32F3xx_HAL_Driver/Src/stm32f3xx_hal_dma.c ****   *                 the configuration information for the specified DMA Stream.
 420:Drivers/STM32F3xx_HAL_Driver/Src/stm32f3xx_hal_dma.c ****   * @retval HAL status
 421:Drivers/STM32F3xx_HAL_Driver/Src/stm32f3xx_hal_dma.c ****   */
 422:Drivers/STM32F3xx_HAL_Driver/Src/stm32f3xx_hal_dma.c **** HAL_StatusTypeDef HAL_DMA_Abort_IT(DMA_HandleTypeDef *hdma)
 423:Drivers/STM32F3xx_HAL_Driver/Src/stm32f3xx_hal_dma.c **** {  
 605              		.loc 1 423 0
 606              		.cfi_startproc
 607              		@ args = 0, pretend = 0, frame = 16
 608              		@ frame_needed = 1, uses_anonymous_args = 0
 609 0000 80B5     		push	{r7, lr}
 610              	.LCFI26:
ARM GAS  /tmp/ccAMRbe4.s 			page 19


 611              		.cfi_def_cfa_offset 8
 612              		.cfi_offset 7, -8
 613              		.cfi_offset 14, -4
 614 0002 84B0     		sub	sp, sp, #16
 615              	.LCFI27:
 616              		.cfi_def_cfa_offset 24
 617 0004 00AF     		add	r7, sp, #0
 618              	.LCFI28:
 619              		.cfi_def_cfa_register 7
 620 0006 7860     		str	r0, [r7, #4]
 424:Drivers/STM32F3xx_HAL_Driver/Src/stm32f3xx_hal_dma.c ****   HAL_StatusTypeDef status = HAL_OK;
 621              		.loc 1 424 0
 622 0008 0023     		movs	r3, #0
 623 000a FB73     		strb	r3, [r7, #15]
 425:Drivers/STM32F3xx_HAL_Driver/Src/stm32f3xx_hal_dma.c ****   
 426:Drivers/STM32F3xx_HAL_Driver/Src/stm32f3xx_hal_dma.c ****   if(HAL_DMA_STATE_BUSY != hdma->State)
 624              		.loc 1 426 0
 625 000c 7B68     		ldr	r3, [r7, #4]
 626 000e 93F82130 		ldrb	r3, [r3, #33]	@ zero_extendqisi2
 627 0012 022B     		cmp	r3, #2
 628 0014 05D0     		beq	.L23
 427:Drivers/STM32F3xx_HAL_Driver/Src/stm32f3xx_hal_dma.c ****   {
 428:Drivers/STM32F3xx_HAL_Driver/Src/stm32f3xx_hal_dma.c ****     /* no transfer ongoing */
 429:Drivers/STM32F3xx_HAL_Driver/Src/stm32f3xx_hal_dma.c ****     hdma->ErrorCode = HAL_DMA_ERROR_NO_XFER;
 629              		.loc 1 429 0
 630 0016 7B68     		ldr	r3, [r7, #4]
 631 0018 0422     		movs	r2, #4
 632 001a 9A63     		str	r2, [r3, #56]
 430:Drivers/STM32F3xx_HAL_Driver/Src/stm32f3xx_hal_dma.c ****         
 431:Drivers/STM32F3xx_HAL_Driver/Src/stm32f3xx_hal_dma.c ****     status = HAL_ERROR;
 633              		.loc 1 431 0
 634 001c 0123     		movs	r3, #1
 635 001e FB73     		strb	r3, [r7, #15]
 636 0020 27E0     		b	.L24
 637              	.L23:
 432:Drivers/STM32F3xx_HAL_Driver/Src/stm32f3xx_hal_dma.c ****   }
 433:Drivers/STM32F3xx_HAL_Driver/Src/stm32f3xx_hal_dma.c ****   else
 434:Drivers/STM32F3xx_HAL_Driver/Src/stm32f3xx_hal_dma.c ****   { 
 435:Drivers/STM32F3xx_HAL_Driver/Src/stm32f3xx_hal_dma.c ****   
 436:Drivers/STM32F3xx_HAL_Driver/Src/stm32f3xx_hal_dma.c ****     /* Disable DMA IT */
 437:Drivers/STM32F3xx_HAL_Driver/Src/stm32f3xx_hal_dma.c ****     hdma->Instance->CCR &= ~(DMA_IT_TC | DMA_IT_HT | DMA_IT_TE);
 638              		.loc 1 437 0
 639 0022 7B68     		ldr	r3, [r7, #4]
 640 0024 1B68     		ldr	r3, [r3]
 641 0026 1A68     		ldr	r2, [r3]
 642 0028 7B68     		ldr	r3, [r7, #4]
 643 002a 1B68     		ldr	r3, [r3]
 644 002c 22F00E02 		bic	r2, r2, #14
 645 0030 1A60     		str	r2, [r3]
 438:Drivers/STM32F3xx_HAL_Driver/Src/stm32f3xx_hal_dma.c ****     
 439:Drivers/STM32F3xx_HAL_Driver/Src/stm32f3xx_hal_dma.c ****     /* Disable the channel */
 440:Drivers/STM32F3xx_HAL_Driver/Src/stm32f3xx_hal_dma.c ****     hdma->Instance->CCR &= ~DMA_CCR_EN;
 646              		.loc 1 440 0
 647 0032 7B68     		ldr	r3, [r7, #4]
 648 0034 1B68     		ldr	r3, [r3]
 649 0036 1A68     		ldr	r2, [r3]
 650 0038 7B68     		ldr	r3, [r7, #4]
ARM GAS  /tmp/ccAMRbe4.s 			page 20


 651 003a 1B68     		ldr	r3, [r3]
 652 003c 22F00102 		bic	r2, r2, #1
 653 0040 1A60     		str	r2, [r3]
 441:Drivers/STM32F3xx_HAL_Driver/Src/stm32f3xx_hal_dma.c ****     
 442:Drivers/STM32F3xx_HAL_Driver/Src/stm32f3xx_hal_dma.c ****     /* Clear all flags */
 443:Drivers/STM32F3xx_HAL_Driver/Src/stm32f3xx_hal_dma.c ****     hdma->DmaBaseAddress->IFCR = DMA_FLAG_GL1 << hdma->ChannelIndex;
 654              		.loc 1 443 0
 655 0042 7B68     		ldr	r3, [r7, #4]
 656 0044 1A6C     		ldr	r2, [r3, #64]
 657 0046 7B68     		ldr	r3, [r7, #4]
 658 0048 DB6B     		ldr	r3, [r3, #60]
 659 004a 0121     		movs	r1, #1
 660 004c 01FA02F2 		lsl	r2, r1, r2
 661 0050 5A60     		str	r2, [r3, #4]
 444:Drivers/STM32F3xx_HAL_Driver/Src/stm32f3xx_hal_dma.c ****     
 445:Drivers/STM32F3xx_HAL_Driver/Src/stm32f3xx_hal_dma.c ****     /* Change the DMA state */
 446:Drivers/STM32F3xx_HAL_Driver/Src/stm32f3xx_hal_dma.c ****     hdma->State = HAL_DMA_STATE_READY;
 662              		.loc 1 446 0
 663 0052 7B68     		ldr	r3, [r7, #4]
 664 0054 0122     		movs	r2, #1
 665 0056 83F82120 		strb	r2, [r3, #33]
 447:Drivers/STM32F3xx_HAL_Driver/Src/stm32f3xx_hal_dma.c ****     
 448:Drivers/STM32F3xx_HAL_Driver/Src/stm32f3xx_hal_dma.c ****     /* Process Unlocked */
 449:Drivers/STM32F3xx_HAL_Driver/Src/stm32f3xx_hal_dma.c ****     __HAL_UNLOCK(hdma);
 666              		.loc 1 449 0
 667 005a 7B68     		ldr	r3, [r7, #4]
 668 005c 0022     		movs	r2, #0
 669 005e 83F82020 		strb	r2, [r3, #32]
 450:Drivers/STM32F3xx_HAL_Driver/Src/stm32f3xx_hal_dma.c ****     
 451:Drivers/STM32F3xx_HAL_Driver/Src/stm32f3xx_hal_dma.c ****     /* Call User Abort callback */ 
 452:Drivers/STM32F3xx_HAL_Driver/Src/stm32f3xx_hal_dma.c ****     if(hdma->XferAbortCallback != NULL)
 670              		.loc 1 452 0
 671 0062 7B68     		ldr	r3, [r7, #4]
 672 0064 5B6B     		ldr	r3, [r3, #52]
 673 0066 002B     		cmp	r3, #0
 674 0068 03D0     		beq	.L24
 453:Drivers/STM32F3xx_HAL_Driver/Src/stm32f3xx_hal_dma.c ****     {
 454:Drivers/STM32F3xx_HAL_Driver/Src/stm32f3xx_hal_dma.c ****       hdma->XferAbortCallback(hdma);
 675              		.loc 1 454 0
 676 006a 7B68     		ldr	r3, [r7, #4]
 677 006c 5B6B     		ldr	r3, [r3, #52]
 678 006e 7868     		ldr	r0, [r7, #4]
 679 0070 9847     		blx	r3
 680              	.LVL0:
 681              	.L24:
 455:Drivers/STM32F3xx_HAL_Driver/Src/stm32f3xx_hal_dma.c ****     } 
 456:Drivers/STM32F3xx_HAL_Driver/Src/stm32f3xx_hal_dma.c ****   }
 457:Drivers/STM32F3xx_HAL_Driver/Src/stm32f3xx_hal_dma.c ****   return status;
 682              		.loc 1 457 0
 683 0072 FB7B     		ldrb	r3, [r7, #15]	@ zero_extendqisi2
 458:Drivers/STM32F3xx_HAL_Driver/Src/stm32f3xx_hal_dma.c **** }
 684              		.loc 1 458 0
 685 0074 1846     		mov	r0, r3
 686 0076 1037     		adds	r7, r7, #16
 687              	.LCFI29:
 688              		.cfi_def_cfa_offset 8
 689 0078 BD46     		mov	sp, r7
ARM GAS  /tmp/ccAMRbe4.s 			page 21


 690              	.LCFI30:
 691              		.cfi_def_cfa_register 13
 692              		@ sp needed
 693 007a 80BD     		pop	{r7, pc}
 694              		.cfi_endproc
 695              	.LFE128:
 697              		.section	.text.HAL_DMA_PollForTransfer,"ax",%progbits
 698              		.align	1
 699              		.global	HAL_DMA_PollForTransfer
 700              		.syntax unified
 701              		.thumb
 702              		.thumb_func
 703              		.fpu fpv4-sp-d16
 705              	HAL_DMA_PollForTransfer:
 706              	.LFB129:
 459:Drivers/STM32F3xx_HAL_Driver/Src/stm32f3xx_hal_dma.c **** 
 460:Drivers/STM32F3xx_HAL_Driver/Src/stm32f3xx_hal_dma.c **** /**
 461:Drivers/STM32F3xx_HAL_Driver/Src/stm32f3xx_hal_dma.c ****   * @brief  Polling for transfer complete.
 462:Drivers/STM32F3xx_HAL_Driver/Src/stm32f3xx_hal_dma.c ****   * @param  hdma    pointer to a DMA_HandleTypeDef structure that contains
 463:Drivers/STM32F3xx_HAL_Driver/Src/stm32f3xx_hal_dma.c ****   *                  the configuration information for the specified DMA Channel.
 464:Drivers/STM32F3xx_HAL_Driver/Src/stm32f3xx_hal_dma.c ****   * @param  CompleteLevel Specifies the DMA level complete.  
 465:Drivers/STM32F3xx_HAL_Driver/Src/stm32f3xx_hal_dma.c ****   * @param  Timeout       Timeout duration.
 466:Drivers/STM32F3xx_HAL_Driver/Src/stm32f3xx_hal_dma.c ****   * @retval HAL status
 467:Drivers/STM32F3xx_HAL_Driver/Src/stm32f3xx_hal_dma.c ****   */
 468:Drivers/STM32F3xx_HAL_Driver/Src/stm32f3xx_hal_dma.c **** HAL_StatusTypeDef HAL_DMA_PollForTransfer(DMA_HandleTypeDef *hdma, uint32_t CompleteLevel, uint32_t
 469:Drivers/STM32F3xx_HAL_Driver/Src/stm32f3xx_hal_dma.c **** {
 707              		.loc 1 469 0
 708              		.cfi_startproc
 709              		@ args = 0, pretend = 0, frame = 24
 710              		@ frame_needed = 1, uses_anonymous_args = 0
 711 0000 80B5     		push	{r7, lr}
 712              	.LCFI31:
 713              		.cfi_def_cfa_offset 8
 714              		.cfi_offset 7, -8
 715              		.cfi_offset 14, -4
 716 0002 86B0     		sub	sp, sp, #24
 717              	.LCFI32:
 718              		.cfi_def_cfa_offset 32
 719 0004 00AF     		add	r7, sp, #0
 720              	.LCFI33:
 721              		.cfi_def_cfa_register 7
 722 0006 F860     		str	r0, [r7, #12]
 723 0008 B960     		str	r1, [r7, #8]
 724 000a 7A60     		str	r2, [r7, #4]
 470:Drivers/STM32F3xx_HAL_Driver/Src/stm32f3xx_hal_dma.c ****   uint32_t temp;
 471:Drivers/STM32F3xx_HAL_Driver/Src/stm32f3xx_hal_dma.c ****   uint32_t tickstart = 0U;
 725              		.loc 1 471 0
 726 000c 0023     		movs	r3, #0
 727 000e 3B61     		str	r3, [r7, #16]
 472:Drivers/STM32F3xx_HAL_Driver/Src/stm32f3xx_hal_dma.c ****   
 473:Drivers/STM32F3xx_HAL_Driver/Src/stm32f3xx_hal_dma.c ****   if(HAL_DMA_STATE_BUSY != hdma->State)
 728              		.loc 1 473 0
 729 0010 FB68     		ldr	r3, [r7, #12]
 730 0012 93F82130 		ldrb	r3, [r3, #33]	@ zero_extendqisi2
 731 0016 022B     		cmp	r3, #2
 732 0018 08D0     		beq	.L27
 474:Drivers/STM32F3xx_HAL_Driver/Src/stm32f3xx_hal_dma.c ****   {
ARM GAS  /tmp/ccAMRbe4.s 			page 22


 475:Drivers/STM32F3xx_HAL_Driver/Src/stm32f3xx_hal_dma.c ****     /* no transfer ongoing */
 476:Drivers/STM32F3xx_HAL_Driver/Src/stm32f3xx_hal_dma.c ****     hdma->ErrorCode = HAL_DMA_ERROR_NO_XFER;
 733              		.loc 1 476 0
 734 001a FB68     		ldr	r3, [r7, #12]
 735 001c 0422     		movs	r2, #4
 736 001e 9A63     		str	r2, [r3, #56]
 477:Drivers/STM32F3xx_HAL_Driver/Src/stm32f3xx_hal_dma.c ****     __HAL_UNLOCK(hdma);
 737              		.loc 1 477 0
 738 0020 FB68     		ldr	r3, [r7, #12]
 739 0022 0022     		movs	r2, #0
 740 0024 83F82020 		strb	r2, [r3, #32]
 478:Drivers/STM32F3xx_HAL_Driver/Src/stm32f3xx_hal_dma.c ****     return HAL_ERROR;
 741              		.loc 1 478 0
 742 0028 0123     		movs	r3, #1
 743 002a 80E0     		b	.L28
 744              	.L27:
 479:Drivers/STM32F3xx_HAL_Driver/Src/stm32f3xx_hal_dma.c ****   }
 480:Drivers/STM32F3xx_HAL_Driver/Src/stm32f3xx_hal_dma.c ****   
 481:Drivers/STM32F3xx_HAL_Driver/Src/stm32f3xx_hal_dma.c ****   /* Polling mode not supported in circular mode */
 482:Drivers/STM32F3xx_HAL_Driver/Src/stm32f3xx_hal_dma.c ****   if (RESET != (hdma->Instance->CCR & DMA_CCR_CIRC))
 745              		.loc 1 482 0
 746 002c FB68     		ldr	r3, [r7, #12]
 747 002e 1B68     		ldr	r3, [r3]
 748 0030 1B68     		ldr	r3, [r3]
 749 0032 03F02003 		and	r3, r3, #32
 750 0036 002B     		cmp	r3, #0
 751 0038 05D0     		beq	.L29
 483:Drivers/STM32F3xx_HAL_Driver/Src/stm32f3xx_hal_dma.c ****   {
 484:Drivers/STM32F3xx_HAL_Driver/Src/stm32f3xx_hal_dma.c ****     hdma->ErrorCode = HAL_DMA_ERROR_NOT_SUPPORTED;
 752              		.loc 1 484 0
 753 003a FB68     		ldr	r3, [r7, #12]
 754 003c 4FF48072 		mov	r2, #256
 755 0040 9A63     		str	r2, [r3, #56]
 485:Drivers/STM32F3xx_HAL_Driver/Src/stm32f3xx_hal_dma.c ****     return HAL_ERROR;
 756              		.loc 1 485 0
 757 0042 0123     		movs	r3, #1
 758 0044 73E0     		b	.L28
 759              	.L29:
 486:Drivers/STM32F3xx_HAL_Driver/Src/stm32f3xx_hal_dma.c ****   }
 487:Drivers/STM32F3xx_HAL_Driver/Src/stm32f3xx_hal_dma.c ****   
 488:Drivers/STM32F3xx_HAL_Driver/Src/stm32f3xx_hal_dma.c ****   /* Get the level transfer complete flag */
 489:Drivers/STM32F3xx_HAL_Driver/Src/stm32f3xx_hal_dma.c ****   if(HAL_DMA_FULL_TRANSFER == CompleteLevel)
 760              		.loc 1 489 0
 761 0046 BB68     		ldr	r3, [r7, #8]
 762 0048 002B     		cmp	r3, #0
 763 004a 06D1     		bne	.L30
 490:Drivers/STM32F3xx_HAL_Driver/Src/stm32f3xx_hal_dma.c ****   {
 491:Drivers/STM32F3xx_HAL_Driver/Src/stm32f3xx_hal_dma.c ****     /* Transfer Complete flag */
 492:Drivers/STM32F3xx_HAL_Driver/Src/stm32f3xx_hal_dma.c ****     temp = DMA_FLAG_TC1 << hdma->ChannelIndex;
 764              		.loc 1 492 0
 765 004c FB68     		ldr	r3, [r7, #12]
 766 004e 1B6C     		ldr	r3, [r3, #64]
 767 0050 0222     		movs	r2, #2
 768 0052 02FA03F3 		lsl	r3, r2, r3
 769 0056 7B61     		str	r3, [r7, #20]
 770 0058 05E0     		b	.L31
 771              	.L30:
ARM GAS  /tmp/ccAMRbe4.s 			page 23


 493:Drivers/STM32F3xx_HAL_Driver/Src/stm32f3xx_hal_dma.c ****   }
 494:Drivers/STM32F3xx_HAL_Driver/Src/stm32f3xx_hal_dma.c ****   else
 495:Drivers/STM32F3xx_HAL_Driver/Src/stm32f3xx_hal_dma.c ****   {
 496:Drivers/STM32F3xx_HAL_Driver/Src/stm32f3xx_hal_dma.c ****     /* Half Transfer Complete flag */
 497:Drivers/STM32F3xx_HAL_Driver/Src/stm32f3xx_hal_dma.c ****     temp = DMA_FLAG_HT1 << hdma->ChannelIndex;
 772              		.loc 1 497 0
 773 005a FB68     		ldr	r3, [r7, #12]
 774 005c 1B6C     		ldr	r3, [r3, #64]
 775 005e 0422     		movs	r2, #4
 776 0060 02FA03F3 		lsl	r3, r2, r3
 777 0064 7B61     		str	r3, [r7, #20]
 778              	.L31:
 498:Drivers/STM32F3xx_HAL_Driver/Src/stm32f3xx_hal_dma.c ****   }
 499:Drivers/STM32F3xx_HAL_Driver/Src/stm32f3xx_hal_dma.c **** 
 500:Drivers/STM32F3xx_HAL_Driver/Src/stm32f3xx_hal_dma.c ****   /* Get tick */
 501:Drivers/STM32F3xx_HAL_Driver/Src/stm32f3xx_hal_dma.c ****   tickstart = HAL_GetTick();
 779              		.loc 1 501 0
 780 0066 FFF7FEFF 		bl	HAL_GetTick
 781 006a 3861     		str	r0, [r7, #16]
 502:Drivers/STM32F3xx_HAL_Driver/Src/stm32f3xx_hal_dma.c **** 
 503:Drivers/STM32F3xx_HAL_Driver/Src/stm32f3xx_hal_dma.c ****   while(RESET == (hdma->DmaBaseAddress->ISR & temp))
 782              		.loc 1 503 0
 783 006c 3BE0     		b	.L32
 784              	.L35:
 504:Drivers/STM32F3xx_HAL_Driver/Src/stm32f3xx_hal_dma.c ****   {
 505:Drivers/STM32F3xx_HAL_Driver/Src/stm32f3xx_hal_dma.c ****     if(RESET != (hdma->DmaBaseAddress->ISR & (DMA_FLAG_TE1 << hdma->ChannelIndex)))
 785              		.loc 1 505 0
 786 006e FB68     		ldr	r3, [r7, #12]
 787 0070 DB6B     		ldr	r3, [r3, #60]
 788 0072 1A68     		ldr	r2, [r3]
 789 0074 FB68     		ldr	r3, [r7, #12]
 790 0076 1B6C     		ldr	r3, [r3, #64]
 791 0078 0821     		movs	r1, #8
 792 007a 01FA03F3 		lsl	r3, r1, r3
 793 007e 1340     		ands	r3, r3, r2
 794 0080 002B     		cmp	r3, #0
 795 0082 14D0     		beq	.L33
 506:Drivers/STM32F3xx_HAL_Driver/Src/stm32f3xx_hal_dma.c ****     {      
 507:Drivers/STM32F3xx_HAL_Driver/Src/stm32f3xx_hal_dma.c ****       /* When a DMA transfer error occurs */
 508:Drivers/STM32F3xx_HAL_Driver/Src/stm32f3xx_hal_dma.c ****       /* A hardware clear of its EN bits is performed */
 509:Drivers/STM32F3xx_HAL_Driver/Src/stm32f3xx_hal_dma.c ****       /* Clear all flags */
 510:Drivers/STM32F3xx_HAL_Driver/Src/stm32f3xx_hal_dma.c ****       hdma->DmaBaseAddress->IFCR = DMA_FLAG_GL1 << hdma->ChannelIndex;
 796              		.loc 1 510 0
 797 0084 FB68     		ldr	r3, [r7, #12]
 798 0086 1A6C     		ldr	r2, [r3, #64]
 799 0088 FB68     		ldr	r3, [r7, #12]
 800 008a DB6B     		ldr	r3, [r3, #60]
 801 008c 0121     		movs	r1, #1
 802 008e 01FA02F2 		lsl	r2, r1, r2
 803 0092 5A60     		str	r2, [r3, #4]
 511:Drivers/STM32F3xx_HAL_Driver/Src/stm32f3xx_hal_dma.c ****       
 512:Drivers/STM32F3xx_HAL_Driver/Src/stm32f3xx_hal_dma.c ****       /* Update error code */
 513:Drivers/STM32F3xx_HAL_Driver/Src/stm32f3xx_hal_dma.c ****       hdma->ErrorCode = HAL_DMA_ERROR_TE;
 804              		.loc 1 513 0
 805 0094 FB68     		ldr	r3, [r7, #12]
 806 0096 0122     		movs	r2, #1
 807 0098 9A63     		str	r2, [r3, #56]
ARM GAS  /tmp/ccAMRbe4.s 			page 24


 514:Drivers/STM32F3xx_HAL_Driver/Src/stm32f3xx_hal_dma.c **** 
 515:Drivers/STM32F3xx_HAL_Driver/Src/stm32f3xx_hal_dma.c ****       /* Change the DMA state */
 516:Drivers/STM32F3xx_HAL_Driver/Src/stm32f3xx_hal_dma.c ****       hdma->State= HAL_DMA_STATE_READY;       
 808              		.loc 1 516 0
 809 009a FB68     		ldr	r3, [r7, #12]
 810 009c 0122     		movs	r2, #1
 811 009e 83F82120 		strb	r2, [r3, #33]
 517:Drivers/STM32F3xx_HAL_Driver/Src/stm32f3xx_hal_dma.c ****       
 518:Drivers/STM32F3xx_HAL_Driver/Src/stm32f3xx_hal_dma.c ****       /* Process Unlocked */
 519:Drivers/STM32F3xx_HAL_Driver/Src/stm32f3xx_hal_dma.c ****       __HAL_UNLOCK(hdma);
 812              		.loc 1 519 0
 813 00a2 FB68     		ldr	r3, [r7, #12]
 814 00a4 0022     		movs	r2, #0
 815 00a6 83F82020 		strb	r2, [r3, #32]
 520:Drivers/STM32F3xx_HAL_Driver/Src/stm32f3xx_hal_dma.c ****       
 521:Drivers/STM32F3xx_HAL_Driver/Src/stm32f3xx_hal_dma.c ****       return HAL_ERROR;      
 816              		.loc 1 521 0
 817 00aa 0123     		movs	r3, #1
 818 00ac 3FE0     		b	.L28
 819              	.L33:
 522:Drivers/STM32F3xx_HAL_Driver/Src/stm32f3xx_hal_dma.c ****     }      
 523:Drivers/STM32F3xx_HAL_Driver/Src/stm32f3xx_hal_dma.c ****     /* Check for the Timeout */
 524:Drivers/STM32F3xx_HAL_Driver/Src/stm32f3xx_hal_dma.c ****     if(Timeout != HAL_MAX_DELAY)
 820              		.loc 1 524 0
 821 00ae 7B68     		ldr	r3, [r7, #4]
 822 00b0 B3F1FF3F 		cmp	r3, #-1
 823 00b4 17D0     		beq	.L32
 525:Drivers/STM32F3xx_HAL_Driver/Src/stm32f3xx_hal_dma.c ****     {
 526:Drivers/STM32F3xx_HAL_Driver/Src/stm32f3xx_hal_dma.c ****       if((Timeout == 0U) || ((HAL_GetTick() - tickstart) > Timeout))
 824              		.loc 1 526 0
 825 00b6 7B68     		ldr	r3, [r7, #4]
 826 00b8 002B     		cmp	r3, #0
 827 00ba 07D0     		beq	.L34
 828              		.loc 1 526 0 is_stmt 0 discriminator 1
 829 00bc FFF7FEFF 		bl	HAL_GetTick
 830 00c0 0246     		mov	r2, r0
 831 00c2 3B69     		ldr	r3, [r7, #16]
 832 00c4 D31A     		subs	r3, r2, r3
 833 00c6 7A68     		ldr	r2, [r7, #4]
 834 00c8 9A42     		cmp	r2, r3
 835 00ca 0CD2     		bcs	.L32
 836              	.L34:
 527:Drivers/STM32F3xx_HAL_Driver/Src/stm32f3xx_hal_dma.c ****       {
 528:Drivers/STM32F3xx_HAL_Driver/Src/stm32f3xx_hal_dma.c ****         /* Update error code */
 529:Drivers/STM32F3xx_HAL_Driver/Src/stm32f3xx_hal_dma.c ****         hdma->ErrorCode = HAL_DMA_ERROR_TIMEOUT;
 837              		.loc 1 529 0 is_stmt 1
 838 00cc FB68     		ldr	r3, [r7, #12]
 839 00ce 2022     		movs	r2, #32
 840 00d0 9A63     		str	r2, [r3, #56]
 530:Drivers/STM32F3xx_HAL_Driver/Src/stm32f3xx_hal_dma.c ****         
 531:Drivers/STM32F3xx_HAL_Driver/Src/stm32f3xx_hal_dma.c ****         /* Change the DMA state */
 532:Drivers/STM32F3xx_HAL_Driver/Src/stm32f3xx_hal_dma.c ****         hdma->State = HAL_DMA_STATE_READY;
 841              		.loc 1 532 0
 842 00d2 FB68     		ldr	r3, [r7, #12]
 843 00d4 0122     		movs	r2, #1
 844 00d6 83F82120 		strb	r2, [r3, #33]
 533:Drivers/STM32F3xx_HAL_Driver/Src/stm32f3xx_hal_dma.c **** 
ARM GAS  /tmp/ccAMRbe4.s 			page 25


 534:Drivers/STM32F3xx_HAL_Driver/Src/stm32f3xx_hal_dma.c ****         /* Process Unlocked */
 535:Drivers/STM32F3xx_HAL_Driver/Src/stm32f3xx_hal_dma.c ****         __HAL_UNLOCK(hdma);
 845              		.loc 1 535 0
 846 00da FB68     		ldr	r3, [r7, #12]
 847 00dc 0022     		movs	r2, #0
 848 00de 83F82020 		strb	r2, [r3, #32]
 536:Drivers/STM32F3xx_HAL_Driver/Src/stm32f3xx_hal_dma.c **** 
 537:Drivers/STM32F3xx_HAL_Driver/Src/stm32f3xx_hal_dma.c ****         return HAL_ERROR;
 849              		.loc 1 537 0
 850 00e2 0123     		movs	r3, #1
 851 00e4 23E0     		b	.L28
 852              	.L32:
 503:Drivers/STM32F3xx_HAL_Driver/Src/stm32f3xx_hal_dma.c ****   {
 853              		.loc 1 503 0
 854 00e6 FB68     		ldr	r3, [r7, #12]
 855 00e8 DB6B     		ldr	r3, [r3, #60]
 856 00ea 1A68     		ldr	r2, [r3]
 857 00ec 7B69     		ldr	r3, [r7, #20]
 858 00ee 1340     		ands	r3, r3, r2
 859 00f0 002B     		cmp	r3, #0
 860 00f2 BCD0     		beq	.L35
 538:Drivers/STM32F3xx_HAL_Driver/Src/stm32f3xx_hal_dma.c ****       }
 539:Drivers/STM32F3xx_HAL_Driver/Src/stm32f3xx_hal_dma.c ****     }
 540:Drivers/STM32F3xx_HAL_Driver/Src/stm32f3xx_hal_dma.c ****   }
 541:Drivers/STM32F3xx_HAL_Driver/Src/stm32f3xx_hal_dma.c **** 
 542:Drivers/STM32F3xx_HAL_Driver/Src/stm32f3xx_hal_dma.c ****   if(HAL_DMA_FULL_TRANSFER == CompleteLevel)
 861              		.loc 1 542 0
 862 00f4 BB68     		ldr	r3, [r7, #8]
 863 00f6 002B     		cmp	r3, #0
 864 00f8 0CD1     		bne	.L36
 543:Drivers/STM32F3xx_HAL_Driver/Src/stm32f3xx_hal_dma.c ****   {
 544:Drivers/STM32F3xx_HAL_Driver/Src/stm32f3xx_hal_dma.c ****     /* Clear the transfer complete flag */
 545:Drivers/STM32F3xx_HAL_Driver/Src/stm32f3xx_hal_dma.c ****     hdma->DmaBaseAddress->IFCR = DMA_FLAG_TC1 << hdma->ChannelIndex;
 865              		.loc 1 545 0
 866 00fa FB68     		ldr	r3, [r7, #12]
 867 00fc 1A6C     		ldr	r2, [r3, #64]
 868 00fe FB68     		ldr	r3, [r7, #12]
 869 0100 DB6B     		ldr	r3, [r3, #60]
 870 0102 0221     		movs	r1, #2
 871 0104 01FA02F2 		lsl	r2, r1, r2
 872 0108 5A60     		str	r2, [r3, #4]
 546:Drivers/STM32F3xx_HAL_Driver/Src/stm32f3xx_hal_dma.c **** 
 547:Drivers/STM32F3xx_HAL_Driver/Src/stm32f3xx_hal_dma.c ****     /* The selected Channelx EN bit is cleared (DMA is disabled and 
 548:Drivers/STM32F3xx_HAL_Driver/Src/stm32f3xx_hal_dma.c ****     all transfers are complete) */
 549:Drivers/STM32F3xx_HAL_Driver/Src/stm32f3xx_hal_dma.c ****     hdma->State = HAL_DMA_STATE_READY;
 873              		.loc 1 549 0
 874 010a FB68     		ldr	r3, [r7, #12]
 875 010c 0122     		movs	r2, #1
 876 010e 83F82120 		strb	r2, [r3, #33]
 877 0112 07E0     		b	.L37
 878              	.L36:
 550:Drivers/STM32F3xx_HAL_Driver/Src/stm32f3xx_hal_dma.c ****   }
 551:Drivers/STM32F3xx_HAL_Driver/Src/stm32f3xx_hal_dma.c ****   else
 552:Drivers/STM32F3xx_HAL_Driver/Src/stm32f3xx_hal_dma.c ****   { 
 553:Drivers/STM32F3xx_HAL_Driver/Src/stm32f3xx_hal_dma.c ****     /* Clear the half transfer complete flag */
 554:Drivers/STM32F3xx_HAL_Driver/Src/stm32f3xx_hal_dma.c ****     hdma->DmaBaseAddress->IFCR = DMA_FLAG_HT1 << hdma->ChannelIndex;
 879              		.loc 1 554 0
ARM GAS  /tmp/ccAMRbe4.s 			page 26


 880 0114 FB68     		ldr	r3, [r7, #12]
 881 0116 1A6C     		ldr	r2, [r3, #64]
 882 0118 FB68     		ldr	r3, [r7, #12]
 883 011a DB6B     		ldr	r3, [r3, #60]
 884 011c 0421     		movs	r1, #4
 885 011e 01FA02F2 		lsl	r2, r1, r2
 886 0122 5A60     		str	r2, [r3, #4]
 887              	.L37:
 555:Drivers/STM32F3xx_HAL_Driver/Src/stm32f3xx_hal_dma.c ****   }
 556:Drivers/STM32F3xx_HAL_Driver/Src/stm32f3xx_hal_dma.c ****   
 557:Drivers/STM32F3xx_HAL_Driver/Src/stm32f3xx_hal_dma.c ****   /* Process unlocked */
 558:Drivers/STM32F3xx_HAL_Driver/Src/stm32f3xx_hal_dma.c ****   __HAL_UNLOCK(hdma);  
 888              		.loc 1 558 0
 889 0124 FB68     		ldr	r3, [r7, #12]
 890 0126 0022     		movs	r2, #0
 891 0128 83F82020 		strb	r2, [r3, #32]
 559:Drivers/STM32F3xx_HAL_Driver/Src/stm32f3xx_hal_dma.c **** 
 560:Drivers/STM32F3xx_HAL_Driver/Src/stm32f3xx_hal_dma.c ****   return HAL_OK;
 892              		.loc 1 560 0
 893 012c 0023     		movs	r3, #0
 894              	.L28:
 561:Drivers/STM32F3xx_HAL_Driver/Src/stm32f3xx_hal_dma.c **** }
 895              		.loc 1 561 0
 896 012e 1846     		mov	r0, r3
 897 0130 1837     		adds	r7, r7, #24
 898              	.LCFI34:
 899              		.cfi_def_cfa_offset 8
 900 0132 BD46     		mov	sp, r7
 901              	.LCFI35:
 902              		.cfi_def_cfa_register 13
 903              		@ sp needed
 904 0134 80BD     		pop	{r7, pc}
 905              		.cfi_endproc
 906              	.LFE129:
 908              		.section	.text.HAL_DMA_IRQHandler,"ax",%progbits
 909              		.align	1
 910              		.global	HAL_DMA_IRQHandler
 911              		.syntax unified
 912              		.thumb
 913              		.thumb_func
 914              		.fpu fpv4-sp-d16
 916              	HAL_DMA_IRQHandler:
 917              	.LFB130:
 562:Drivers/STM32F3xx_HAL_Driver/Src/stm32f3xx_hal_dma.c **** 
 563:Drivers/STM32F3xx_HAL_Driver/Src/stm32f3xx_hal_dma.c **** /**
 564:Drivers/STM32F3xx_HAL_Driver/Src/stm32f3xx_hal_dma.c ****   * @brief  Handle DMA interrupt request.
 565:Drivers/STM32F3xx_HAL_Driver/Src/stm32f3xx_hal_dma.c ****   * @param  hdma pointer to a DMA_HandleTypeDef structure that contains
 566:Drivers/STM32F3xx_HAL_Driver/Src/stm32f3xx_hal_dma.c ****   *               the configuration information for the specified DMA Channel.  
 567:Drivers/STM32F3xx_HAL_Driver/Src/stm32f3xx_hal_dma.c ****   * @retval None
 568:Drivers/STM32F3xx_HAL_Driver/Src/stm32f3xx_hal_dma.c ****   */
 569:Drivers/STM32F3xx_HAL_Driver/Src/stm32f3xx_hal_dma.c **** void HAL_DMA_IRQHandler(DMA_HandleTypeDef *hdma)
 570:Drivers/STM32F3xx_HAL_Driver/Src/stm32f3xx_hal_dma.c **** {
 918              		.loc 1 570 0
 919              		.cfi_startproc
 920              		@ args = 0, pretend = 0, frame = 16
 921              		@ frame_needed = 1, uses_anonymous_args = 0
 922 0000 80B5     		push	{r7, lr}
ARM GAS  /tmp/ccAMRbe4.s 			page 27


 923              	.LCFI36:
 924              		.cfi_def_cfa_offset 8
 925              		.cfi_offset 7, -8
 926              		.cfi_offset 14, -4
 927 0002 84B0     		sub	sp, sp, #16
 928              	.LCFI37:
 929              		.cfi_def_cfa_offset 24
 930 0004 00AF     		add	r7, sp, #0
 931              	.LCFI38:
 932              		.cfi_def_cfa_register 7
 933 0006 7860     		str	r0, [r7, #4]
 571:Drivers/STM32F3xx_HAL_Driver/Src/stm32f3xx_hal_dma.c **** 	uint32_t flag_it = hdma->DmaBaseAddress->ISR;
 934              		.loc 1 571 0
 935 0008 7B68     		ldr	r3, [r7, #4]
 936 000a DB6B     		ldr	r3, [r3, #60]
 937 000c 1B68     		ldr	r3, [r3]
 938 000e FB60     		str	r3, [r7, #12]
 572:Drivers/STM32F3xx_HAL_Driver/Src/stm32f3xx_hal_dma.c ****   uint32_t source_it = hdma->Instance->CCR;
 939              		.loc 1 572 0
 940 0010 7B68     		ldr	r3, [r7, #4]
 941 0012 1B68     		ldr	r3, [r3]
 942 0014 1B68     		ldr	r3, [r3]
 943 0016 BB60     		str	r3, [r7, #8]
 573:Drivers/STM32F3xx_HAL_Driver/Src/stm32f3xx_hal_dma.c ****           
 574:Drivers/STM32F3xx_HAL_Driver/Src/stm32f3xx_hal_dma.c ****   /* Half Transfer Complete Interrupt management ******************************/
 575:Drivers/STM32F3xx_HAL_Driver/Src/stm32f3xx_hal_dma.c ****   if ((RESET != (flag_it & (DMA_FLAG_HT1 << hdma->ChannelIndex))) && (RESET != (source_it & DMA_IT_
 944              		.loc 1 575 0
 945 0018 7B68     		ldr	r3, [r7, #4]
 946 001a 1B6C     		ldr	r3, [r3, #64]
 947 001c 0422     		movs	r2, #4
 948 001e 9A40     		lsls	r2, r2, r3
 949 0020 FB68     		ldr	r3, [r7, #12]
 950 0022 1340     		ands	r3, r3, r2
 951 0024 002B     		cmp	r3, #0
 952 0026 24D0     		beq	.L39
 953              		.loc 1 575 0 is_stmt 0 discriminator 1
 954 0028 BB68     		ldr	r3, [r7, #8]
 955 002a 03F00403 		and	r3, r3, #4
 956 002e 002B     		cmp	r3, #0
 957 0030 1FD0     		beq	.L39
 576:Drivers/STM32F3xx_HAL_Driver/Src/stm32f3xx_hal_dma.c ****   {
 577:Drivers/STM32F3xx_HAL_Driver/Src/stm32f3xx_hal_dma.c ****   	/* Disable the half transfer interrupt if the DMA mode is not CIRCULAR */
 578:Drivers/STM32F3xx_HAL_Driver/Src/stm32f3xx_hal_dma.c ****   	if((hdma->Instance->CCR & DMA_CCR_CIRC) == 0U)
 958              		.loc 1 578 0 is_stmt 1
 959 0032 7B68     		ldr	r3, [r7, #4]
 960 0034 1B68     		ldr	r3, [r3]
 961 0036 1B68     		ldr	r3, [r3]
 962 0038 03F02003 		and	r3, r3, #32
 963 003c 002B     		cmp	r3, #0
 964 003e 07D1     		bne	.L40
 579:Drivers/STM32F3xx_HAL_Driver/Src/stm32f3xx_hal_dma.c ****   	{
 580:Drivers/STM32F3xx_HAL_Driver/Src/stm32f3xx_hal_dma.c ****   		/* Disable the half transfer interrupt */
 581:Drivers/STM32F3xx_HAL_Driver/Src/stm32f3xx_hal_dma.c ****   		hdma->Instance->CCR &= ~DMA_IT_HT;
 965              		.loc 1 581 0
 966 0040 7B68     		ldr	r3, [r7, #4]
 967 0042 1B68     		ldr	r3, [r3]
 968 0044 1A68     		ldr	r2, [r3]
ARM GAS  /tmp/ccAMRbe4.s 			page 28


 969 0046 7B68     		ldr	r3, [r7, #4]
 970 0048 1B68     		ldr	r3, [r3]
 971 004a 22F00402 		bic	r2, r2, #4
 972 004e 1A60     		str	r2, [r3]
 973              	.L40:
 582:Drivers/STM32F3xx_HAL_Driver/Src/stm32f3xx_hal_dma.c ****   	}
 583:Drivers/STM32F3xx_HAL_Driver/Src/stm32f3xx_hal_dma.c ****   	
 584:Drivers/STM32F3xx_HAL_Driver/Src/stm32f3xx_hal_dma.c ****   	/* Clear the half transfer complete flag */
 585:Drivers/STM32F3xx_HAL_Driver/Src/stm32f3xx_hal_dma.c ****   	hdma->DmaBaseAddress->IFCR = DMA_FLAG_HT1 << hdma->ChannelIndex;
 974              		.loc 1 585 0
 975 0050 7B68     		ldr	r3, [r7, #4]
 976 0052 1A6C     		ldr	r2, [r3, #64]
 977 0054 7B68     		ldr	r3, [r7, #4]
 978 0056 DB6B     		ldr	r3, [r3, #60]
 979 0058 0421     		movs	r1, #4
 980 005a 01FA02F2 		lsl	r2, r1, r2
 981 005e 5A60     		str	r2, [r3, #4]
 586:Drivers/STM32F3xx_HAL_Driver/Src/stm32f3xx_hal_dma.c ****   	
 587:Drivers/STM32F3xx_HAL_Driver/Src/stm32f3xx_hal_dma.c ****   	/* DMA peripheral state is not updated in Half Transfer */
 588:Drivers/STM32F3xx_HAL_Driver/Src/stm32f3xx_hal_dma.c ****   	/* State is updated only in Transfer Complete case */
 589:Drivers/STM32F3xx_HAL_Driver/Src/stm32f3xx_hal_dma.c ****   	
 590:Drivers/STM32F3xx_HAL_Driver/Src/stm32f3xx_hal_dma.c ****   	if(hdma->XferHalfCpltCallback != NULL)
 982              		.loc 1 590 0
 983 0060 7B68     		ldr	r3, [r7, #4]
 984 0062 DB6A     		ldr	r3, [r3, #44]
 985 0064 002B     		cmp	r3, #0
 986 0066 6AD0     		beq	.L42
 591:Drivers/STM32F3xx_HAL_Driver/Src/stm32f3xx_hal_dma.c ****   	{
 592:Drivers/STM32F3xx_HAL_Driver/Src/stm32f3xx_hal_dma.c ****   		/* Half transfer callback */
 593:Drivers/STM32F3xx_HAL_Driver/Src/stm32f3xx_hal_dma.c ****   		hdma->XferHalfCpltCallback(hdma);
 987              		.loc 1 593 0
 988 0068 7B68     		ldr	r3, [r7, #4]
 989 006a DB6A     		ldr	r3, [r3, #44]
 990 006c 7868     		ldr	r0, [r7, #4]
 991 006e 9847     		blx	r3
 992              	.LVL1:
 590:Drivers/STM32F3xx_HAL_Driver/Src/stm32f3xx_hal_dma.c ****   	{
 993              		.loc 1 590 0
 994 0070 65E0     		b	.L42
 995              	.L39:
 594:Drivers/STM32F3xx_HAL_Driver/Src/stm32f3xx_hal_dma.c ****   	}
 595:Drivers/STM32F3xx_HAL_Driver/Src/stm32f3xx_hal_dma.c ****   }
 596:Drivers/STM32F3xx_HAL_Driver/Src/stm32f3xx_hal_dma.c ****   
 597:Drivers/STM32F3xx_HAL_Driver/Src/stm32f3xx_hal_dma.c ****   /* Transfer Complete Interrupt management ***********************************/
 598:Drivers/STM32F3xx_HAL_Driver/Src/stm32f3xx_hal_dma.c ****   else if ((RESET != (flag_it & (DMA_FLAG_TC1 << hdma->ChannelIndex))) && (RESET != (source_it & DM
 996              		.loc 1 598 0
 997 0072 7B68     		ldr	r3, [r7, #4]
 998 0074 1B6C     		ldr	r3, [r3, #64]
 999 0076 0222     		movs	r2, #2
 1000 0078 9A40     		lsls	r2, r2, r3
 1001 007a FB68     		ldr	r3, [r7, #12]
 1002 007c 1340     		ands	r3, r3, r2
 1003 007e 002B     		cmp	r3, #0
 1004 0080 2CD0     		beq	.L43
 1005              		.loc 1 598 0 is_stmt 0 discriminator 1
 1006 0082 BB68     		ldr	r3, [r7, #8]
 1007 0084 03F00203 		and	r3, r3, #2
ARM GAS  /tmp/ccAMRbe4.s 			page 29


 1008 0088 002B     		cmp	r3, #0
 1009 008a 27D0     		beq	.L43
 599:Drivers/STM32F3xx_HAL_Driver/Src/stm32f3xx_hal_dma.c ****   {
 600:Drivers/STM32F3xx_HAL_Driver/Src/stm32f3xx_hal_dma.c ****   	if((hdma->Instance->CCR & DMA_CCR_CIRC) == 0U)
 1010              		.loc 1 600 0 is_stmt 1
 1011 008c 7B68     		ldr	r3, [r7, #4]
 1012 008e 1B68     		ldr	r3, [r3]
 1013 0090 1B68     		ldr	r3, [r3]
 1014 0092 03F02003 		and	r3, r3, #32
 1015 0096 002B     		cmp	r3, #0
 1016 0098 0BD1     		bne	.L44
 601:Drivers/STM32F3xx_HAL_Driver/Src/stm32f3xx_hal_dma.c ****   	{
 602:Drivers/STM32F3xx_HAL_Driver/Src/stm32f3xx_hal_dma.c ****   		/* Disable the transfer complete  & transfer error interrupts */
 603:Drivers/STM32F3xx_HAL_Driver/Src/stm32f3xx_hal_dma.c ****   		/* if the DMA mode is not CIRCULAR */
 604:Drivers/STM32F3xx_HAL_Driver/Src/stm32f3xx_hal_dma.c ****   		hdma->Instance->CCR &= ~(DMA_IT_TC | DMA_IT_TE);
 1017              		.loc 1 604 0
 1018 009a 7B68     		ldr	r3, [r7, #4]
 1019 009c 1B68     		ldr	r3, [r3]
 1020 009e 1A68     		ldr	r2, [r3]
 1021 00a0 7B68     		ldr	r3, [r7, #4]
 1022 00a2 1B68     		ldr	r3, [r3]
 1023 00a4 22F00A02 		bic	r2, r2, #10
 1024 00a8 1A60     		str	r2, [r3]
 605:Drivers/STM32F3xx_HAL_Driver/Src/stm32f3xx_hal_dma.c ****   		
 606:Drivers/STM32F3xx_HAL_Driver/Src/stm32f3xx_hal_dma.c ****   		/* Change the DMA state */
 607:Drivers/STM32F3xx_HAL_Driver/Src/stm32f3xx_hal_dma.c ****   		hdma->State = HAL_DMA_STATE_READY;
 1025              		.loc 1 607 0
 1026 00aa 7B68     		ldr	r3, [r7, #4]
 1027 00ac 0122     		movs	r2, #1
 1028 00ae 83F82120 		strb	r2, [r3, #33]
 1029              	.L44:
 608:Drivers/STM32F3xx_HAL_Driver/Src/stm32f3xx_hal_dma.c ****   	}
 609:Drivers/STM32F3xx_HAL_Driver/Src/stm32f3xx_hal_dma.c ****   	
 610:Drivers/STM32F3xx_HAL_Driver/Src/stm32f3xx_hal_dma.c ****   	/* Clear the transfer complete flag */
 611:Drivers/STM32F3xx_HAL_Driver/Src/stm32f3xx_hal_dma.c ****   	hdma->DmaBaseAddress->IFCR = DMA_FLAG_TC1 << hdma->ChannelIndex;
 1030              		.loc 1 611 0
 1031 00b2 7B68     		ldr	r3, [r7, #4]
 1032 00b4 1A6C     		ldr	r2, [r3, #64]
 1033 00b6 7B68     		ldr	r3, [r7, #4]
 1034 00b8 DB6B     		ldr	r3, [r3, #60]
 1035 00ba 0221     		movs	r1, #2
 1036 00bc 01FA02F2 		lsl	r2, r1, r2
 1037 00c0 5A60     		str	r2, [r3, #4]
 612:Drivers/STM32F3xx_HAL_Driver/Src/stm32f3xx_hal_dma.c ****   	
 613:Drivers/STM32F3xx_HAL_Driver/Src/stm32f3xx_hal_dma.c ****   	/* Process Unlocked */
 614:Drivers/STM32F3xx_HAL_Driver/Src/stm32f3xx_hal_dma.c ****   	__HAL_UNLOCK(hdma);
 1038              		.loc 1 614 0
 1039 00c2 7B68     		ldr	r3, [r7, #4]
 1040 00c4 0022     		movs	r2, #0
 1041 00c6 83F82020 		strb	r2, [r3, #32]
 615:Drivers/STM32F3xx_HAL_Driver/Src/stm32f3xx_hal_dma.c ****   	
 616:Drivers/STM32F3xx_HAL_Driver/Src/stm32f3xx_hal_dma.c ****   	if(hdma->XferCpltCallback != NULL)
 1042              		.loc 1 616 0
 1043 00ca 7B68     		ldr	r3, [r7, #4]
 1044 00cc 9B6A     		ldr	r3, [r3, #40]
 1045 00ce 002B     		cmp	r3, #0
 1046 00d0 35D0     		beq	.L42
ARM GAS  /tmp/ccAMRbe4.s 			page 30


 617:Drivers/STM32F3xx_HAL_Driver/Src/stm32f3xx_hal_dma.c ****   	{
 618:Drivers/STM32F3xx_HAL_Driver/Src/stm32f3xx_hal_dma.c ****   		/* Transfer complete callback */
 619:Drivers/STM32F3xx_HAL_Driver/Src/stm32f3xx_hal_dma.c ****   		hdma->XferCpltCallback(hdma);
 1047              		.loc 1 619 0
 1048 00d2 7B68     		ldr	r3, [r7, #4]
 1049 00d4 9B6A     		ldr	r3, [r3, #40]
 1050 00d6 7868     		ldr	r0, [r7, #4]
 1051 00d8 9847     		blx	r3
 1052              	.LVL2:
 616:Drivers/STM32F3xx_HAL_Driver/Src/stm32f3xx_hal_dma.c ****   	{
 1053              		.loc 1 616 0
 1054 00da 30E0     		b	.L42
 1055              	.L43:
 620:Drivers/STM32F3xx_HAL_Driver/Src/stm32f3xx_hal_dma.c ****   	}
 621:Drivers/STM32F3xx_HAL_Driver/Src/stm32f3xx_hal_dma.c ****   }
 622:Drivers/STM32F3xx_HAL_Driver/Src/stm32f3xx_hal_dma.c ****   
 623:Drivers/STM32F3xx_HAL_Driver/Src/stm32f3xx_hal_dma.c ****   /* Transfer Error Interrupt management ***************************************/
 624:Drivers/STM32F3xx_HAL_Driver/Src/stm32f3xx_hal_dma.c ****   else if (( RESET != (flag_it & (DMA_FLAG_TE1 << hdma->ChannelIndex))) && (RESET != (source_it & D
 1056              		.loc 1 624 0
 1057 00dc 7B68     		ldr	r3, [r7, #4]
 1058 00de 1B6C     		ldr	r3, [r3, #64]
 1059 00e0 0822     		movs	r2, #8
 1060 00e2 9A40     		lsls	r2, r2, r3
 1061 00e4 FB68     		ldr	r3, [r7, #12]
 1062 00e6 1340     		ands	r3, r3, r2
 1063 00e8 002B     		cmp	r3, #0
 1064 00ea 28D0     		beq	.L46
 1065              		.loc 1 624 0 is_stmt 0 discriminator 1
 1066 00ec BB68     		ldr	r3, [r7, #8]
 1067 00ee 03F00803 		and	r3, r3, #8
 1068 00f2 002B     		cmp	r3, #0
 1069 00f4 23D0     		beq	.L46
 625:Drivers/STM32F3xx_HAL_Driver/Src/stm32f3xx_hal_dma.c ****   {
 626:Drivers/STM32F3xx_HAL_Driver/Src/stm32f3xx_hal_dma.c ****   	/* When a DMA transfer error occurs */
 627:Drivers/STM32F3xx_HAL_Driver/Src/stm32f3xx_hal_dma.c ****     /* A hardware clear of its EN bits is performed */
 628:Drivers/STM32F3xx_HAL_Driver/Src/stm32f3xx_hal_dma.c ****     /* Then, disable all DMA interrupts */
 629:Drivers/STM32F3xx_HAL_Driver/Src/stm32f3xx_hal_dma.c ****     hdma->Instance->CCR &= ~(DMA_IT_TC | DMA_IT_HT | DMA_IT_TE);
 1070              		.loc 1 629 0 is_stmt 1
 1071 00f6 7B68     		ldr	r3, [r7, #4]
 1072 00f8 1B68     		ldr	r3, [r3]
 1073 00fa 1A68     		ldr	r2, [r3]
 1074 00fc 7B68     		ldr	r3, [r7, #4]
 1075 00fe 1B68     		ldr	r3, [r3]
 1076 0100 22F00E02 		bic	r2, r2, #14
 1077 0104 1A60     		str	r2, [r3]
 630:Drivers/STM32F3xx_HAL_Driver/Src/stm32f3xx_hal_dma.c ****     
 631:Drivers/STM32F3xx_HAL_Driver/Src/stm32f3xx_hal_dma.c ****     /* Clear all flags */
 632:Drivers/STM32F3xx_HAL_Driver/Src/stm32f3xx_hal_dma.c ****     hdma->DmaBaseAddress->IFCR = DMA_FLAG_GL1 << hdma->ChannelIndex;
 1078              		.loc 1 632 0
 1079 0106 7B68     		ldr	r3, [r7, #4]
 1080 0108 1A6C     		ldr	r2, [r3, #64]
 1081 010a 7B68     		ldr	r3, [r7, #4]
 1082 010c DB6B     		ldr	r3, [r3, #60]
 1083 010e 0121     		movs	r1, #1
 1084 0110 01FA02F2 		lsl	r2, r1, r2
 1085 0114 5A60     		str	r2, [r3, #4]
 633:Drivers/STM32F3xx_HAL_Driver/Src/stm32f3xx_hal_dma.c ****     
ARM GAS  /tmp/ccAMRbe4.s 			page 31


 634:Drivers/STM32F3xx_HAL_Driver/Src/stm32f3xx_hal_dma.c ****     /* Update error code */
 635:Drivers/STM32F3xx_HAL_Driver/Src/stm32f3xx_hal_dma.c ****     hdma->ErrorCode = HAL_DMA_ERROR_TE;
 1086              		.loc 1 635 0
 1087 0116 7B68     		ldr	r3, [r7, #4]
 1088 0118 0122     		movs	r2, #1
 1089 011a 9A63     		str	r2, [r3, #56]
 636:Drivers/STM32F3xx_HAL_Driver/Src/stm32f3xx_hal_dma.c ****     
 637:Drivers/STM32F3xx_HAL_Driver/Src/stm32f3xx_hal_dma.c ****     /* Change the DMA state */
 638:Drivers/STM32F3xx_HAL_Driver/Src/stm32f3xx_hal_dma.c ****     hdma->State = HAL_DMA_STATE_READY;    
 1090              		.loc 1 638 0
 1091 011c 7B68     		ldr	r3, [r7, #4]
 1092 011e 0122     		movs	r2, #1
 1093 0120 83F82120 		strb	r2, [r3, #33]
 639:Drivers/STM32F3xx_HAL_Driver/Src/stm32f3xx_hal_dma.c ****     
 640:Drivers/STM32F3xx_HAL_Driver/Src/stm32f3xx_hal_dma.c ****     /* Process Unlocked */
 641:Drivers/STM32F3xx_HAL_Driver/Src/stm32f3xx_hal_dma.c ****     __HAL_UNLOCK(hdma); 
 1094              		.loc 1 641 0
 1095 0124 7B68     		ldr	r3, [r7, #4]
 1096 0126 0022     		movs	r2, #0
 1097 0128 83F82020 		strb	r2, [r3, #32]
 642:Drivers/STM32F3xx_HAL_Driver/Src/stm32f3xx_hal_dma.c ****     
 643:Drivers/STM32F3xx_HAL_Driver/Src/stm32f3xx_hal_dma.c ****     if(hdma->XferErrorCallback != NULL)
 1098              		.loc 1 643 0
 1099 012c 7B68     		ldr	r3, [r7, #4]
 1100 012e 1B6B     		ldr	r3, [r3, #48]
 1101 0130 002B     		cmp	r3, #0
 1102 0132 04D0     		beq	.L46
 644:Drivers/STM32F3xx_HAL_Driver/Src/stm32f3xx_hal_dma.c ****     {
 645:Drivers/STM32F3xx_HAL_Driver/Src/stm32f3xx_hal_dma.c ****     	/* Transfer error callback */
 646:Drivers/STM32F3xx_HAL_Driver/Src/stm32f3xx_hal_dma.c ****     	hdma->XferErrorCallback(hdma);
 1103              		.loc 1 646 0
 1104 0134 7B68     		ldr	r3, [r7, #4]
 1105 0136 1B6B     		ldr	r3, [r3, #48]
 1106 0138 7868     		ldr	r0, [r7, #4]
 1107 013a 9847     		blx	r3
 1108              	.LVL3:
 647:Drivers/STM32F3xx_HAL_Driver/Src/stm32f3xx_hal_dma.c ****     }
 648:Drivers/STM32F3xx_HAL_Driver/Src/stm32f3xx_hal_dma.c ****   }
 649:Drivers/STM32F3xx_HAL_Driver/Src/stm32f3xx_hal_dma.c **** }  
 1109              		.loc 1 649 0
 1110 013c FFE7     		b	.L46
 1111              	.L42:
 1112              	.L46:
 1113 013e 00BF     		nop
 1114 0140 1037     		adds	r7, r7, #16
 1115              	.LCFI39:
 1116              		.cfi_def_cfa_offset 8
 1117 0142 BD46     		mov	sp, r7
 1118              	.LCFI40:
 1119              		.cfi_def_cfa_register 13
 1120              		@ sp needed
 1121 0144 80BD     		pop	{r7, pc}
 1122              		.cfi_endproc
 1123              	.LFE130:
 1125              		.section	.text.HAL_DMA_RegisterCallback,"ax",%progbits
 1126              		.align	1
 1127              		.global	HAL_DMA_RegisterCallback
ARM GAS  /tmp/ccAMRbe4.s 			page 32


 1128              		.syntax unified
 1129              		.thumb
 1130              		.thumb_func
 1131              		.fpu fpv4-sp-d16
 1133              	HAL_DMA_RegisterCallback:
 1134              	.LFB131:
 650:Drivers/STM32F3xx_HAL_Driver/Src/stm32f3xx_hal_dma.c **** 
 651:Drivers/STM32F3xx_HAL_Driver/Src/stm32f3xx_hal_dma.c **** /**
 652:Drivers/STM32F3xx_HAL_Driver/Src/stm32f3xx_hal_dma.c ****   * @brief  Register callbacks
 653:Drivers/STM32F3xx_HAL_Driver/Src/stm32f3xx_hal_dma.c ****   * @param  hdma                 pointer to a DMA_HandleTypeDef structure that contains
 654:Drivers/STM32F3xx_HAL_Driver/Src/stm32f3xx_hal_dma.c ****   *                               the configuration information for the specified DMA Stream.
 655:Drivers/STM32F3xx_HAL_Driver/Src/stm32f3xx_hal_dma.c ****   * @param  CallbackID           User Callback identifer
 656:Drivers/STM32F3xx_HAL_Driver/Src/stm32f3xx_hal_dma.c ****   *                               a HAL_DMA_CallbackIDTypeDef ENUM as parameter.
 657:Drivers/STM32F3xx_HAL_Driver/Src/stm32f3xx_hal_dma.c ****   * @param  pCallback            pointer to private callback function which has pointer to 
 658:Drivers/STM32F3xx_HAL_Driver/Src/stm32f3xx_hal_dma.c ****   *                               a DMA_HandleTypeDef structure as parameter.
 659:Drivers/STM32F3xx_HAL_Driver/Src/stm32f3xx_hal_dma.c ****   * @retval HAL status
 660:Drivers/STM32F3xx_HAL_Driver/Src/stm32f3xx_hal_dma.c ****   */                          
 661:Drivers/STM32F3xx_HAL_Driver/Src/stm32f3xx_hal_dma.c **** HAL_StatusTypeDef HAL_DMA_RegisterCallback(DMA_HandleTypeDef *hdma, HAL_DMA_CallbackIDTypeDef Callb
 662:Drivers/STM32F3xx_HAL_Driver/Src/stm32f3xx_hal_dma.c **** {
 1135              		.loc 1 662 0
 1136              		.cfi_startproc
 1137              		@ args = 0, pretend = 0, frame = 24
 1138              		@ frame_needed = 1, uses_anonymous_args = 0
 1139              		@ link register save eliminated.
 1140 0000 80B4     		push	{r7}
 1141              	.LCFI41:
 1142              		.cfi_def_cfa_offset 4
 1143              		.cfi_offset 7, -4
 1144 0002 87B0     		sub	sp, sp, #28
 1145              	.LCFI42:
 1146              		.cfi_def_cfa_offset 32
 1147 0004 00AF     		add	r7, sp, #0
 1148              	.LCFI43:
 1149              		.cfi_def_cfa_register 7
 1150 0006 F860     		str	r0, [r7, #12]
 1151 0008 0B46     		mov	r3, r1
 1152 000a 7A60     		str	r2, [r7, #4]
 1153 000c FB72     		strb	r3, [r7, #11]
 663:Drivers/STM32F3xx_HAL_Driver/Src/stm32f3xx_hal_dma.c ****   HAL_StatusTypeDef status = HAL_OK;
 1154              		.loc 1 663 0
 1155 000e 0023     		movs	r3, #0
 1156 0010 FB75     		strb	r3, [r7, #23]
 664:Drivers/STM32F3xx_HAL_Driver/Src/stm32f3xx_hal_dma.c ****   
 665:Drivers/STM32F3xx_HAL_Driver/Src/stm32f3xx_hal_dma.c ****   /* Process locked */
 666:Drivers/STM32F3xx_HAL_Driver/Src/stm32f3xx_hal_dma.c ****   __HAL_LOCK(hdma);
 1157              		.loc 1 666 0
 1158 0012 FB68     		ldr	r3, [r7, #12]
 1159 0014 93F82030 		ldrb	r3, [r3, #32]	@ zero_extendqisi2
 1160 0018 012B     		cmp	r3, #1
 1161 001a 01D1     		bne	.L48
 1162              		.loc 1 666 0 is_stmt 0 discriminator 1
 1163 001c 0223     		movs	r3, #2
 1164 001e 32E0     		b	.L49
 1165              	.L48:
 1166              		.loc 1 666 0 discriminator 2
 1167 0020 FB68     		ldr	r3, [r7, #12]
 1168 0022 0122     		movs	r2, #1
ARM GAS  /tmp/ccAMRbe4.s 			page 33


 1169 0024 83F82020 		strb	r2, [r3, #32]
 667:Drivers/STM32F3xx_HAL_Driver/Src/stm32f3xx_hal_dma.c ****   
 668:Drivers/STM32F3xx_HAL_Driver/Src/stm32f3xx_hal_dma.c ****   if(HAL_DMA_STATE_READY == hdma->State)
 1170              		.loc 1 668 0 is_stmt 1 discriminator 2
 1171 0028 FB68     		ldr	r3, [r7, #12]
 1172 002a 93F82130 		ldrb	r3, [r3, #33]	@ zero_extendqisi2
 1173 002e 012B     		cmp	r3, #1
 1174 0030 22D1     		bne	.L50
 669:Drivers/STM32F3xx_HAL_Driver/Src/stm32f3xx_hal_dma.c ****   {
 670:Drivers/STM32F3xx_HAL_Driver/Src/stm32f3xx_hal_dma.c ****     switch (CallbackID)
 1175              		.loc 1 670 0
 1176 0032 FB7A     		ldrb	r3, [r7, #11]	@ zero_extendqisi2
 1177 0034 032B     		cmp	r3, #3
 1178 0036 1BD8     		bhi	.L51
 1179 0038 01A2     		adr	r2, .L53
 1180 003a 52F823F0 		ldr	pc, [r2, r3, lsl #2]
 1181 003e 00BF     		.p2align 2
 1182              	.L53:
 1183 0040 51000000 		.word	.L52+1
 1184 0044 59000000 		.word	.L54+1
 1185 0048 61000000 		.word	.L55+1
 1186 004c 69000000 		.word	.L56+1
 1187              		.p2align 1
 1188              	.L52:
 671:Drivers/STM32F3xx_HAL_Driver/Src/stm32f3xx_hal_dma.c ****     {
 672:Drivers/STM32F3xx_HAL_Driver/Src/stm32f3xx_hal_dma.c ****      case  HAL_DMA_XFER_CPLT_CB_ID:
 673:Drivers/STM32F3xx_HAL_Driver/Src/stm32f3xx_hal_dma.c ****            hdma->XferCpltCallback = pCallback;
 1189              		.loc 1 673 0
 1190 0050 FB68     		ldr	r3, [r7, #12]
 1191 0052 7A68     		ldr	r2, [r7, #4]
 1192 0054 9A62     		str	r2, [r3, #40]
 674:Drivers/STM32F3xx_HAL_Driver/Src/stm32f3xx_hal_dma.c ****            break;
 1193              		.loc 1 674 0
 1194 0056 11E0     		b	.L58
 1195              	.L54:
 675:Drivers/STM32F3xx_HAL_Driver/Src/stm32f3xx_hal_dma.c ****        
 676:Drivers/STM32F3xx_HAL_Driver/Src/stm32f3xx_hal_dma.c ****      case  HAL_DMA_XFER_HALFCPLT_CB_ID:
 677:Drivers/STM32F3xx_HAL_Driver/Src/stm32f3xx_hal_dma.c ****            hdma->XferHalfCpltCallback = pCallback;
 1196              		.loc 1 677 0
 1197 0058 FB68     		ldr	r3, [r7, #12]
 1198 005a 7A68     		ldr	r2, [r7, #4]
 1199 005c DA62     		str	r2, [r3, #44]
 678:Drivers/STM32F3xx_HAL_Driver/Src/stm32f3xx_hal_dma.c ****            break;         
 1200              		.loc 1 678 0
 1201 005e 0DE0     		b	.L58
 1202              	.L55:
 679:Drivers/STM32F3xx_HAL_Driver/Src/stm32f3xx_hal_dma.c **** 
 680:Drivers/STM32F3xx_HAL_Driver/Src/stm32f3xx_hal_dma.c ****      case  HAL_DMA_XFER_ERROR_CB_ID:
 681:Drivers/STM32F3xx_HAL_Driver/Src/stm32f3xx_hal_dma.c ****            hdma->XferErrorCallback = pCallback;
 1203              		.loc 1 681 0
 1204 0060 FB68     		ldr	r3, [r7, #12]
 1205 0062 7A68     		ldr	r2, [r7, #4]
 1206 0064 1A63     		str	r2, [r3, #48]
 682:Drivers/STM32F3xx_HAL_Driver/Src/stm32f3xx_hal_dma.c ****            break;         
 1207              		.loc 1 682 0
 1208 0066 09E0     		b	.L58
 1209              	.L56:
ARM GAS  /tmp/ccAMRbe4.s 			page 34


 683:Drivers/STM32F3xx_HAL_Driver/Src/stm32f3xx_hal_dma.c ****            
 684:Drivers/STM32F3xx_HAL_Driver/Src/stm32f3xx_hal_dma.c ****      case  HAL_DMA_XFER_ABORT_CB_ID:
 685:Drivers/STM32F3xx_HAL_Driver/Src/stm32f3xx_hal_dma.c ****            hdma->XferAbortCallback = pCallback;
 1210              		.loc 1 685 0
 1211 0068 FB68     		ldr	r3, [r7, #12]
 1212 006a 7A68     		ldr	r2, [r7, #4]
 1213 006c 5A63     		str	r2, [r3, #52]
 686:Drivers/STM32F3xx_HAL_Driver/Src/stm32f3xx_hal_dma.c ****            break; 
 1214              		.loc 1 686 0
 1215 006e 05E0     		b	.L58
 1216              	.L51:
 687:Drivers/STM32F3xx_HAL_Driver/Src/stm32f3xx_hal_dma.c ****            
 688:Drivers/STM32F3xx_HAL_Driver/Src/stm32f3xx_hal_dma.c ****      default:
 689:Drivers/STM32F3xx_HAL_Driver/Src/stm32f3xx_hal_dma.c ****            status = HAL_ERROR;
 1217              		.loc 1 689 0
 1218 0070 0123     		movs	r3, #1
 1219 0072 FB75     		strb	r3, [r7, #23]
 690:Drivers/STM32F3xx_HAL_Driver/Src/stm32f3xx_hal_dma.c ****            break;                                                            
 1220              		.loc 1 690 0
 1221 0074 00BF     		nop
 1222 0076 01E0     		b	.L58
 1223              	.L50:
 691:Drivers/STM32F3xx_HAL_Driver/Src/stm32f3xx_hal_dma.c ****     }
 692:Drivers/STM32F3xx_HAL_Driver/Src/stm32f3xx_hal_dma.c ****   }
 693:Drivers/STM32F3xx_HAL_Driver/Src/stm32f3xx_hal_dma.c ****   else
 694:Drivers/STM32F3xx_HAL_Driver/Src/stm32f3xx_hal_dma.c ****   {
 695:Drivers/STM32F3xx_HAL_Driver/Src/stm32f3xx_hal_dma.c ****     status = HAL_ERROR;
 1224              		.loc 1 695 0
 1225 0078 0123     		movs	r3, #1
 1226 007a FB75     		strb	r3, [r7, #23]
 1227              	.L58:
 696:Drivers/STM32F3xx_HAL_Driver/Src/stm32f3xx_hal_dma.c ****   } 
 697:Drivers/STM32F3xx_HAL_Driver/Src/stm32f3xx_hal_dma.c ****   
 698:Drivers/STM32F3xx_HAL_Driver/Src/stm32f3xx_hal_dma.c ****   /* Release Lock */
 699:Drivers/STM32F3xx_HAL_Driver/Src/stm32f3xx_hal_dma.c ****   __HAL_UNLOCK(hdma);
 1228              		.loc 1 699 0
 1229 007c FB68     		ldr	r3, [r7, #12]
 1230 007e 0022     		movs	r2, #0
 1231 0080 83F82020 		strb	r2, [r3, #32]
 700:Drivers/STM32F3xx_HAL_Driver/Src/stm32f3xx_hal_dma.c ****   
 701:Drivers/STM32F3xx_HAL_Driver/Src/stm32f3xx_hal_dma.c ****   return status;
 1232              		.loc 1 701 0
 1233 0084 FB7D     		ldrb	r3, [r7, #23]	@ zero_extendqisi2
 1234              	.L49:
 702:Drivers/STM32F3xx_HAL_Driver/Src/stm32f3xx_hal_dma.c **** }
 1235              		.loc 1 702 0
 1236 0086 1846     		mov	r0, r3
 1237 0088 1C37     		adds	r7, r7, #28
 1238              	.LCFI44:
 1239              		.cfi_def_cfa_offset 4
 1240 008a BD46     		mov	sp, r7
 1241              	.LCFI45:
 1242              		.cfi_def_cfa_register 13
 1243              		@ sp needed
 1244 008c 5DF8047B 		ldr	r7, [sp], #4
 1245              	.LCFI46:
 1246              		.cfi_restore 7
ARM GAS  /tmp/ccAMRbe4.s 			page 35


 1247              		.cfi_def_cfa_offset 0
 1248 0090 7047     		bx	lr
 1249              		.cfi_endproc
 1250              	.LFE131:
 1252 0092 00BF     		.section	.text.HAL_DMA_UnRegisterCallback,"ax",%progbits
 1253              		.align	1
 1254              		.global	HAL_DMA_UnRegisterCallback
 1255              		.syntax unified
 1256              		.thumb
 1257              		.thumb_func
 1258              		.fpu fpv4-sp-d16
 1260              	HAL_DMA_UnRegisterCallback:
 1261              	.LFB132:
 703:Drivers/STM32F3xx_HAL_Driver/Src/stm32f3xx_hal_dma.c **** 
 704:Drivers/STM32F3xx_HAL_Driver/Src/stm32f3xx_hal_dma.c **** /**
 705:Drivers/STM32F3xx_HAL_Driver/Src/stm32f3xx_hal_dma.c ****   * @brief  UnRegister callbacks
 706:Drivers/STM32F3xx_HAL_Driver/Src/stm32f3xx_hal_dma.c ****   * @param  hdma                 pointer to a DMA_HandleTypeDef structure that contains
 707:Drivers/STM32F3xx_HAL_Driver/Src/stm32f3xx_hal_dma.c ****   *                               the configuration information for the specified DMA Stream.
 708:Drivers/STM32F3xx_HAL_Driver/Src/stm32f3xx_hal_dma.c ****   * @param  CallbackID           User Callback identifer
 709:Drivers/STM32F3xx_HAL_Driver/Src/stm32f3xx_hal_dma.c ****   *                               a HAL_DMA_CallbackIDTypeDef ENUM as parameter.
 710:Drivers/STM32F3xx_HAL_Driver/Src/stm32f3xx_hal_dma.c ****   * @retval HAL status
 711:Drivers/STM32F3xx_HAL_Driver/Src/stm32f3xx_hal_dma.c ****   */              
 712:Drivers/STM32F3xx_HAL_Driver/Src/stm32f3xx_hal_dma.c **** HAL_StatusTypeDef HAL_DMA_UnRegisterCallback(DMA_HandleTypeDef *hdma, HAL_DMA_CallbackIDTypeDef Cal
 713:Drivers/STM32F3xx_HAL_Driver/Src/stm32f3xx_hal_dma.c **** {
 1262              		.loc 1 713 0
 1263              		.cfi_startproc
 1264              		@ args = 0, pretend = 0, frame = 16
 1265              		@ frame_needed = 1, uses_anonymous_args = 0
 1266              		@ link register save eliminated.
 1267 0000 80B4     		push	{r7}
 1268              	.LCFI47:
 1269              		.cfi_def_cfa_offset 4
 1270              		.cfi_offset 7, -4
 1271 0002 85B0     		sub	sp, sp, #20
 1272              	.LCFI48:
 1273              		.cfi_def_cfa_offset 24
 1274 0004 00AF     		add	r7, sp, #0
 1275              	.LCFI49:
 1276              		.cfi_def_cfa_register 7
 1277 0006 7860     		str	r0, [r7, #4]
 1278 0008 0B46     		mov	r3, r1
 1279 000a FB70     		strb	r3, [r7, #3]
 714:Drivers/STM32F3xx_HAL_Driver/Src/stm32f3xx_hal_dma.c ****   HAL_StatusTypeDef status = HAL_OK;
 1280              		.loc 1 714 0
 1281 000c 0023     		movs	r3, #0
 1282 000e FB73     		strb	r3, [r7, #15]
 715:Drivers/STM32F3xx_HAL_Driver/Src/stm32f3xx_hal_dma.c **** 
 716:Drivers/STM32F3xx_HAL_Driver/Src/stm32f3xx_hal_dma.c ****     /* Process locked */
 717:Drivers/STM32F3xx_HAL_Driver/Src/stm32f3xx_hal_dma.c ****   __HAL_LOCK(hdma);
 1283              		.loc 1 717 0
 1284 0010 7B68     		ldr	r3, [r7, #4]
 1285 0012 93F82030 		ldrb	r3, [r3, #32]	@ zero_extendqisi2
 1286 0016 012B     		cmp	r3, #1
 1287 0018 01D1     		bne	.L60
 1288              		.loc 1 717 0 is_stmt 0 discriminator 1
 1289 001a 0223     		movs	r3, #2
 1290 001c 40E0     		b	.L61
ARM GAS  /tmp/ccAMRbe4.s 			page 36


 1291              	.L60:
 1292              		.loc 1 717 0 discriminator 2
 1293 001e 7B68     		ldr	r3, [r7, #4]
 1294 0020 0122     		movs	r2, #1
 1295 0022 83F82020 		strb	r2, [r3, #32]
 718:Drivers/STM32F3xx_HAL_Driver/Src/stm32f3xx_hal_dma.c ****   
 719:Drivers/STM32F3xx_HAL_Driver/Src/stm32f3xx_hal_dma.c ****   if(HAL_DMA_STATE_READY == hdma->State)
 1296              		.loc 1 719 0 is_stmt 1 discriminator 2
 1297 0026 7B68     		ldr	r3, [r7, #4]
 1298 0028 93F82130 		ldrb	r3, [r3, #33]	@ zero_extendqisi2
 1299 002c 012B     		cmp	r3, #1
 1300 002e 30D1     		bne	.L62
 720:Drivers/STM32F3xx_HAL_Driver/Src/stm32f3xx_hal_dma.c ****   {
 721:Drivers/STM32F3xx_HAL_Driver/Src/stm32f3xx_hal_dma.c ****     switch (CallbackID)
 1301              		.loc 1 721 0
 1302 0030 FB78     		ldrb	r3, [r7, #3]	@ zero_extendqisi2
 1303 0032 042B     		cmp	r3, #4
 1304 0034 29D8     		bhi	.L63
 1305 0036 01A2     		adr	r2, .L65
 1306 0038 52F823F0 		ldr	pc, [r2, r3, lsl #2]
 1307              		.p2align 2
 1308              	.L65:
 1309 003c 51000000 		.word	.L64+1
 1310 0040 59000000 		.word	.L66+1
 1311 0044 61000000 		.word	.L67+1
 1312 0048 69000000 		.word	.L68+1
 1313 004c 71000000 		.word	.L69+1
 1314              		.p2align 1
 1315              	.L64:
 722:Drivers/STM32F3xx_HAL_Driver/Src/stm32f3xx_hal_dma.c ****     {
 723:Drivers/STM32F3xx_HAL_Driver/Src/stm32f3xx_hal_dma.c ****      case  HAL_DMA_XFER_CPLT_CB_ID:
 724:Drivers/STM32F3xx_HAL_Driver/Src/stm32f3xx_hal_dma.c ****            hdma->XferCpltCallback = NULL;
 1316              		.loc 1 724 0
 1317 0050 7B68     		ldr	r3, [r7, #4]
 1318 0052 0022     		movs	r2, #0
 1319 0054 9A62     		str	r2, [r3, #40]
 725:Drivers/STM32F3xx_HAL_Driver/Src/stm32f3xx_hal_dma.c ****            break;
 1320              		.loc 1 725 0
 1321 0056 1EE0     		b	.L71
 1322              	.L66:
 726:Drivers/STM32F3xx_HAL_Driver/Src/stm32f3xx_hal_dma.c ****        
 727:Drivers/STM32F3xx_HAL_Driver/Src/stm32f3xx_hal_dma.c ****      case  HAL_DMA_XFER_HALFCPLT_CB_ID:
 728:Drivers/STM32F3xx_HAL_Driver/Src/stm32f3xx_hal_dma.c ****            hdma->XferHalfCpltCallback = NULL;
 1323              		.loc 1 728 0
 1324 0058 7B68     		ldr	r3, [r7, #4]
 1325 005a 0022     		movs	r2, #0
 1326 005c DA62     		str	r2, [r3, #44]
 729:Drivers/STM32F3xx_HAL_Driver/Src/stm32f3xx_hal_dma.c ****            break;         
 1327              		.loc 1 729 0
 1328 005e 1AE0     		b	.L71
 1329              	.L67:
 730:Drivers/STM32F3xx_HAL_Driver/Src/stm32f3xx_hal_dma.c **** 
 731:Drivers/STM32F3xx_HAL_Driver/Src/stm32f3xx_hal_dma.c ****      case  HAL_DMA_XFER_ERROR_CB_ID:
 732:Drivers/STM32F3xx_HAL_Driver/Src/stm32f3xx_hal_dma.c ****            hdma->XferErrorCallback = NULL;
 1330              		.loc 1 732 0
 1331 0060 7B68     		ldr	r3, [r7, #4]
 1332 0062 0022     		movs	r2, #0
ARM GAS  /tmp/ccAMRbe4.s 			page 37


 1333 0064 1A63     		str	r2, [r3, #48]
 733:Drivers/STM32F3xx_HAL_Driver/Src/stm32f3xx_hal_dma.c ****            break;         
 1334              		.loc 1 733 0
 1335 0066 16E0     		b	.L71
 1336              	.L68:
 734:Drivers/STM32F3xx_HAL_Driver/Src/stm32f3xx_hal_dma.c ****            
 735:Drivers/STM32F3xx_HAL_Driver/Src/stm32f3xx_hal_dma.c ****      case  HAL_DMA_XFER_ABORT_CB_ID:
 736:Drivers/STM32F3xx_HAL_Driver/Src/stm32f3xx_hal_dma.c ****            hdma->XferAbortCallback = NULL;
 1337              		.loc 1 736 0
 1338 0068 7B68     		ldr	r3, [r7, #4]
 1339 006a 0022     		movs	r2, #0
 1340 006c 5A63     		str	r2, [r3, #52]
 737:Drivers/STM32F3xx_HAL_Driver/Src/stm32f3xx_hal_dma.c ****            break; 
 1341              		.loc 1 737 0
 1342 006e 12E0     		b	.L71
 1343              	.L69:
 738:Drivers/STM32F3xx_HAL_Driver/Src/stm32f3xx_hal_dma.c ****      
 739:Drivers/STM32F3xx_HAL_Driver/Src/stm32f3xx_hal_dma.c ****     case   HAL_DMA_XFER_ALL_CB_ID:
 740:Drivers/STM32F3xx_HAL_Driver/Src/stm32f3xx_hal_dma.c ****            hdma->XferCpltCallback = NULL;
 1344              		.loc 1 740 0
 1345 0070 7B68     		ldr	r3, [r7, #4]
 1346 0072 0022     		movs	r2, #0
 1347 0074 9A62     		str	r2, [r3, #40]
 741:Drivers/STM32F3xx_HAL_Driver/Src/stm32f3xx_hal_dma.c ****            hdma->XferHalfCpltCallback = NULL;
 1348              		.loc 1 741 0
 1349 0076 7B68     		ldr	r3, [r7, #4]
 1350 0078 0022     		movs	r2, #0
 1351 007a DA62     		str	r2, [r3, #44]
 742:Drivers/STM32F3xx_HAL_Driver/Src/stm32f3xx_hal_dma.c ****            hdma->XferErrorCallback = NULL;
 1352              		.loc 1 742 0
 1353 007c 7B68     		ldr	r3, [r7, #4]
 1354 007e 0022     		movs	r2, #0
 1355 0080 1A63     		str	r2, [r3, #48]
 743:Drivers/STM32F3xx_HAL_Driver/Src/stm32f3xx_hal_dma.c ****            hdma->XferAbortCallback = NULL;
 1356              		.loc 1 743 0
 1357 0082 7B68     		ldr	r3, [r7, #4]
 1358 0084 0022     		movs	r2, #0
 1359 0086 5A63     		str	r2, [r3, #52]
 744:Drivers/STM32F3xx_HAL_Driver/Src/stm32f3xx_hal_dma.c ****            break; 
 1360              		.loc 1 744 0
 1361 0088 05E0     		b	.L71
 1362              	.L63:
 745:Drivers/STM32F3xx_HAL_Driver/Src/stm32f3xx_hal_dma.c ****      
 746:Drivers/STM32F3xx_HAL_Driver/Src/stm32f3xx_hal_dma.c ****     default:
 747:Drivers/STM32F3xx_HAL_Driver/Src/stm32f3xx_hal_dma.c ****            status = HAL_ERROR;
 1363              		.loc 1 747 0
 1364 008a 0123     		movs	r3, #1
 1365 008c FB73     		strb	r3, [r7, #15]
 748:Drivers/STM32F3xx_HAL_Driver/Src/stm32f3xx_hal_dma.c ****            break;                                                            
 1366              		.loc 1 748 0
 1367 008e 00BF     		nop
 1368 0090 01E0     		b	.L71
 1369              	.L62:
 749:Drivers/STM32F3xx_HAL_Driver/Src/stm32f3xx_hal_dma.c ****     }
 750:Drivers/STM32F3xx_HAL_Driver/Src/stm32f3xx_hal_dma.c ****   }
 751:Drivers/STM32F3xx_HAL_Driver/Src/stm32f3xx_hal_dma.c ****   else
 752:Drivers/STM32F3xx_HAL_Driver/Src/stm32f3xx_hal_dma.c ****   {
ARM GAS  /tmp/ccAMRbe4.s 			page 38


 753:Drivers/STM32F3xx_HAL_Driver/Src/stm32f3xx_hal_dma.c ****     status = HAL_ERROR;
 1370              		.loc 1 753 0
 1371 0092 0123     		movs	r3, #1
 1372 0094 FB73     		strb	r3, [r7, #15]
 1373              	.L71:
 754:Drivers/STM32F3xx_HAL_Driver/Src/stm32f3xx_hal_dma.c ****   } 
 755:Drivers/STM32F3xx_HAL_Driver/Src/stm32f3xx_hal_dma.c ****   
 756:Drivers/STM32F3xx_HAL_Driver/Src/stm32f3xx_hal_dma.c ****   /* Release Lock */
 757:Drivers/STM32F3xx_HAL_Driver/Src/stm32f3xx_hal_dma.c ****   __HAL_UNLOCK(hdma);
 1374              		.loc 1 757 0
 1375 0096 7B68     		ldr	r3, [r7, #4]
 1376 0098 0022     		movs	r2, #0
 1377 009a 83F82020 		strb	r2, [r3, #32]
 758:Drivers/STM32F3xx_HAL_Driver/Src/stm32f3xx_hal_dma.c ****   
 759:Drivers/STM32F3xx_HAL_Driver/Src/stm32f3xx_hal_dma.c ****   return status;
 1378              		.loc 1 759 0
 1379 009e FB7B     		ldrb	r3, [r7, #15]	@ zero_extendqisi2
 1380              	.L61:
 760:Drivers/STM32F3xx_HAL_Driver/Src/stm32f3xx_hal_dma.c **** }
 1381              		.loc 1 760 0
 1382 00a0 1846     		mov	r0, r3
 1383 00a2 1437     		adds	r7, r7, #20
 1384              	.LCFI50:
 1385              		.cfi_def_cfa_offset 4
 1386 00a4 BD46     		mov	sp, r7
 1387              	.LCFI51:
 1388              		.cfi_def_cfa_register 13
 1389              		@ sp needed
 1390 00a6 5DF8047B 		ldr	r7, [sp], #4
 1391              	.LCFI52:
 1392              		.cfi_restore 7
 1393              		.cfi_def_cfa_offset 0
 1394 00aa 7047     		bx	lr
 1395              		.cfi_endproc
 1396              	.LFE132:
 1398              		.section	.text.HAL_DMA_GetState,"ax",%progbits
 1399              		.align	1
 1400              		.global	HAL_DMA_GetState
 1401              		.syntax unified
 1402              		.thumb
 1403              		.thumb_func
 1404              		.fpu fpv4-sp-d16
 1406              	HAL_DMA_GetState:
 1407              	.LFB133:
 761:Drivers/STM32F3xx_HAL_Driver/Src/stm32f3xx_hal_dma.c **** 
 762:Drivers/STM32F3xx_HAL_Driver/Src/stm32f3xx_hal_dma.c **** /**
 763:Drivers/STM32F3xx_HAL_Driver/Src/stm32f3xx_hal_dma.c ****   * @}
 764:Drivers/STM32F3xx_HAL_Driver/Src/stm32f3xx_hal_dma.c ****   */
 765:Drivers/STM32F3xx_HAL_Driver/Src/stm32f3xx_hal_dma.c **** 
 766:Drivers/STM32F3xx_HAL_Driver/Src/stm32f3xx_hal_dma.c **** /** @defgroup DMA_Exported_Functions_Group3 Peripheral State functions
 767:Drivers/STM32F3xx_HAL_Driver/Src/stm32f3xx_hal_dma.c ****  *  @brief    Peripheral State functions 
 768:Drivers/STM32F3xx_HAL_Driver/Src/stm32f3xx_hal_dma.c ****  *
 769:Drivers/STM32F3xx_HAL_Driver/Src/stm32f3xx_hal_dma.c **** @verbatim   
 770:Drivers/STM32F3xx_HAL_Driver/Src/stm32f3xx_hal_dma.c ****  ===============================================================================
 771:Drivers/STM32F3xx_HAL_Driver/Src/stm32f3xx_hal_dma.c ****                     ##### State and Errors functions #####
 772:Drivers/STM32F3xx_HAL_Driver/Src/stm32f3xx_hal_dma.c ****  ===============================================================================  
 773:Drivers/STM32F3xx_HAL_Driver/Src/stm32f3xx_hal_dma.c ****     [..]
ARM GAS  /tmp/ccAMRbe4.s 			page 39


 774:Drivers/STM32F3xx_HAL_Driver/Src/stm32f3xx_hal_dma.c ****     This subsection provides functions allowing to
 775:Drivers/STM32F3xx_HAL_Driver/Src/stm32f3xx_hal_dma.c ****       (+) Check the DMA state
 776:Drivers/STM32F3xx_HAL_Driver/Src/stm32f3xx_hal_dma.c ****       (+) Get error code
 777:Drivers/STM32F3xx_HAL_Driver/Src/stm32f3xx_hal_dma.c **** 
 778:Drivers/STM32F3xx_HAL_Driver/Src/stm32f3xx_hal_dma.c **** @endverbatim
 779:Drivers/STM32F3xx_HAL_Driver/Src/stm32f3xx_hal_dma.c ****   * @{
 780:Drivers/STM32F3xx_HAL_Driver/Src/stm32f3xx_hal_dma.c ****   */  
 781:Drivers/STM32F3xx_HAL_Driver/Src/stm32f3xx_hal_dma.c **** 
 782:Drivers/STM32F3xx_HAL_Driver/Src/stm32f3xx_hal_dma.c **** /**
 783:Drivers/STM32F3xx_HAL_Driver/Src/stm32f3xx_hal_dma.c ****   * @brief  Returns the DMA state.
 784:Drivers/STM32F3xx_HAL_Driver/Src/stm32f3xx_hal_dma.c ****   * @param  hdma pointer to a DMA_HandleTypeDef structure that contains
 785:Drivers/STM32F3xx_HAL_Driver/Src/stm32f3xx_hal_dma.c ****   *               the configuration information for the specified DMA Channel.  
 786:Drivers/STM32F3xx_HAL_Driver/Src/stm32f3xx_hal_dma.c ****   * @retval HAL state
 787:Drivers/STM32F3xx_HAL_Driver/Src/stm32f3xx_hal_dma.c ****   */
 788:Drivers/STM32F3xx_HAL_Driver/Src/stm32f3xx_hal_dma.c **** HAL_DMA_StateTypeDef HAL_DMA_GetState(DMA_HandleTypeDef *hdma)
 789:Drivers/STM32F3xx_HAL_Driver/Src/stm32f3xx_hal_dma.c **** {
 1408              		.loc 1 789 0
 1409              		.cfi_startproc
 1410              		@ args = 0, pretend = 0, frame = 8
 1411              		@ frame_needed = 1, uses_anonymous_args = 0
 1412              		@ link register save eliminated.
 1413 0000 80B4     		push	{r7}
 1414              	.LCFI53:
 1415              		.cfi_def_cfa_offset 4
 1416              		.cfi_offset 7, -4
 1417 0002 83B0     		sub	sp, sp, #12
 1418              	.LCFI54:
 1419              		.cfi_def_cfa_offset 16
 1420 0004 00AF     		add	r7, sp, #0
 1421              	.LCFI55:
 1422              		.cfi_def_cfa_register 7
 1423 0006 7860     		str	r0, [r7, #4]
 790:Drivers/STM32F3xx_HAL_Driver/Src/stm32f3xx_hal_dma.c ****   return hdma->State;
 1424              		.loc 1 790 0
 1425 0008 7B68     		ldr	r3, [r7, #4]
 1426 000a 93F82130 		ldrb	r3, [r3, #33]	@ zero_extendqisi2
 791:Drivers/STM32F3xx_HAL_Driver/Src/stm32f3xx_hal_dma.c **** }
 1427              		.loc 1 791 0
 1428 000e 1846     		mov	r0, r3
 1429 0010 0C37     		adds	r7, r7, #12
 1430              	.LCFI56:
 1431              		.cfi_def_cfa_offset 4
 1432 0012 BD46     		mov	sp, r7
 1433              	.LCFI57:
 1434              		.cfi_def_cfa_register 13
 1435              		@ sp needed
 1436 0014 5DF8047B 		ldr	r7, [sp], #4
 1437              	.LCFI58:
 1438              		.cfi_restore 7
 1439              		.cfi_def_cfa_offset 0
 1440 0018 7047     		bx	lr
 1441              		.cfi_endproc
 1442              	.LFE133:
 1444              		.section	.text.HAL_DMA_GetError,"ax",%progbits
 1445              		.align	1
 1446              		.global	HAL_DMA_GetError
 1447              		.syntax unified
ARM GAS  /tmp/ccAMRbe4.s 			page 40


 1448              		.thumb
 1449              		.thumb_func
 1450              		.fpu fpv4-sp-d16
 1452              	HAL_DMA_GetError:
 1453              	.LFB134:
 792:Drivers/STM32F3xx_HAL_Driver/Src/stm32f3xx_hal_dma.c **** 
 793:Drivers/STM32F3xx_HAL_Driver/Src/stm32f3xx_hal_dma.c **** /**
 794:Drivers/STM32F3xx_HAL_Driver/Src/stm32f3xx_hal_dma.c ****   * @brief  Return the DMA error code
 795:Drivers/STM32F3xx_HAL_Driver/Src/stm32f3xx_hal_dma.c ****   * @param  hdma pointer to a DMA_HandleTypeDef structure that contains
 796:Drivers/STM32F3xx_HAL_Driver/Src/stm32f3xx_hal_dma.c ****   *              the configuration information for the specified DMA Channel.
 797:Drivers/STM32F3xx_HAL_Driver/Src/stm32f3xx_hal_dma.c ****   * @retval DMA Error Code
 798:Drivers/STM32F3xx_HAL_Driver/Src/stm32f3xx_hal_dma.c ****   */
 799:Drivers/STM32F3xx_HAL_Driver/Src/stm32f3xx_hal_dma.c **** uint32_t HAL_DMA_GetError(DMA_HandleTypeDef *hdma)
 800:Drivers/STM32F3xx_HAL_Driver/Src/stm32f3xx_hal_dma.c **** {
 1454              		.loc 1 800 0
 1455              		.cfi_startproc
 1456              		@ args = 0, pretend = 0, frame = 8
 1457              		@ frame_needed = 1, uses_anonymous_args = 0
 1458              		@ link register save eliminated.
 1459 0000 80B4     		push	{r7}
 1460              	.LCFI59:
 1461              		.cfi_def_cfa_offset 4
 1462              		.cfi_offset 7, -4
 1463 0002 83B0     		sub	sp, sp, #12
 1464              	.LCFI60:
 1465              		.cfi_def_cfa_offset 16
 1466 0004 00AF     		add	r7, sp, #0
 1467              	.LCFI61:
 1468              		.cfi_def_cfa_register 7
 1469 0006 7860     		str	r0, [r7, #4]
 801:Drivers/STM32F3xx_HAL_Driver/Src/stm32f3xx_hal_dma.c ****   return hdma->ErrorCode;
 1470              		.loc 1 801 0
 1471 0008 7B68     		ldr	r3, [r7, #4]
 1472 000a 9B6B     		ldr	r3, [r3, #56]
 802:Drivers/STM32F3xx_HAL_Driver/Src/stm32f3xx_hal_dma.c **** }
 1473              		.loc 1 802 0
 1474 000c 1846     		mov	r0, r3
 1475 000e 0C37     		adds	r7, r7, #12
 1476              	.LCFI62:
 1477              		.cfi_def_cfa_offset 4
 1478 0010 BD46     		mov	sp, r7
 1479              	.LCFI63:
 1480              		.cfi_def_cfa_register 13
 1481              		@ sp needed
 1482 0012 5DF8047B 		ldr	r7, [sp], #4
 1483              	.LCFI64:
 1484              		.cfi_restore 7
 1485              		.cfi_def_cfa_offset 0
 1486 0016 7047     		bx	lr
 1487              		.cfi_endproc
 1488              	.LFE134:
 1490              		.section	.text.DMA_SetConfig,"ax",%progbits
 1491              		.align	1
 1492              		.syntax unified
 1493              		.thumb
 1494              		.thumb_func
 1495              		.fpu fpv4-sp-d16
ARM GAS  /tmp/ccAMRbe4.s 			page 41


 1497              	DMA_SetConfig:
 1498              	.LFB135:
 803:Drivers/STM32F3xx_HAL_Driver/Src/stm32f3xx_hal_dma.c **** 
 804:Drivers/STM32F3xx_HAL_Driver/Src/stm32f3xx_hal_dma.c **** /**
 805:Drivers/STM32F3xx_HAL_Driver/Src/stm32f3xx_hal_dma.c ****   * @}
 806:Drivers/STM32F3xx_HAL_Driver/Src/stm32f3xx_hal_dma.c ****   */
 807:Drivers/STM32F3xx_HAL_Driver/Src/stm32f3xx_hal_dma.c **** 
 808:Drivers/STM32F3xx_HAL_Driver/Src/stm32f3xx_hal_dma.c **** /**
 809:Drivers/STM32F3xx_HAL_Driver/Src/stm32f3xx_hal_dma.c ****   * @}
 810:Drivers/STM32F3xx_HAL_Driver/Src/stm32f3xx_hal_dma.c ****   */
 811:Drivers/STM32F3xx_HAL_Driver/Src/stm32f3xx_hal_dma.c **** 
 812:Drivers/STM32F3xx_HAL_Driver/Src/stm32f3xx_hal_dma.c **** /** @addtogroup DMA_Private_Functions
 813:Drivers/STM32F3xx_HAL_Driver/Src/stm32f3xx_hal_dma.c ****   * @{
 814:Drivers/STM32F3xx_HAL_Driver/Src/stm32f3xx_hal_dma.c ****   */
 815:Drivers/STM32F3xx_HAL_Driver/Src/stm32f3xx_hal_dma.c **** 
 816:Drivers/STM32F3xx_HAL_Driver/Src/stm32f3xx_hal_dma.c **** /**
 817:Drivers/STM32F3xx_HAL_Driver/Src/stm32f3xx_hal_dma.c ****   * @brief  Set the DMA Transfer parameters.
 818:Drivers/STM32F3xx_HAL_Driver/Src/stm32f3xx_hal_dma.c ****   * @param  hdma       pointer to a DMA_HandleTypeDef structure that contains
 819:Drivers/STM32F3xx_HAL_Driver/Src/stm32f3xx_hal_dma.c ****   *                     the configuration information for the specified DMA Channel.  
 820:Drivers/STM32F3xx_HAL_Driver/Src/stm32f3xx_hal_dma.c ****   * @param  SrcAddress The source memory Buffer address
 821:Drivers/STM32F3xx_HAL_Driver/Src/stm32f3xx_hal_dma.c ****   * @param  DstAddress The destination memory Buffer address
 822:Drivers/STM32F3xx_HAL_Driver/Src/stm32f3xx_hal_dma.c ****   * @param  DataLength The length of data to be transferred from source to destination
 823:Drivers/STM32F3xx_HAL_Driver/Src/stm32f3xx_hal_dma.c ****   * @retval HAL status
 824:Drivers/STM32F3xx_HAL_Driver/Src/stm32f3xx_hal_dma.c ****   */
 825:Drivers/STM32F3xx_HAL_Driver/Src/stm32f3xx_hal_dma.c **** static void DMA_SetConfig(DMA_HandleTypeDef *hdma, uint32_t SrcAddress, uint32_t DstAddress, uint32
 826:Drivers/STM32F3xx_HAL_Driver/Src/stm32f3xx_hal_dma.c **** {
 1499              		.loc 1 826 0
 1500              		.cfi_startproc
 1501              		@ args = 0, pretend = 0, frame = 16
 1502              		@ frame_needed = 1, uses_anonymous_args = 0
 1503              		@ link register save eliminated.
 1504 0000 80B4     		push	{r7}
 1505              	.LCFI65:
 1506              		.cfi_def_cfa_offset 4
 1507              		.cfi_offset 7, -4
 1508 0002 85B0     		sub	sp, sp, #20
 1509              	.LCFI66:
 1510              		.cfi_def_cfa_offset 24
 1511 0004 00AF     		add	r7, sp, #0
 1512              	.LCFI67:
 1513              		.cfi_def_cfa_register 7
 1514 0006 F860     		str	r0, [r7, #12]
 1515 0008 B960     		str	r1, [r7, #8]
 1516 000a 7A60     		str	r2, [r7, #4]
 1517 000c 3B60     		str	r3, [r7]
 827:Drivers/STM32F3xx_HAL_Driver/Src/stm32f3xx_hal_dma.c **** 	/* Clear all flags */
 828:Drivers/STM32F3xx_HAL_Driver/Src/stm32f3xx_hal_dma.c ****   hdma->DmaBaseAddress->IFCR  = (DMA_FLAG_GL1 << hdma->ChannelIndex);
 1518              		.loc 1 828 0
 1519 000e FB68     		ldr	r3, [r7, #12]
 1520 0010 1A6C     		ldr	r2, [r3, #64]
 1521 0012 FB68     		ldr	r3, [r7, #12]
 1522 0014 DB6B     		ldr	r3, [r3, #60]
 1523 0016 0121     		movs	r1, #1
 1524 0018 01FA02F2 		lsl	r2, r1, r2
 1525 001c 5A60     		str	r2, [r3, #4]
 829:Drivers/STM32F3xx_HAL_Driver/Src/stm32f3xx_hal_dma.c ****   
 830:Drivers/STM32F3xx_HAL_Driver/Src/stm32f3xx_hal_dma.c ****   /* Configure DMA Channel data length */
ARM GAS  /tmp/ccAMRbe4.s 			page 42


 831:Drivers/STM32F3xx_HAL_Driver/Src/stm32f3xx_hal_dma.c ****   hdma->Instance->CNDTR = DataLength;
 1526              		.loc 1 831 0
 1527 001e FB68     		ldr	r3, [r7, #12]
 1528 0020 1B68     		ldr	r3, [r3]
 1529 0022 3A68     		ldr	r2, [r7]
 1530 0024 5A60     		str	r2, [r3, #4]
 832:Drivers/STM32F3xx_HAL_Driver/Src/stm32f3xx_hal_dma.c ****   
 833:Drivers/STM32F3xx_HAL_Driver/Src/stm32f3xx_hal_dma.c ****   /* Peripheral to Memory */
 834:Drivers/STM32F3xx_HAL_Driver/Src/stm32f3xx_hal_dma.c ****   if((hdma->Init.Direction) == DMA_MEMORY_TO_PERIPH)
 1531              		.loc 1 834 0
 1532 0026 FB68     		ldr	r3, [r7, #12]
 1533 0028 5B68     		ldr	r3, [r3, #4]
 1534 002a 102B     		cmp	r3, #16
 1535 002c 08D1     		bne	.L77
 835:Drivers/STM32F3xx_HAL_Driver/Src/stm32f3xx_hal_dma.c ****   {   
 836:Drivers/STM32F3xx_HAL_Driver/Src/stm32f3xx_hal_dma.c ****     /* Configure DMA Channel destination address */
 837:Drivers/STM32F3xx_HAL_Driver/Src/stm32f3xx_hal_dma.c ****     hdma->Instance->CPAR = DstAddress;
 1536              		.loc 1 837 0
 1537 002e FB68     		ldr	r3, [r7, #12]
 1538 0030 1B68     		ldr	r3, [r3]
 1539 0032 7A68     		ldr	r2, [r7, #4]
 1540 0034 9A60     		str	r2, [r3, #8]
 838:Drivers/STM32F3xx_HAL_Driver/Src/stm32f3xx_hal_dma.c ****     
 839:Drivers/STM32F3xx_HAL_Driver/Src/stm32f3xx_hal_dma.c ****     /* Configure DMA Channel source address */
 840:Drivers/STM32F3xx_HAL_Driver/Src/stm32f3xx_hal_dma.c ****     hdma->Instance->CMAR = SrcAddress;
 1541              		.loc 1 840 0
 1542 0036 FB68     		ldr	r3, [r7, #12]
 1543 0038 1B68     		ldr	r3, [r3]
 1544 003a BA68     		ldr	r2, [r7, #8]
 1545 003c DA60     		str	r2, [r3, #12]
 841:Drivers/STM32F3xx_HAL_Driver/Src/stm32f3xx_hal_dma.c ****   }
 842:Drivers/STM32F3xx_HAL_Driver/Src/stm32f3xx_hal_dma.c ****   /* Memory to Peripheral */
 843:Drivers/STM32F3xx_HAL_Driver/Src/stm32f3xx_hal_dma.c ****   else
 844:Drivers/STM32F3xx_HAL_Driver/Src/stm32f3xx_hal_dma.c ****   {
 845:Drivers/STM32F3xx_HAL_Driver/Src/stm32f3xx_hal_dma.c ****     /* Configure DMA Channel source address */
 846:Drivers/STM32F3xx_HAL_Driver/Src/stm32f3xx_hal_dma.c ****     hdma->Instance->CPAR = SrcAddress;
 847:Drivers/STM32F3xx_HAL_Driver/Src/stm32f3xx_hal_dma.c ****     
 848:Drivers/STM32F3xx_HAL_Driver/Src/stm32f3xx_hal_dma.c ****     /* Configure DMA Channel destination address */
 849:Drivers/STM32F3xx_HAL_Driver/Src/stm32f3xx_hal_dma.c ****     hdma->Instance->CMAR = DstAddress;
 850:Drivers/STM32F3xx_HAL_Driver/Src/stm32f3xx_hal_dma.c ****   }
 851:Drivers/STM32F3xx_HAL_Driver/Src/stm32f3xx_hal_dma.c **** }
 1546              		.loc 1 851 0
 1547 003e 07E0     		b	.L79
 1548              	.L77:
 846:Drivers/STM32F3xx_HAL_Driver/Src/stm32f3xx_hal_dma.c ****     
 1549              		.loc 1 846 0
 1550 0040 FB68     		ldr	r3, [r7, #12]
 1551 0042 1B68     		ldr	r3, [r3]
 1552 0044 BA68     		ldr	r2, [r7, #8]
 1553 0046 9A60     		str	r2, [r3, #8]
 849:Drivers/STM32F3xx_HAL_Driver/Src/stm32f3xx_hal_dma.c ****   }
 1554              		.loc 1 849 0
 1555 0048 FB68     		ldr	r3, [r7, #12]
 1556 004a 1B68     		ldr	r3, [r3]
 1557 004c 7A68     		ldr	r2, [r7, #4]
 1558 004e DA60     		str	r2, [r3, #12]
 1559              	.L79:
ARM GAS  /tmp/ccAMRbe4.s 			page 43


 1560              		.loc 1 851 0
 1561 0050 00BF     		nop
 1562 0052 1437     		adds	r7, r7, #20
 1563              	.LCFI68:
 1564              		.cfi_def_cfa_offset 4
 1565 0054 BD46     		mov	sp, r7
 1566              	.LCFI69:
 1567              		.cfi_def_cfa_register 13
 1568              		@ sp needed
 1569 0056 5DF8047B 		ldr	r7, [sp], #4
 1570              	.LCFI70:
 1571              		.cfi_restore 7
 1572              		.cfi_def_cfa_offset 0
 1573 005a 7047     		bx	lr
 1574              		.cfi_endproc
 1575              	.LFE135:
 1577              		.section	.text.DMA_CalcBaseAndBitshift,"ax",%progbits
 1578              		.align	1
 1579              		.syntax unified
 1580              		.thumb
 1581              		.thumb_func
 1582              		.fpu fpv4-sp-d16
 1584              	DMA_CalcBaseAndBitshift:
 1585              	.LFB136:
 852:Drivers/STM32F3xx_HAL_Driver/Src/stm32f3xx_hal_dma.c **** 
 853:Drivers/STM32F3xx_HAL_Driver/Src/stm32f3xx_hal_dma.c **** /**
 854:Drivers/STM32F3xx_HAL_Driver/Src/stm32f3xx_hal_dma.c ****   * @brief  Set the DMA base address and channel index depending on DMA instance
 855:Drivers/STM32F3xx_HAL_Driver/Src/stm32f3xx_hal_dma.c ****   * @param  hdma       pointer to a DMA_HandleTypeDef structure that contains
 856:Drivers/STM32F3xx_HAL_Driver/Src/stm32f3xx_hal_dma.c ****   *                     the configuration information for the specified DMA Stream. 
 857:Drivers/STM32F3xx_HAL_Driver/Src/stm32f3xx_hal_dma.c ****   * @retval None
 858:Drivers/STM32F3xx_HAL_Driver/Src/stm32f3xx_hal_dma.c ****   */
 859:Drivers/STM32F3xx_HAL_Driver/Src/stm32f3xx_hal_dma.c **** static void DMA_CalcBaseAndBitshift(DMA_HandleTypeDef *hdma)
 860:Drivers/STM32F3xx_HAL_Driver/Src/stm32f3xx_hal_dma.c **** {
 1586              		.loc 1 860 0
 1587              		.cfi_startproc
 1588              		@ args = 0, pretend = 0, frame = 8
 1589              		@ frame_needed = 1, uses_anonymous_args = 0
 1590              		@ link register save eliminated.
 1591 0000 80B4     		push	{r7}
 1592              	.LCFI71:
 1593              		.cfi_def_cfa_offset 4
 1594              		.cfi_offset 7, -4
 1595 0002 83B0     		sub	sp, sp, #12
 1596              	.LCFI72:
 1597              		.cfi_def_cfa_offset 16
 1598 0004 00AF     		add	r7, sp, #0
 1599              	.LCFI73:
 1600              		.cfi_def_cfa_register 7
 1601 0006 7860     		str	r0, [r7, #4]
 861:Drivers/STM32F3xx_HAL_Driver/Src/stm32f3xx_hal_dma.c **** #if defined (DMA2)
 862:Drivers/STM32F3xx_HAL_Driver/Src/stm32f3xx_hal_dma.c ****   /* calculation of the channel index */
 863:Drivers/STM32F3xx_HAL_Driver/Src/stm32f3xx_hal_dma.c ****   if ((uint32_t)(hdma->Instance) < (uint32_t)(DMA2_Channel1))
 864:Drivers/STM32F3xx_HAL_Driver/Src/stm32f3xx_hal_dma.c ****   {
 865:Drivers/STM32F3xx_HAL_Driver/Src/stm32f3xx_hal_dma.c ****     /* DMA1 */
 866:Drivers/STM32F3xx_HAL_Driver/Src/stm32f3xx_hal_dma.c ****     hdma->ChannelIndex = (((uint32_t)hdma->Instance - (uint32_t)DMA1_Channel1) / ((uint32_t)DMA1_Ch
 867:Drivers/STM32F3xx_HAL_Driver/Src/stm32f3xx_hal_dma.c ****     hdma->DmaBaseAddress = DMA1;
 868:Drivers/STM32F3xx_HAL_Driver/Src/stm32f3xx_hal_dma.c ****   }
ARM GAS  /tmp/ccAMRbe4.s 			page 44


 869:Drivers/STM32F3xx_HAL_Driver/Src/stm32f3xx_hal_dma.c ****   else 
 870:Drivers/STM32F3xx_HAL_Driver/Src/stm32f3xx_hal_dma.c ****   {
 871:Drivers/STM32F3xx_HAL_Driver/Src/stm32f3xx_hal_dma.c ****     /* DMA2 */
 872:Drivers/STM32F3xx_HAL_Driver/Src/stm32f3xx_hal_dma.c ****     hdma->ChannelIndex = (((uint32_t)hdma->Instance - (uint32_t)DMA2_Channel1) / ((uint32_t)DMA2_Ch
 873:Drivers/STM32F3xx_HAL_Driver/Src/stm32f3xx_hal_dma.c ****     hdma->DmaBaseAddress = DMA2;
 874:Drivers/STM32F3xx_HAL_Driver/Src/stm32f3xx_hal_dma.c ****   }
 875:Drivers/STM32F3xx_HAL_Driver/Src/stm32f3xx_hal_dma.c **** #else
 876:Drivers/STM32F3xx_HAL_Driver/Src/stm32f3xx_hal_dma.c ****   /* calculation of the channel index */
 877:Drivers/STM32F3xx_HAL_Driver/Src/stm32f3xx_hal_dma.c ****   /* DMA1 */
 878:Drivers/STM32F3xx_HAL_Driver/Src/stm32f3xx_hal_dma.c ****   hdma->ChannelIndex = (((uint32_t)hdma->Instance - (uint32_t)DMA1_Channel1) / ((uint32_t)DMA1_Chan
 1602              		.loc 1 878 0
 1603 0008 7B68     		ldr	r3, [r7, #4]
 1604 000a 1B68     		ldr	r3, [r3]
 1605 000c 1A46     		mov	r2, r3
 1606 000e 094B     		ldr	r3, .L81
 1607 0010 1344     		add	r3, r3, r2
 1608 0012 094A     		ldr	r2, .L81+4
 1609 0014 A2FB0323 		umull	r2, r3, r2, r3
 1610 0018 1B09     		lsrs	r3, r3, #4
 1611 001a 9A00     		lsls	r2, r3, #2
 1612 001c 7B68     		ldr	r3, [r7, #4]
 1613 001e 1A64     		str	r2, [r3, #64]
 879:Drivers/STM32F3xx_HAL_Driver/Src/stm32f3xx_hal_dma.c ****   hdma->DmaBaseAddress = DMA1;
 1614              		.loc 1 879 0
 1615 0020 7B68     		ldr	r3, [r7, #4]
 1616 0022 064A     		ldr	r2, .L81+8
 1617 0024 DA63     		str	r2, [r3, #60]
 880:Drivers/STM32F3xx_HAL_Driver/Src/stm32f3xx_hal_dma.c **** #endif
 881:Drivers/STM32F3xx_HAL_Driver/Src/stm32f3xx_hal_dma.c **** }
 1618              		.loc 1 881 0
 1619 0026 00BF     		nop
 1620 0028 0C37     		adds	r7, r7, #12
 1621              	.LCFI74:
 1622              		.cfi_def_cfa_offset 4
 1623 002a BD46     		mov	sp, r7
 1624              	.LCFI75:
 1625              		.cfi_def_cfa_register 13
 1626              		@ sp needed
 1627 002c 5DF8047B 		ldr	r7, [sp], #4
 1628              	.LCFI76:
 1629              		.cfi_restore 7
 1630              		.cfi_def_cfa_offset 0
 1631 0030 7047     		bx	lr
 1632              	.L82:
 1633 0032 00BF     		.align	2
 1634              	.L81:
 1635 0034 F8FFFDBF 		.word	-1073872904
 1636 0038 CDCCCCCC 		.word	-858993459
 1637 003c 00000240 		.word	1073872896
 1638              		.cfi_endproc
 1639              	.LFE136:
 1641              		.text
 1642              	.Letext0:
 1643              		.file 2 "/opt/st/stm32cubeide_1.3.0/plugins/com.st.stm32cube.ide.mcu.externaltools.gnu-tools-for-s
 1644              		.file 3 "/opt/st/stm32cubeide_1.3.0/plugins/com.st.stm32cube.ide.mcu.externaltools.gnu-tools-for-s
 1645              		.file 4 "Drivers/CMSIS/Include/core_cm4.h"
 1646              		.file 5 "Drivers/CMSIS/Device/ST/STM32F3xx/Include/system_stm32f3xx.h"
ARM GAS  /tmp/ccAMRbe4.s 			page 45


 1647              		.file 6 "Drivers/CMSIS/Device/ST/STM32F3xx/Include/stm32f303x8.h"
 1648              		.file 7 "Drivers/CMSIS/Device/ST/STM32F3xx/Include/stm32f3xx.h"
 1649              		.file 8 "Drivers/STM32F3xx_HAL_Driver/Inc/stm32f3xx_hal_def.h"
 1650              		.file 9 "Drivers/STM32F3xx_HAL_Driver/Inc/stm32f3xx_hal_dma.h"
 1651              		.file 10 "Drivers/STM32F3xx_HAL_Driver/Inc/stm32f3xx_hal.h"
ARM GAS  /tmp/ccAMRbe4.s 			page 46

