ARM GAS  /tmp/ccHRgJQr.s 			page 1


   1              		.cpu cortex-m4
   2              		.eabi_attribute 27, 1
   3              		.eabi_attribute 28, 1
   4              		.eabi_attribute 20, 1
   5              		.eabi_attribute 21, 1
   6              		.eabi_attribute 23, 3
   7              		.eabi_attribute 24, 1
   8              		.eabi_attribute 25, 1
   9              		.eabi_attribute 26, 1
  10              		.eabi_attribute 30, 6
  11              		.eabi_attribute 34, 1
  12              		.eabi_attribute 18, 4
  13              		.file	"stm32f3xx_hal_flash.c"
  14              		.text
  15              	.Ltext0:
  16              		.cfi_sections	.debug_frame
  17              		.comm	pFlash,32,8
  18              		.section	.text.HAL_FLASH_Program,"ax",%progbits
  19              		.align	1
  20              		.global	HAL_FLASH_Program
  21              		.syntax unified
  22              		.thumb
  23              		.thumb_func
  24              		.fpu fpv4-sp-d16
  26              	HAL_FLASH_Program:
  27              	.LFB123:
  28              		.file 1 "Drivers/STM32F3xx_HAL_Driver/Src/stm32f3xx_hal_flash.c"
   1:Drivers/STM32F3xx_HAL_Driver/Src/stm32f3xx_hal_flash.c **** /**
   2:Drivers/STM32F3xx_HAL_Driver/Src/stm32f3xx_hal_flash.c ****   ******************************************************************************
   3:Drivers/STM32F3xx_HAL_Driver/Src/stm32f3xx_hal_flash.c ****   * @file    stm32f3xx_hal_flash.c
   4:Drivers/STM32F3xx_HAL_Driver/Src/stm32f3xx_hal_flash.c ****   * @author  MCD Application Team
   5:Drivers/STM32F3xx_HAL_Driver/Src/stm32f3xx_hal_flash.c ****   * @brief   FLASH HAL module driver.
   6:Drivers/STM32F3xx_HAL_Driver/Src/stm32f3xx_hal_flash.c ****   *          This file provides firmware functions to manage the following 
   7:Drivers/STM32F3xx_HAL_Driver/Src/stm32f3xx_hal_flash.c ****   *          functionalities of the internal FLASH memory:
   8:Drivers/STM32F3xx_HAL_Driver/Src/stm32f3xx_hal_flash.c ****   *           + Program operations functions
   9:Drivers/STM32F3xx_HAL_Driver/Src/stm32f3xx_hal_flash.c ****   *           + Memory Control functions 
  10:Drivers/STM32F3xx_HAL_Driver/Src/stm32f3xx_hal_flash.c ****   *           + Peripheral State functions
  11:Drivers/STM32F3xx_HAL_Driver/Src/stm32f3xx_hal_flash.c ****   *         
  12:Drivers/STM32F3xx_HAL_Driver/Src/stm32f3xx_hal_flash.c ****   @verbatim
  13:Drivers/STM32F3xx_HAL_Driver/Src/stm32f3xx_hal_flash.c ****   ==============================================================================
  14:Drivers/STM32F3xx_HAL_Driver/Src/stm32f3xx_hal_flash.c ****                         ##### FLASH peripheral features #####
  15:Drivers/STM32F3xx_HAL_Driver/Src/stm32f3xx_hal_flash.c ****   ==============================================================================
  16:Drivers/STM32F3xx_HAL_Driver/Src/stm32f3xx_hal_flash.c ****   [..] The Flash memory interface manages CPU AHB I-Code and D-Code accesses 
  17:Drivers/STM32F3xx_HAL_Driver/Src/stm32f3xx_hal_flash.c ****        to the Flash memory. It implements the erase and program Flash memory operations 
  18:Drivers/STM32F3xx_HAL_Driver/Src/stm32f3xx_hal_flash.c ****        and the read and write protection mechanisms.
  19:Drivers/STM32F3xx_HAL_Driver/Src/stm32f3xx_hal_flash.c **** 
  20:Drivers/STM32F3xx_HAL_Driver/Src/stm32f3xx_hal_flash.c ****   [..] The Flash memory interface accelerates code execution with a system of instruction
  21:Drivers/STM32F3xx_HAL_Driver/Src/stm32f3xx_hal_flash.c ****       prefetch. 
  22:Drivers/STM32F3xx_HAL_Driver/Src/stm32f3xx_hal_flash.c **** 
  23:Drivers/STM32F3xx_HAL_Driver/Src/stm32f3xx_hal_flash.c ****   [..] The FLASH main features are:
  24:Drivers/STM32F3xx_HAL_Driver/Src/stm32f3xx_hal_flash.c ****       (+) Flash memory read operations
  25:Drivers/STM32F3xx_HAL_Driver/Src/stm32f3xx_hal_flash.c ****       (+) Flash memory program/erase operations
  26:Drivers/STM32F3xx_HAL_Driver/Src/stm32f3xx_hal_flash.c ****       (+) Read / write protections
  27:Drivers/STM32F3xx_HAL_Driver/Src/stm32f3xx_hal_flash.c ****       (+) Prefetch on I-Code
  28:Drivers/STM32F3xx_HAL_Driver/Src/stm32f3xx_hal_flash.c ****       (+) Option Bytes programming
  29:Drivers/STM32F3xx_HAL_Driver/Src/stm32f3xx_hal_flash.c **** 
  30:Drivers/STM32F3xx_HAL_Driver/Src/stm32f3xx_hal_flash.c **** 
ARM GAS  /tmp/ccHRgJQr.s 			page 2


  31:Drivers/STM32F3xx_HAL_Driver/Src/stm32f3xx_hal_flash.c ****                      ##### How to use this driver #####
  32:Drivers/STM32F3xx_HAL_Driver/Src/stm32f3xx_hal_flash.c ****   ==============================================================================
  33:Drivers/STM32F3xx_HAL_Driver/Src/stm32f3xx_hal_flash.c ****   [..]                             
  34:Drivers/STM32F3xx_HAL_Driver/Src/stm32f3xx_hal_flash.c ****       This driver provides functions and macros to configure and program the FLASH 
  35:Drivers/STM32F3xx_HAL_Driver/Src/stm32f3xx_hal_flash.c ****       memory of all STM32F3xx devices.
  36:Drivers/STM32F3xx_HAL_Driver/Src/stm32f3xx_hal_flash.c ****     
  37:Drivers/STM32F3xx_HAL_Driver/Src/stm32f3xx_hal_flash.c ****       (#) FLASH Memory I/O Programming functions: this group includes all needed
  38:Drivers/STM32F3xx_HAL_Driver/Src/stm32f3xx_hal_flash.c ****           functions to erase and program the main memory:
  39:Drivers/STM32F3xx_HAL_Driver/Src/stm32f3xx_hal_flash.c ****         (++) Lock and Unlock the FLASH interface
  40:Drivers/STM32F3xx_HAL_Driver/Src/stm32f3xx_hal_flash.c ****         (++) Erase function: Erase page, erase all pages
  41:Drivers/STM32F3xx_HAL_Driver/Src/stm32f3xx_hal_flash.c ****         (++) Program functions: half word, word and doubleword
  42:Drivers/STM32F3xx_HAL_Driver/Src/stm32f3xx_hal_flash.c ****       (#) FLASH Option Bytes Programming functions: this group includes all needed
  43:Drivers/STM32F3xx_HAL_Driver/Src/stm32f3xx_hal_flash.c ****           functions to manage the Option Bytes:
  44:Drivers/STM32F3xx_HAL_Driver/Src/stm32f3xx_hal_flash.c ****         (++) Lock and Unlock the Option Bytes
  45:Drivers/STM32F3xx_HAL_Driver/Src/stm32f3xx_hal_flash.c ****         (++) Set/Reset the write protection
  46:Drivers/STM32F3xx_HAL_Driver/Src/stm32f3xx_hal_flash.c ****         (++) Set the Read protection Level
  47:Drivers/STM32F3xx_HAL_Driver/Src/stm32f3xx_hal_flash.c ****         (++) Program the user Option Bytes
  48:Drivers/STM32F3xx_HAL_Driver/Src/stm32f3xx_hal_flash.c ****         (++) Launch the Option Bytes loader
  49:Drivers/STM32F3xx_HAL_Driver/Src/stm32f3xx_hal_flash.c ****         (++) Erase Option Bytes
  50:Drivers/STM32F3xx_HAL_Driver/Src/stm32f3xx_hal_flash.c ****         (++) Program the data Option Bytes
  51:Drivers/STM32F3xx_HAL_Driver/Src/stm32f3xx_hal_flash.c ****         (++) Get the Write protection.
  52:Drivers/STM32F3xx_HAL_Driver/Src/stm32f3xx_hal_flash.c ****         (++) Get the user option bytes.
  53:Drivers/STM32F3xx_HAL_Driver/Src/stm32f3xx_hal_flash.c ****     
  54:Drivers/STM32F3xx_HAL_Driver/Src/stm32f3xx_hal_flash.c ****       (#) Interrupts and flags management functions : this group 
  55:Drivers/STM32F3xx_HAL_Driver/Src/stm32f3xx_hal_flash.c ****           includes all needed functions to:
  56:Drivers/STM32F3xx_HAL_Driver/Src/stm32f3xx_hal_flash.c ****         (++) Handle FLASH interrupts
  57:Drivers/STM32F3xx_HAL_Driver/Src/stm32f3xx_hal_flash.c ****         (++) Wait for last FLASH operation according to its status
  58:Drivers/STM32F3xx_HAL_Driver/Src/stm32f3xx_hal_flash.c ****         (++) Get error flag status
  59:Drivers/STM32F3xx_HAL_Driver/Src/stm32f3xx_hal_flash.c **** 
  60:Drivers/STM32F3xx_HAL_Driver/Src/stm32f3xx_hal_flash.c ****   [..] In addition to these function, this driver includes a set of macros allowing
  61:Drivers/STM32F3xx_HAL_Driver/Src/stm32f3xx_hal_flash.c ****        to handle the following operations:
  62:Drivers/STM32F3xx_HAL_Driver/Src/stm32f3xx_hal_flash.c ****       
  63:Drivers/STM32F3xx_HAL_Driver/Src/stm32f3xx_hal_flash.c ****       (+) Set/Get the latency
  64:Drivers/STM32F3xx_HAL_Driver/Src/stm32f3xx_hal_flash.c ****       (+) Enable/Disable the prefetch buffer
  65:Drivers/STM32F3xx_HAL_Driver/Src/stm32f3xx_hal_flash.c ****       (+) Enable/Disable the half cycle access
  66:Drivers/STM32F3xx_HAL_Driver/Src/stm32f3xx_hal_flash.c ****       (+) Enable/Disable the FLASH interrupts
  67:Drivers/STM32F3xx_HAL_Driver/Src/stm32f3xx_hal_flash.c ****       (+) Monitor the FLASH flags status
  68:Drivers/STM32F3xx_HAL_Driver/Src/stm32f3xx_hal_flash.c ****           
  69:Drivers/STM32F3xx_HAL_Driver/Src/stm32f3xx_hal_flash.c ****   @endverbatim
  70:Drivers/STM32F3xx_HAL_Driver/Src/stm32f3xx_hal_flash.c ****   ******************************************************************************
  71:Drivers/STM32F3xx_HAL_Driver/Src/stm32f3xx_hal_flash.c ****   * @attention
  72:Drivers/STM32F3xx_HAL_Driver/Src/stm32f3xx_hal_flash.c ****   *
  73:Drivers/STM32F3xx_HAL_Driver/Src/stm32f3xx_hal_flash.c ****   * <h2><center>&copy; Copyright (c) 2016 STMicroelectronics.
  74:Drivers/STM32F3xx_HAL_Driver/Src/stm32f3xx_hal_flash.c ****   * All rights reserved.</center></h2>
  75:Drivers/STM32F3xx_HAL_Driver/Src/stm32f3xx_hal_flash.c ****   *
  76:Drivers/STM32F3xx_HAL_Driver/Src/stm32f3xx_hal_flash.c ****   * This software component is licensed by ST under BSD 3-Clause license,
  77:Drivers/STM32F3xx_HAL_Driver/Src/stm32f3xx_hal_flash.c ****   * the "License"; You may not use this file except in compliance with the
  78:Drivers/STM32F3xx_HAL_Driver/Src/stm32f3xx_hal_flash.c ****   * License. You may obtain a copy of the License at:
  79:Drivers/STM32F3xx_HAL_Driver/Src/stm32f3xx_hal_flash.c ****   *                        opensource.org/licenses/BSD-3-Clause
  80:Drivers/STM32F3xx_HAL_Driver/Src/stm32f3xx_hal_flash.c ****   *
  81:Drivers/STM32F3xx_HAL_Driver/Src/stm32f3xx_hal_flash.c ****   ******************************************************************************
  82:Drivers/STM32F3xx_HAL_Driver/Src/stm32f3xx_hal_flash.c ****   */
  83:Drivers/STM32F3xx_HAL_Driver/Src/stm32f3xx_hal_flash.c **** 
  84:Drivers/STM32F3xx_HAL_Driver/Src/stm32f3xx_hal_flash.c **** /* Includes ------------------------------------------------------------------*/
  85:Drivers/STM32F3xx_HAL_Driver/Src/stm32f3xx_hal_flash.c **** #include "stm32f3xx_hal.h"
  86:Drivers/STM32F3xx_HAL_Driver/Src/stm32f3xx_hal_flash.c **** 
  87:Drivers/STM32F3xx_HAL_Driver/Src/stm32f3xx_hal_flash.c **** /** @addtogroup STM32F3xx_HAL_Driver
ARM GAS  /tmp/ccHRgJQr.s 			page 3


  88:Drivers/STM32F3xx_HAL_Driver/Src/stm32f3xx_hal_flash.c ****   * @{
  89:Drivers/STM32F3xx_HAL_Driver/Src/stm32f3xx_hal_flash.c ****   */
  90:Drivers/STM32F3xx_HAL_Driver/Src/stm32f3xx_hal_flash.c **** 
  91:Drivers/STM32F3xx_HAL_Driver/Src/stm32f3xx_hal_flash.c **** #ifdef HAL_FLASH_MODULE_ENABLED
  92:Drivers/STM32F3xx_HAL_Driver/Src/stm32f3xx_hal_flash.c **** 
  93:Drivers/STM32F3xx_HAL_Driver/Src/stm32f3xx_hal_flash.c **** /** @defgroup FLASH FLASH
  94:Drivers/STM32F3xx_HAL_Driver/Src/stm32f3xx_hal_flash.c ****   * @brief FLASH HAL module driver
  95:Drivers/STM32F3xx_HAL_Driver/Src/stm32f3xx_hal_flash.c ****   * @{
  96:Drivers/STM32F3xx_HAL_Driver/Src/stm32f3xx_hal_flash.c ****   */
  97:Drivers/STM32F3xx_HAL_Driver/Src/stm32f3xx_hal_flash.c **** 
  98:Drivers/STM32F3xx_HAL_Driver/Src/stm32f3xx_hal_flash.c **** /* Private typedef -----------------------------------------------------------*/
  99:Drivers/STM32F3xx_HAL_Driver/Src/stm32f3xx_hal_flash.c **** /* Private define ------------------------------------------------------------*/
 100:Drivers/STM32F3xx_HAL_Driver/Src/stm32f3xx_hal_flash.c **** /** @defgroup FLASH_Private_Constants FLASH Private Constants
 101:Drivers/STM32F3xx_HAL_Driver/Src/stm32f3xx_hal_flash.c ****   * @{
 102:Drivers/STM32F3xx_HAL_Driver/Src/stm32f3xx_hal_flash.c ****   */
 103:Drivers/STM32F3xx_HAL_Driver/Src/stm32f3xx_hal_flash.c **** /**
 104:Drivers/STM32F3xx_HAL_Driver/Src/stm32f3xx_hal_flash.c ****   * @}
 105:Drivers/STM32F3xx_HAL_Driver/Src/stm32f3xx_hal_flash.c ****   */
 106:Drivers/STM32F3xx_HAL_Driver/Src/stm32f3xx_hal_flash.c **** 
 107:Drivers/STM32F3xx_HAL_Driver/Src/stm32f3xx_hal_flash.c **** /* Private macro ---------------------------- ---------------------------------*/
 108:Drivers/STM32F3xx_HAL_Driver/Src/stm32f3xx_hal_flash.c **** /** @defgroup FLASH_Private_Macros FLASH Private Macros
 109:Drivers/STM32F3xx_HAL_Driver/Src/stm32f3xx_hal_flash.c ****   * @{
 110:Drivers/STM32F3xx_HAL_Driver/Src/stm32f3xx_hal_flash.c ****   */
 111:Drivers/STM32F3xx_HAL_Driver/Src/stm32f3xx_hal_flash.c ****  
 112:Drivers/STM32F3xx_HAL_Driver/Src/stm32f3xx_hal_flash.c **** /**
 113:Drivers/STM32F3xx_HAL_Driver/Src/stm32f3xx_hal_flash.c ****   * @}
 114:Drivers/STM32F3xx_HAL_Driver/Src/stm32f3xx_hal_flash.c ****   */
 115:Drivers/STM32F3xx_HAL_Driver/Src/stm32f3xx_hal_flash.c **** 
 116:Drivers/STM32F3xx_HAL_Driver/Src/stm32f3xx_hal_flash.c **** /* Private variables ---------------------------------------------------------*/
 117:Drivers/STM32F3xx_HAL_Driver/Src/stm32f3xx_hal_flash.c **** /** @defgroup FLASH_Private_Variables FLASH Private Variables
 118:Drivers/STM32F3xx_HAL_Driver/Src/stm32f3xx_hal_flash.c ****   * @{
 119:Drivers/STM32F3xx_HAL_Driver/Src/stm32f3xx_hal_flash.c ****   */
 120:Drivers/STM32F3xx_HAL_Driver/Src/stm32f3xx_hal_flash.c **** /* Variables used for Erase pages under interruption*/
 121:Drivers/STM32F3xx_HAL_Driver/Src/stm32f3xx_hal_flash.c **** FLASH_ProcessTypeDef pFlash;
 122:Drivers/STM32F3xx_HAL_Driver/Src/stm32f3xx_hal_flash.c **** /**
 123:Drivers/STM32F3xx_HAL_Driver/Src/stm32f3xx_hal_flash.c ****   * @}
 124:Drivers/STM32F3xx_HAL_Driver/Src/stm32f3xx_hal_flash.c ****   */
 125:Drivers/STM32F3xx_HAL_Driver/Src/stm32f3xx_hal_flash.c **** 
 126:Drivers/STM32F3xx_HAL_Driver/Src/stm32f3xx_hal_flash.c **** /* Private function prototypes -----------------------------------------------*/
 127:Drivers/STM32F3xx_HAL_Driver/Src/stm32f3xx_hal_flash.c **** /** @defgroup FLASH_Private_Functions FLASH Private Functions
 128:Drivers/STM32F3xx_HAL_Driver/Src/stm32f3xx_hal_flash.c ****   * @{
 129:Drivers/STM32F3xx_HAL_Driver/Src/stm32f3xx_hal_flash.c ****   */
 130:Drivers/STM32F3xx_HAL_Driver/Src/stm32f3xx_hal_flash.c **** static  void   FLASH_Program_HalfWord(uint32_t Address, uint16_t Data);
 131:Drivers/STM32F3xx_HAL_Driver/Src/stm32f3xx_hal_flash.c **** static  void   FLASH_SetErrorCode(void);
 132:Drivers/STM32F3xx_HAL_Driver/Src/stm32f3xx_hal_flash.c **** extern void    FLASH_PageErase(uint32_t PageAddress);
 133:Drivers/STM32F3xx_HAL_Driver/Src/stm32f3xx_hal_flash.c **** /**
 134:Drivers/STM32F3xx_HAL_Driver/Src/stm32f3xx_hal_flash.c ****   * @}
 135:Drivers/STM32F3xx_HAL_Driver/Src/stm32f3xx_hal_flash.c ****   */
 136:Drivers/STM32F3xx_HAL_Driver/Src/stm32f3xx_hal_flash.c **** 
 137:Drivers/STM32F3xx_HAL_Driver/Src/stm32f3xx_hal_flash.c **** /* Exported functions ---------------------------------------------------------*/
 138:Drivers/STM32F3xx_HAL_Driver/Src/stm32f3xx_hal_flash.c **** /** @defgroup FLASH_Exported_Functions FLASH Exported Functions
 139:Drivers/STM32F3xx_HAL_Driver/Src/stm32f3xx_hal_flash.c ****   * @{
 140:Drivers/STM32F3xx_HAL_Driver/Src/stm32f3xx_hal_flash.c ****   */
 141:Drivers/STM32F3xx_HAL_Driver/Src/stm32f3xx_hal_flash.c ****   
 142:Drivers/STM32F3xx_HAL_Driver/Src/stm32f3xx_hal_flash.c **** /** @defgroup FLASH_Exported_Functions_Group1 Programming operation functions 
 143:Drivers/STM32F3xx_HAL_Driver/Src/stm32f3xx_hal_flash.c ****   *  @brief   Programming operation functions 
 144:Drivers/STM32F3xx_HAL_Driver/Src/stm32f3xx_hal_flash.c ****   *
ARM GAS  /tmp/ccHRgJQr.s 			page 4


 145:Drivers/STM32F3xx_HAL_Driver/Src/stm32f3xx_hal_flash.c **** @verbatim   
 146:Drivers/STM32F3xx_HAL_Driver/Src/stm32f3xx_hal_flash.c **** @endverbatim
 147:Drivers/STM32F3xx_HAL_Driver/Src/stm32f3xx_hal_flash.c ****   * @{
 148:Drivers/STM32F3xx_HAL_Driver/Src/stm32f3xx_hal_flash.c ****   */
 149:Drivers/STM32F3xx_HAL_Driver/Src/stm32f3xx_hal_flash.c **** 
 150:Drivers/STM32F3xx_HAL_Driver/Src/stm32f3xx_hal_flash.c **** /**
 151:Drivers/STM32F3xx_HAL_Driver/Src/stm32f3xx_hal_flash.c ****   * @brief  Program halfword, word or double word at a specified address
 152:Drivers/STM32F3xx_HAL_Driver/Src/stm32f3xx_hal_flash.c ****   * @note   The function HAL_FLASH_Unlock() should be called before to unlock the FLASH interface
 153:Drivers/STM32F3xx_HAL_Driver/Src/stm32f3xx_hal_flash.c ****   *         The function HAL_FLASH_Lock() should be called after to lock the FLASH interface
 154:Drivers/STM32F3xx_HAL_Driver/Src/stm32f3xx_hal_flash.c ****   *
 155:Drivers/STM32F3xx_HAL_Driver/Src/stm32f3xx_hal_flash.c ****   * @note   If an erase and a program operations are requested simultaneously,    
 156:Drivers/STM32F3xx_HAL_Driver/Src/stm32f3xx_hal_flash.c ****   *         the erase operation is performed before the program one.
 157:Drivers/STM32F3xx_HAL_Driver/Src/stm32f3xx_hal_flash.c ****   *  
 158:Drivers/STM32F3xx_HAL_Driver/Src/stm32f3xx_hal_flash.c ****   * @note   FLASH should be previously erased before new programming (only exception to this 
 159:Drivers/STM32F3xx_HAL_Driver/Src/stm32f3xx_hal_flash.c ****   *         is when 0x0000 is programmed)
 160:Drivers/STM32F3xx_HAL_Driver/Src/stm32f3xx_hal_flash.c ****   *
 161:Drivers/STM32F3xx_HAL_Driver/Src/stm32f3xx_hal_flash.c ****   * @param  TypeProgram   Indicate the way to program at a specified address.
 162:Drivers/STM32F3xx_HAL_Driver/Src/stm32f3xx_hal_flash.c ****   *                       This parameter can be a value of @ref FLASH_Type_Program
 163:Drivers/STM32F3xx_HAL_Driver/Src/stm32f3xx_hal_flash.c ****   * @param  Address       Specifie the address to be programmed.
 164:Drivers/STM32F3xx_HAL_Driver/Src/stm32f3xx_hal_flash.c ****   * @param  Data          Specifie the data to be programmed
 165:Drivers/STM32F3xx_HAL_Driver/Src/stm32f3xx_hal_flash.c ****   * 
 166:Drivers/STM32F3xx_HAL_Driver/Src/stm32f3xx_hal_flash.c ****   * @retval HAL_StatusTypeDef HAL Status
 167:Drivers/STM32F3xx_HAL_Driver/Src/stm32f3xx_hal_flash.c ****   */
 168:Drivers/STM32F3xx_HAL_Driver/Src/stm32f3xx_hal_flash.c **** HAL_StatusTypeDef HAL_FLASH_Program(uint32_t TypeProgram, uint32_t Address, uint64_t Data)
 169:Drivers/STM32F3xx_HAL_Driver/Src/stm32f3xx_hal_flash.c **** {
  29              		.loc 1 169 0
  30              		.cfi_startproc
  31              		@ args = 0, pretend = 0, frame = 24
  32              		@ frame_needed = 1, uses_anonymous_args = 0
  33 0000 F0B5     		push	{r4, r5, r6, r7, lr}
  34              	.LCFI0:
  35              		.cfi_def_cfa_offset 20
  36              		.cfi_offset 4, -20
  37              		.cfi_offset 5, -16
  38              		.cfi_offset 6, -12
  39              		.cfi_offset 7, -8
  40              		.cfi_offset 14, -4
  41 0002 87B0     		sub	sp, sp, #28
  42              	.LCFI1:
  43              		.cfi_def_cfa_offset 48
  44 0004 00AF     		add	r7, sp, #0
  45              	.LCFI2:
  46              		.cfi_def_cfa_register 7
  47 0006 F860     		str	r0, [r7, #12]
  48 0008 B960     		str	r1, [r7, #8]
  49 000a C7E90023 		strd	r2, [r7]
 170:Drivers/STM32F3xx_HAL_Driver/Src/stm32f3xx_hal_flash.c ****   HAL_StatusTypeDef status = HAL_ERROR;
  50              		.loc 1 170 0
  51 000e 0123     		movs	r3, #1
  52 0010 FB75     		strb	r3, [r7, #23]
 171:Drivers/STM32F3xx_HAL_Driver/Src/stm32f3xx_hal_flash.c ****   uint8_t index = 0U;
  53              		.loc 1 171 0
  54 0012 0023     		movs	r3, #0
  55 0014 BB75     		strb	r3, [r7, #22]
 172:Drivers/STM32F3xx_HAL_Driver/Src/stm32f3xx_hal_flash.c ****   uint8_t nbiterations = 0U;
  56              		.loc 1 172 0
  57 0016 0023     		movs	r3, #0
ARM GAS  /tmp/ccHRgJQr.s 			page 5


  58 0018 7B75     		strb	r3, [r7, #21]
 173:Drivers/STM32F3xx_HAL_Driver/Src/stm32f3xx_hal_flash.c ****   
 174:Drivers/STM32F3xx_HAL_Driver/Src/stm32f3xx_hal_flash.c ****   /* Process Locked */
 175:Drivers/STM32F3xx_HAL_Driver/Src/stm32f3xx_hal_flash.c ****   __HAL_LOCK(&pFlash);
  59              		.loc 1 175 0
  60 001a 2F4B     		ldr	r3, .L12
  61 001c 1B7E     		ldrb	r3, [r3, #24]	@ zero_extendqisi2
  62 001e 012B     		cmp	r3, #1
  63 0020 01D1     		bne	.L2
  64              		.loc 1 175 0 is_stmt 0 discriminator 1
  65 0022 0223     		movs	r3, #2
  66 0024 54E0     		b	.L3
  67              	.L2:
  68              		.loc 1 175 0 discriminator 2
  69 0026 2C4B     		ldr	r3, .L12
  70 0028 0122     		movs	r2, #1
  71 002a 1A76     		strb	r2, [r3, #24]
 176:Drivers/STM32F3xx_HAL_Driver/Src/stm32f3xx_hal_flash.c **** 
 177:Drivers/STM32F3xx_HAL_Driver/Src/stm32f3xx_hal_flash.c ****   /* Check the parameters */
 178:Drivers/STM32F3xx_HAL_Driver/Src/stm32f3xx_hal_flash.c ****   assert_param(IS_FLASH_TYPEPROGRAM(TypeProgram));
 179:Drivers/STM32F3xx_HAL_Driver/Src/stm32f3xx_hal_flash.c ****   assert_param(IS_FLASH_PROGRAM_ADDRESS(Address));
 180:Drivers/STM32F3xx_HAL_Driver/Src/stm32f3xx_hal_flash.c **** 
 181:Drivers/STM32F3xx_HAL_Driver/Src/stm32f3xx_hal_flash.c ****     /* Wait for last operation to be completed */
 182:Drivers/STM32F3xx_HAL_Driver/Src/stm32f3xx_hal_flash.c ****     status = FLASH_WaitForLastOperation(FLASH_TIMEOUT_VALUE);
  72              		.loc 1 182 0 is_stmt 1 discriminator 2
  73 002c 4CF25030 		movw	r0, #50000
  74 0030 FFF7FEFF 		bl	FLASH_WaitForLastOperation
  75 0034 0346     		mov	r3, r0
  76 0036 FB75     		strb	r3, [r7, #23]
 183:Drivers/STM32F3xx_HAL_Driver/Src/stm32f3xx_hal_flash.c ****   
 184:Drivers/STM32F3xx_HAL_Driver/Src/stm32f3xx_hal_flash.c ****   if(status == HAL_OK)
  77              		.loc 1 184 0 discriminator 2
  78 0038 FB7D     		ldrb	r3, [r7, #23]	@ zero_extendqisi2
  79 003a 002B     		cmp	r3, #0
  80 003c 44D1     		bne	.L4
 185:Drivers/STM32F3xx_HAL_Driver/Src/stm32f3xx_hal_flash.c ****   {
 186:Drivers/STM32F3xx_HAL_Driver/Src/stm32f3xx_hal_flash.c ****     if(TypeProgram == FLASH_TYPEPROGRAM_HALFWORD)
  81              		.loc 1 186 0
  82 003e FB68     		ldr	r3, [r7, #12]
  83 0040 012B     		cmp	r3, #1
  84 0042 02D1     		bne	.L5
 187:Drivers/STM32F3xx_HAL_Driver/Src/stm32f3xx_hal_flash.c ****     {
 188:Drivers/STM32F3xx_HAL_Driver/Src/stm32f3xx_hal_flash.c ****       /* Program halfword (16-bit) at a specified address. */
 189:Drivers/STM32F3xx_HAL_Driver/Src/stm32f3xx_hal_flash.c ****       nbiterations = 1U;
  85              		.loc 1 189 0
  86 0044 0123     		movs	r3, #1
  87 0046 7B75     		strb	r3, [r7, #21]
  88 0048 07E0     		b	.L6
  89              	.L5:
 190:Drivers/STM32F3xx_HAL_Driver/Src/stm32f3xx_hal_flash.c ****     }
 191:Drivers/STM32F3xx_HAL_Driver/Src/stm32f3xx_hal_flash.c ****     else if(TypeProgram == FLASH_TYPEPROGRAM_WORD)
  90              		.loc 1 191 0
  91 004a FB68     		ldr	r3, [r7, #12]
  92 004c 022B     		cmp	r3, #2
  93 004e 02D1     		bne	.L7
 192:Drivers/STM32F3xx_HAL_Driver/Src/stm32f3xx_hal_flash.c ****     {
 193:Drivers/STM32F3xx_HAL_Driver/Src/stm32f3xx_hal_flash.c ****       /* Program word (32-bit = 2*16-bit) at a specified address. */
ARM GAS  /tmp/ccHRgJQr.s 			page 6


 194:Drivers/STM32F3xx_HAL_Driver/Src/stm32f3xx_hal_flash.c ****       nbiterations = 2U;
  94              		.loc 1 194 0
  95 0050 0223     		movs	r3, #2
  96 0052 7B75     		strb	r3, [r7, #21]
  97 0054 01E0     		b	.L6
  98              	.L7:
 195:Drivers/STM32F3xx_HAL_Driver/Src/stm32f3xx_hal_flash.c ****     }
 196:Drivers/STM32F3xx_HAL_Driver/Src/stm32f3xx_hal_flash.c ****     else
 197:Drivers/STM32F3xx_HAL_Driver/Src/stm32f3xx_hal_flash.c ****     {
 198:Drivers/STM32F3xx_HAL_Driver/Src/stm32f3xx_hal_flash.c ****       /* Program double word (64-bit = 4*16-bit) at a specified address. */
 199:Drivers/STM32F3xx_HAL_Driver/Src/stm32f3xx_hal_flash.c ****       nbiterations = 4U;
  99              		.loc 1 199 0
 100 0056 0423     		movs	r3, #4
 101 0058 7B75     		strb	r3, [r7, #21]
 102              	.L6:
 200:Drivers/STM32F3xx_HAL_Driver/Src/stm32f3xx_hal_flash.c ****     }
 201:Drivers/STM32F3xx_HAL_Driver/Src/stm32f3xx_hal_flash.c **** 
 202:Drivers/STM32F3xx_HAL_Driver/Src/stm32f3xx_hal_flash.c ****     for (index = 0U; index < nbiterations; index++)
 103              		.loc 1 202 0
 104 005a 0023     		movs	r3, #0
 105 005c BB75     		strb	r3, [r7, #22]
 106 005e 2DE0     		b	.L8
 107              	.L10:
 203:Drivers/STM32F3xx_HAL_Driver/Src/stm32f3xx_hal_flash.c ****     {
 204:Drivers/STM32F3xx_HAL_Driver/Src/stm32f3xx_hal_flash.c ****       FLASH_Program_HalfWord((Address + (2U*index)), (uint16_t)(Data >> (16U*index)));
 108              		.loc 1 204 0
 109 0060 BB7D     		ldrb	r3, [r7, #22]	@ zero_extendqisi2
 110 0062 5A00     		lsls	r2, r3, #1
 111 0064 BB68     		ldr	r3, [r7, #8]
 112 0066 02EB030C 		add	ip, r2, r3
 113 006a BB7D     		ldrb	r3, [r7, #22]	@ zero_extendqisi2
 114 006c 1901     		lsls	r1, r3, #4
 115 006e D7E90023 		ldrd	r2, [r7]
 116 0072 C1F12006 		rsb	r6, r1, #32
 117 0076 A1F12000 		sub	r0, r1, #32
 118 007a 22FA01F4 		lsr	r4, r2, r1
 119 007e 03FA06F6 		lsl	r6, r3, r6
 120 0082 3443     		orrs	r4, r4, r6
 121 0084 23FA00F0 		lsr	r0, r3, r0
 122 0088 0443     		orrs	r4, r4, r0
 123 008a 23FA01F5 		lsr	r5, r3, r1
 124 008e A3B2     		uxth	r3, r4
 125 0090 1946     		mov	r1, r3
 126 0092 6046     		mov	r0, ip
 127 0094 FFF7FEFF 		bl	FLASH_Program_HalfWord
 205:Drivers/STM32F3xx_HAL_Driver/Src/stm32f3xx_hal_flash.c **** 
 206:Drivers/STM32F3xx_HAL_Driver/Src/stm32f3xx_hal_flash.c ****         /* Wait for last operation to be completed */
 207:Drivers/STM32F3xx_HAL_Driver/Src/stm32f3xx_hal_flash.c ****         status = FLASH_WaitForLastOperation(FLASH_TIMEOUT_VALUE);
 128              		.loc 1 207 0
 129 0098 4CF25030 		movw	r0, #50000
 130 009c FFF7FEFF 		bl	FLASH_WaitForLastOperation
 131 00a0 0346     		mov	r3, r0
 132 00a2 FB75     		strb	r3, [r7, #23]
 208:Drivers/STM32F3xx_HAL_Driver/Src/stm32f3xx_hal_flash.c ****     
 209:Drivers/STM32F3xx_HAL_Driver/Src/stm32f3xx_hal_flash.c ****         /* If the program operation is completed, disable the PG Bit */
 210:Drivers/STM32F3xx_HAL_Driver/Src/stm32f3xx_hal_flash.c ****         CLEAR_BIT(FLASH->CR, FLASH_CR_PG);
 133              		.loc 1 210 0
ARM GAS  /tmp/ccHRgJQr.s 			page 7


 134 00a4 0D4B     		ldr	r3, .L12+4
 135 00a6 1B69     		ldr	r3, [r3, #16]
 136 00a8 0C4A     		ldr	r2, .L12+4
 137 00aa 23F00103 		bic	r3, r3, #1
 138 00ae 1361     		str	r3, [r2, #16]
 211:Drivers/STM32F3xx_HAL_Driver/Src/stm32f3xx_hal_flash.c ****       /* In case of error, stop programming procedure */
 212:Drivers/STM32F3xx_HAL_Driver/Src/stm32f3xx_hal_flash.c ****       if (status != HAL_OK)
 139              		.loc 1 212 0
 140 00b0 FB7D     		ldrb	r3, [r7, #23]	@ zero_extendqisi2
 141 00b2 002B     		cmp	r3, #0
 142 00b4 07D1     		bne	.L11
 202:Drivers/STM32F3xx_HAL_Driver/Src/stm32f3xx_hal_flash.c ****     {
 143              		.loc 1 202 0 discriminator 2
 144 00b6 BB7D     		ldrb	r3, [r7, #22]	@ zero_extendqisi2
 145 00b8 0133     		adds	r3, r3, #1
 146 00ba BB75     		strb	r3, [r7, #22]
 147              	.L8:
 202:Drivers/STM32F3xx_HAL_Driver/Src/stm32f3xx_hal_flash.c ****     {
 148              		.loc 1 202 0 is_stmt 0 discriminator 1
 149 00bc BA7D     		ldrb	r2, [r7, #22]	@ zero_extendqisi2
 150 00be 7B7D     		ldrb	r3, [r7, #21]	@ zero_extendqisi2
 151 00c0 9A42     		cmp	r2, r3
 152 00c2 CDD3     		bcc	.L10
 153 00c4 00E0     		b	.L4
 154              	.L11:
 213:Drivers/STM32F3xx_HAL_Driver/Src/stm32f3xx_hal_flash.c ****       {
 214:Drivers/STM32F3xx_HAL_Driver/Src/stm32f3xx_hal_flash.c ****         break;
 155              		.loc 1 214 0 is_stmt 1
 156 00c6 00BF     		nop
 157              	.L4:
 215:Drivers/STM32F3xx_HAL_Driver/Src/stm32f3xx_hal_flash.c ****       }
 216:Drivers/STM32F3xx_HAL_Driver/Src/stm32f3xx_hal_flash.c ****     }
 217:Drivers/STM32F3xx_HAL_Driver/Src/stm32f3xx_hal_flash.c ****   }
 218:Drivers/STM32F3xx_HAL_Driver/Src/stm32f3xx_hal_flash.c **** 
 219:Drivers/STM32F3xx_HAL_Driver/Src/stm32f3xx_hal_flash.c ****   /* Process Unlocked */
 220:Drivers/STM32F3xx_HAL_Driver/Src/stm32f3xx_hal_flash.c ****   __HAL_UNLOCK(&pFlash);
 158              		.loc 1 220 0
 159 00c8 034B     		ldr	r3, .L12
 160 00ca 0022     		movs	r2, #0
 161 00cc 1A76     		strb	r2, [r3, #24]
 221:Drivers/STM32F3xx_HAL_Driver/Src/stm32f3xx_hal_flash.c **** 
 222:Drivers/STM32F3xx_HAL_Driver/Src/stm32f3xx_hal_flash.c ****   return status;
 162              		.loc 1 222 0
 163 00ce FB7D     		ldrb	r3, [r7, #23]	@ zero_extendqisi2
 164              	.L3:
 223:Drivers/STM32F3xx_HAL_Driver/Src/stm32f3xx_hal_flash.c **** }
 165              		.loc 1 223 0
 166 00d0 1846     		mov	r0, r3
 167 00d2 1C37     		adds	r7, r7, #28
 168              	.LCFI3:
 169              		.cfi_def_cfa_offset 20
 170 00d4 BD46     		mov	sp, r7
 171              	.LCFI4:
 172              		.cfi_def_cfa_register 13
 173              		@ sp needed
 174 00d6 F0BD     		pop	{r4, r5, r6, r7, pc}
 175              	.L13:
ARM GAS  /tmp/ccHRgJQr.s 			page 8


 176              		.align	2
 177              	.L12:
 178 00d8 00000000 		.word	pFlash
 179 00dc 00200240 		.word	1073881088
 180              		.cfi_endproc
 181              	.LFE123:
 183              		.section	.text.HAL_FLASH_Program_IT,"ax",%progbits
 184              		.align	1
 185              		.global	HAL_FLASH_Program_IT
 186              		.syntax unified
 187              		.thumb
 188              		.thumb_func
 189              		.fpu fpv4-sp-d16
 191              	HAL_FLASH_Program_IT:
 192              	.LFB124:
 224:Drivers/STM32F3xx_HAL_Driver/Src/stm32f3xx_hal_flash.c **** 
 225:Drivers/STM32F3xx_HAL_Driver/Src/stm32f3xx_hal_flash.c **** /**
 226:Drivers/STM32F3xx_HAL_Driver/Src/stm32f3xx_hal_flash.c ****   * @brief  Program halfword, word or double word at a specified address  with interrupt enabled.
 227:Drivers/STM32F3xx_HAL_Driver/Src/stm32f3xx_hal_flash.c ****   * @note   The function HAL_FLASH_Unlock() should be called before to unlock the FLASH interface
 228:Drivers/STM32F3xx_HAL_Driver/Src/stm32f3xx_hal_flash.c ****   *         The function HAL_FLASH_Lock() should be called after to lock the FLASH interface
 229:Drivers/STM32F3xx_HAL_Driver/Src/stm32f3xx_hal_flash.c ****   *
 230:Drivers/STM32F3xx_HAL_Driver/Src/stm32f3xx_hal_flash.c ****   * @note   If an erase and a program operations are requested simultaneously,    
 231:Drivers/STM32F3xx_HAL_Driver/Src/stm32f3xx_hal_flash.c ****   *         the erase operation is performed before the program one.
 232:Drivers/STM32F3xx_HAL_Driver/Src/stm32f3xx_hal_flash.c ****   *
 233:Drivers/STM32F3xx_HAL_Driver/Src/stm32f3xx_hal_flash.c ****   * @param  TypeProgram  Indicate the way to program at a specified address.
 234:Drivers/STM32F3xx_HAL_Driver/Src/stm32f3xx_hal_flash.c ****   *                      This parameter can be a value of @ref FLASH_Type_Program
 235:Drivers/STM32F3xx_HAL_Driver/Src/stm32f3xx_hal_flash.c ****   * @param  Address      Specifie the address to be programmed.
 236:Drivers/STM32F3xx_HAL_Driver/Src/stm32f3xx_hal_flash.c ****   * @param  Data         Specifie the data to be programmed
 237:Drivers/STM32F3xx_HAL_Driver/Src/stm32f3xx_hal_flash.c ****   * 
 238:Drivers/STM32F3xx_HAL_Driver/Src/stm32f3xx_hal_flash.c ****   * @retval HAL_StatusTypeDef HAL Status
 239:Drivers/STM32F3xx_HAL_Driver/Src/stm32f3xx_hal_flash.c ****   */
 240:Drivers/STM32F3xx_HAL_Driver/Src/stm32f3xx_hal_flash.c **** HAL_StatusTypeDef HAL_FLASH_Program_IT(uint32_t TypeProgram, uint32_t Address, uint64_t Data)
 241:Drivers/STM32F3xx_HAL_Driver/Src/stm32f3xx_hal_flash.c **** {
 193              		.loc 1 241 0
 194              		.cfi_startproc
 195              		@ args = 0, pretend = 0, frame = 24
 196              		@ frame_needed = 1, uses_anonymous_args = 0
 197 0000 90B5     		push	{r4, r7, lr}
 198              	.LCFI5:
 199              		.cfi_def_cfa_offset 12
 200              		.cfi_offset 4, -12
 201              		.cfi_offset 7, -8
 202              		.cfi_offset 14, -4
 203 0002 87B0     		sub	sp, sp, #28
 204              	.LCFI6:
 205              		.cfi_def_cfa_offset 40
 206 0004 00AF     		add	r7, sp, #0
 207              	.LCFI7:
 208              		.cfi_def_cfa_register 7
 209 0006 F860     		str	r0, [r7, #12]
 210 0008 B960     		str	r1, [r7, #8]
 211 000a C7E90023 		strd	r2, [r7]
 242:Drivers/STM32F3xx_HAL_Driver/Src/stm32f3xx_hal_flash.c ****   HAL_StatusTypeDef status = HAL_OK;
 212              		.loc 1 242 0
 213 000e 0023     		movs	r3, #0
 214 0010 FB75     		strb	r3, [r7, #23]
 243:Drivers/STM32F3xx_HAL_Driver/Src/stm32f3xx_hal_flash.c ****   
ARM GAS  /tmp/ccHRgJQr.s 			page 9


 244:Drivers/STM32F3xx_HAL_Driver/Src/stm32f3xx_hal_flash.c ****   /* Process Locked */
 245:Drivers/STM32F3xx_HAL_Driver/Src/stm32f3xx_hal_flash.c ****   __HAL_LOCK(&pFlash);
 215              		.loc 1 245 0
 216 0012 1D4B     		ldr	r3, .L20
 217 0014 1B7E     		ldrb	r3, [r3, #24]	@ zero_extendqisi2
 218 0016 012B     		cmp	r3, #1
 219 0018 01D1     		bne	.L15
 220              		.loc 1 245 0 is_stmt 0 discriminator 1
 221 001a 0223     		movs	r3, #2
 222 001c 30E0     		b	.L16
 223              	.L15:
 224              		.loc 1 245 0 discriminator 2
 225 001e 1A4B     		ldr	r3, .L20
 226 0020 0122     		movs	r2, #1
 227 0022 1A76     		strb	r2, [r3, #24]
 246:Drivers/STM32F3xx_HAL_Driver/Src/stm32f3xx_hal_flash.c **** 
 247:Drivers/STM32F3xx_HAL_Driver/Src/stm32f3xx_hal_flash.c ****   /* Check the parameters */
 248:Drivers/STM32F3xx_HAL_Driver/Src/stm32f3xx_hal_flash.c ****   assert_param(IS_FLASH_TYPEPROGRAM(TypeProgram));
 249:Drivers/STM32F3xx_HAL_Driver/Src/stm32f3xx_hal_flash.c ****   assert_param(IS_FLASH_PROGRAM_ADDRESS(Address));
 250:Drivers/STM32F3xx_HAL_Driver/Src/stm32f3xx_hal_flash.c **** 
 251:Drivers/STM32F3xx_HAL_Driver/Src/stm32f3xx_hal_flash.c ****   /* Enable End of FLASH Operation and Error source interrupts */
 252:Drivers/STM32F3xx_HAL_Driver/Src/stm32f3xx_hal_flash.c ****   __HAL_FLASH_ENABLE_IT(FLASH_IT_EOP | FLASH_IT_ERR);
 228              		.loc 1 252 0 is_stmt 1 discriminator 2
 229 0024 194B     		ldr	r3, .L20+4
 230 0026 1B69     		ldr	r3, [r3, #16]
 231 0028 184A     		ldr	r2, .L20+4
 232 002a 43F4A053 		orr	r3, r3, #5120
 233 002e 1361     		str	r3, [r2, #16]
 253:Drivers/STM32F3xx_HAL_Driver/Src/stm32f3xx_hal_flash.c ****   
 254:Drivers/STM32F3xx_HAL_Driver/Src/stm32f3xx_hal_flash.c ****   pFlash.Address = Address;
 234              		.loc 1 254 0 discriminator 2
 235 0030 154A     		ldr	r2, .L20
 236 0032 BB68     		ldr	r3, [r7, #8]
 237 0034 9360     		str	r3, [r2, #8]
 255:Drivers/STM32F3xx_HAL_Driver/Src/stm32f3xx_hal_flash.c ****   pFlash.Data = Data;
 238              		.loc 1 255 0 discriminator 2
 239 0036 144A     		ldr	r2, .L20
 240 0038 D7E90034 		ldrd	r3, [r7]
 241 003c C2E90434 		strd	r3, [r2, #16]
 256:Drivers/STM32F3xx_HAL_Driver/Src/stm32f3xx_hal_flash.c **** 
 257:Drivers/STM32F3xx_HAL_Driver/Src/stm32f3xx_hal_flash.c ****   if(TypeProgram == FLASH_TYPEPROGRAM_HALFWORD)
 242              		.loc 1 257 0 discriminator 2
 243 0040 FB68     		ldr	r3, [r7, #12]
 244 0042 012B     		cmp	r3, #1
 245 0044 06D1     		bne	.L17
 258:Drivers/STM32F3xx_HAL_Driver/Src/stm32f3xx_hal_flash.c ****   {
 259:Drivers/STM32F3xx_HAL_Driver/Src/stm32f3xx_hal_flash.c ****     pFlash.ProcedureOnGoing = FLASH_PROC_PROGRAMHALFWORD;
 246              		.loc 1 259 0
 247 0046 104B     		ldr	r3, .L20
 248 0048 0322     		movs	r2, #3
 249 004a 1A70     		strb	r2, [r3]
 260:Drivers/STM32F3xx_HAL_Driver/Src/stm32f3xx_hal_flash.c ****     /* Program halfword (16-bit) at a specified address. */
 261:Drivers/STM32F3xx_HAL_Driver/Src/stm32f3xx_hal_flash.c ****     pFlash.DataRemaining = 1U;
 250              		.loc 1 261 0
 251 004c 0E4B     		ldr	r3, .L20
 252 004e 0122     		movs	r2, #1
 253 0050 5A60     		str	r2, [r3, #4]
ARM GAS  /tmp/ccHRgJQr.s 			page 10


 254 0052 0FE0     		b	.L18
 255              	.L17:
 262:Drivers/STM32F3xx_HAL_Driver/Src/stm32f3xx_hal_flash.c ****   }
 263:Drivers/STM32F3xx_HAL_Driver/Src/stm32f3xx_hal_flash.c ****   else if(TypeProgram == FLASH_TYPEPROGRAM_WORD)
 256              		.loc 1 263 0
 257 0054 FB68     		ldr	r3, [r7, #12]
 258 0056 022B     		cmp	r3, #2
 259 0058 06D1     		bne	.L19
 264:Drivers/STM32F3xx_HAL_Driver/Src/stm32f3xx_hal_flash.c ****   {
 265:Drivers/STM32F3xx_HAL_Driver/Src/stm32f3xx_hal_flash.c ****     pFlash.ProcedureOnGoing = FLASH_PROC_PROGRAMWORD;
 260              		.loc 1 265 0
 261 005a 0B4B     		ldr	r3, .L20
 262 005c 0422     		movs	r2, #4
 263 005e 1A70     		strb	r2, [r3]
 266:Drivers/STM32F3xx_HAL_Driver/Src/stm32f3xx_hal_flash.c ****     /* Program word (32-bit : 2*16-bit) at a specified address. */
 267:Drivers/STM32F3xx_HAL_Driver/Src/stm32f3xx_hal_flash.c ****     pFlash.DataRemaining = 2U;
 264              		.loc 1 267 0
 265 0060 094B     		ldr	r3, .L20
 266 0062 0222     		movs	r2, #2
 267 0064 5A60     		str	r2, [r3, #4]
 268 0066 05E0     		b	.L18
 269              	.L19:
 268:Drivers/STM32F3xx_HAL_Driver/Src/stm32f3xx_hal_flash.c ****   }
 269:Drivers/STM32F3xx_HAL_Driver/Src/stm32f3xx_hal_flash.c ****   else
 270:Drivers/STM32F3xx_HAL_Driver/Src/stm32f3xx_hal_flash.c ****   {
 271:Drivers/STM32F3xx_HAL_Driver/Src/stm32f3xx_hal_flash.c ****     pFlash.ProcedureOnGoing = FLASH_PROC_PROGRAMDOUBLEWORD;
 270              		.loc 1 271 0
 271 0068 074B     		ldr	r3, .L20
 272 006a 0522     		movs	r2, #5
 273 006c 1A70     		strb	r2, [r3]
 272:Drivers/STM32F3xx_HAL_Driver/Src/stm32f3xx_hal_flash.c ****     /* Program double word (64-bit : 4*16-bit) at a specified address. */
 273:Drivers/STM32F3xx_HAL_Driver/Src/stm32f3xx_hal_flash.c ****     pFlash.DataRemaining = 4U;
 274              		.loc 1 273 0
 275 006e 064B     		ldr	r3, .L20
 276 0070 0422     		movs	r2, #4
 277 0072 5A60     		str	r2, [r3, #4]
 278              	.L18:
 274:Drivers/STM32F3xx_HAL_Driver/Src/stm32f3xx_hal_flash.c ****   }
 275:Drivers/STM32F3xx_HAL_Driver/Src/stm32f3xx_hal_flash.c **** 
 276:Drivers/STM32F3xx_HAL_Driver/Src/stm32f3xx_hal_flash.c ****   /* Program halfword (16-bit) at a specified address. */
 277:Drivers/STM32F3xx_HAL_Driver/Src/stm32f3xx_hal_flash.c ****   FLASH_Program_HalfWord(Address, (uint16_t)Data);
 279              		.loc 1 277 0
 280 0074 3B88     		ldrh	r3, [r7]
 281 0076 1946     		mov	r1, r3
 282 0078 B868     		ldr	r0, [r7, #8]
 283 007a FFF7FEFF 		bl	FLASH_Program_HalfWord
 278:Drivers/STM32F3xx_HAL_Driver/Src/stm32f3xx_hal_flash.c **** 
 279:Drivers/STM32F3xx_HAL_Driver/Src/stm32f3xx_hal_flash.c ****   return status;
 284              		.loc 1 279 0
 285 007e FB7D     		ldrb	r3, [r7, #23]	@ zero_extendqisi2
 286              	.L16:
 280:Drivers/STM32F3xx_HAL_Driver/Src/stm32f3xx_hal_flash.c **** }
 287              		.loc 1 280 0
 288 0080 1846     		mov	r0, r3
 289 0082 1C37     		adds	r7, r7, #28
 290              	.LCFI8:
 291              		.cfi_def_cfa_offset 12
ARM GAS  /tmp/ccHRgJQr.s 			page 11


 292 0084 BD46     		mov	sp, r7
 293              	.LCFI9:
 294              		.cfi_def_cfa_register 13
 295              		@ sp needed
 296 0086 90BD     		pop	{r4, r7, pc}
 297              	.L21:
 298              		.align	2
 299              	.L20:
 300 0088 00000000 		.word	pFlash
 301 008c 00200240 		.word	1073881088
 302              		.cfi_endproc
 303              	.LFE124:
 305              		.section	.text.HAL_FLASH_IRQHandler,"ax",%progbits
 306              		.align	1
 307              		.global	HAL_FLASH_IRQHandler
 308              		.syntax unified
 309              		.thumb
 310              		.thumb_func
 311              		.fpu fpv4-sp-d16
 313              	HAL_FLASH_IRQHandler:
 314              	.LFB125:
 281:Drivers/STM32F3xx_HAL_Driver/Src/stm32f3xx_hal_flash.c **** 
 282:Drivers/STM32F3xx_HAL_Driver/Src/stm32f3xx_hal_flash.c **** /**
 283:Drivers/STM32F3xx_HAL_Driver/Src/stm32f3xx_hal_flash.c ****   * @brief This function handles FLASH interrupt request.
 284:Drivers/STM32F3xx_HAL_Driver/Src/stm32f3xx_hal_flash.c ****   * @retval None
 285:Drivers/STM32F3xx_HAL_Driver/Src/stm32f3xx_hal_flash.c ****   */
 286:Drivers/STM32F3xx_HAL_Driver/Src/stm32f3xx_hal_flash.c **** void HAL_FLASH_IRQHandler(void)
 287:Drivers/STM32F3xx_HAL_Driver/Src/stm32f3xx_hal_flash.c **** {
 315              		.loc 1 287 0
 316              		.cfi_startproc
 317              		@ args = 0, pretend = 0, frame = 8
 318              		@ frame_needed = 1, uses_anonymous_args = 0
 319 0000 90B5     		push	{r4, r7, lr}
 320              	.LCFI10:
 321              		.cfi_def_cfa_offset 12
 322              		.cfi_offset 4, -12
 323              		.cfi_offset 7, -8
 324              		.cfi_offset 14, -4
 325 0002 83B0     		sub	sp, sp, #12
 326              	.LCFI11:
 327              		.cfi_def_cfa_offset 24
 328 0004 00AF     		add	r7, sp, #0
 329              	.LCFI12:
 330              		.cfi_def_cfa_register 7
 288:Drivers/STM32F3xx_HAL_Driver/Src/stm32f3xx_hal_flash.c ****   uint32_t addresstmp = 0U;
 331              		.loc 1 288 0
 332 0006 0023     		movs	r3, #0
 333 0008 7B60     		str	r3, [r7, #4]
 289:Drivers/STM32F3xx_HAL_Driver/Src/stm32f3xx_hal_flash.c ****   
 290:Drivers/STM32F3xx_HAL_Driver/Src/stm32f3xx_hal_flash.c ****   /* Check FLASH operation error flags */
 291:Drivers/STM32F3xx_HAL_Driver/Src/stm32f3xx_hal_flash.c ****   if(__HAL_FLASH_GET_FLAG(FLASH_FLAG_WRPERR) ||__HAL_FLASH_GET_FLAG(FLASH_FLAG_PGERR))
 334              		.loc 1 291 0
 335 000a 6D4B     		ldr	r3, .L36
 336 000c DB68     		ldr	r3, [r3, #12]
 337 000e 03F01003 		and	r3, r3, #16
 338 0012 102B     		cmp	r3, #16
 339 0014 05D0     		beq	.L23
ARM GAS  /tmp/ccHRgJQr.s 			page 12


 340              		.loc 1 291 0 is_stmt 0 discriminator 1
 341 0016 6A4B     		ldr	r3, .L36
 342 0018 DB68     		ldr	r3, [r3, #12]
 343 001a 03F00403 		and	r3, r3, #4
 344 001e 042B     		cmp	r3, #4
 345 0020 0ED1     		bne	.L24
 346              	.L23:
 292:Drivers/STM32F3xx_HAL_Driver/Src/stm32f3xx_hal_flash.c ****   {
 293:Drivers/STM32F3xx_HAL_Driver/Src/stm32f3xx_hal_flash.c ****     /* Return the faulty address */
 294:Drivers/STM32F3xx_HAL_Driver/Src/stm32f3xx_hal_flash.c ****     addresstmp = pFlash.Address;
 347              		.loc 1 294 0 is_stmt 1
 348 0022 684B     		ldr	r3, .L36+4
 349 0024 9B68     		ldr	r3, [r3, #8]
 350 0026 7B60     		str	r3, [r7, #4]
 295:Drivers/STM32F3xx_HAL_Driver/Src/stm32f3xx_hal_flash.c ****     /* Reset address */
 296:Drivers/STM32F3xx_HAL_Driver/Src/stm32f3xx_hal_flash.c ****     pFlash.Address = 0xFFFFFFFFU;
 351              		.loc 1 296 0
 352 0028 664B     		ldr	r3, .L36+4
 353 002a 4FF0FF32 		mov	r2, #-1
 354 002e 9A60     		str	r2, [r3, #8]
 297:Drivers/STM32F3xx_HAL_Driver/Src/stm32f3xx_hal_flash.c ****   
 298:Drivers/STM32F3xx_HAL_Driver/Src/stm32f3xx_hal_flash.c ****     /* Save the Error code */
 299:Drivers/STM32F3xx_HAL_Driver/Src/stm32f3xx_hal_flash.c ****     FLASH_SetErrorCode();
 355              		.loc 1 299 0
 356 0030 FFF7FEFF 		bl	FLASH_SetErrorCode
 300:Drivers/STM32F3xx_HAL_Driver/Src/stm32f3xx_hal_flash.c ****     
 301:Drivers/STM32F3xx_HAL_Driver/Src/stm32f3xx_hal_flash.c ****     /* FLASH error interrupt user callback */
 302:Drivers/STM32F3xx_HAL_Driver/Src/stm32f3xx_hal_flash.c ****     HAL_FLASH_OperationErrorCallback(addresstmp);
 357              		.loc 1 302 0
 358 0034 7868     		ldr	r0, [r7, #4]
 359 0036 FFF7FEFF 		bl	HAL_FLASH_OperationErrorCallback
 303:Drivers/STM32F3xx_HAL_Driver/Src/stm32f3xx_hal_flash.c **** 
 304:Drivers/STM32F3xx_HAL_Driver/Src/stm32f3xx_hal_flash.c ****     /* Stop the procedure ongoing */
 305:Drivers/STM32F3xx_HAL_Driver/Src/stm32f3xx_hal_flash.c ****     pFlash.ProcedureOnGoing = FLASH_PROC_NONE;
 360              		.loc 1 305 0
 361 003a 624B     		ldr	r3, .L36+4
 362 003c 0022     		movs	r2, #0
 363 003e 1A70     		strb	r2, [r3]
 364              	.L24:
 306:Drivers/STM32F3xx_HAL_Driver/Src/stm32f3xx_hal_flash.c ****   }
 307:Drivers/STM32F3xx_HAL_Driver/Src/stm32f3xx_hal_flash.c **** 
 308:Drivers/STM32F3xx_HAL_Driver/Src/stm32f3xx_hal_flash.c ****   /* Check FLASH End of Operation flag  */
 309:Drivers/STM32F3xx_HAL_Driver/Src/stm32f3xx_hal_flash.c ****   if(__HAL_FLASH_GET_FLAG(FLASH_FLAG_EOP))
 365              		.loc 1 309 0
 366 0040 5F4B     		ldr	r3, .L36
 367 0042 DB68     		ldr	r3, [r3, #12]
 368 0044 03F02003 		and	r3, r3, #32
 369 0048 202B     		cmp	r3, #32
 370 004a 40F0A080 		bne	.L25
 310:Drivers/STM32F3xx_HAL_Driver/Src/stm32f3xx_hal_flash.c ****   {
 311:Drivers/STM32F3xx_HAL_Driver/Src/stm32f3xx_hal_flash.c ****     /* Clear FLASH End of Operation pending bit */
 312:Drivers/STM32F3xx_HAL_Driver/Src/stm32f3xx_hal_flash.c ****     __HAL_FLASH_CLEAR_FLAG(FLASH_FLAG_EOP);
 371              		.loc 1 312 0
 372 004e 5C4B     		ldr	r3, .L36
 373 0050 2022     		movs	r2, #32
 374 0052 DA60     		str	r2, [r3, #12]
 313:Drivers/STM32F3xx_HAL_Driver/Src/stm32f3xx_hal_flash.c ****     
ARM GAS  /tmp/ccHRgJQr.s 			page 13


 314:Drivers/STM32F3xx_HAL_Driver/Src/stm32f3xx_hal_flash.c ****     /* Process can continue only if no error detected */
 315:Drivers/STM32F3xx_HAL_Driver/Src/stm32f3xx_hal_flash.c ****     if(pFlash.ProcedureOnGoing != FLASH_PROC_NONE)
 375              		.loc 1 315 0
 376 0054 5B4B     		ldr	r3, .L36+4
 377 0056 1B78     		ldrb	r3, [r3]
 378 0058 DBB2     		uxtb	r3, r3
 379 005a 002B     		cmp	r3, #0
 380 005c 00F09780 		beq	.L25
 316:Drivers/STM32F3xx_HAL_Driver/Src/stm32f3xx_hal_flash.c ****     {
 317:Drivers/STM32F3xx_HAL_Driver/Src/stm32f3xx_hal_flash.c ****       if(pFlash.ProcedureOnGoing == FLASH_PROC_PAGEERASE)
 381              		.loc 1 317 0
 382 0060 584B     		ldr	r3, .L36+4
 383 0062 1B78     		ldrb	r3, [r3]
 384 0064 DBB2     		uxtb	r3, r3
 385 0066 012B     		cmp	r3, #1
 386 0068 2DD1     		bne	.L26
 318:Drivers/STM32F3xx_HAL_Driver/Src/stm32f3xx_hal_flash.c ****       {
 319:Drivers/STM32F3xx_HAL_Driver/Src/stm32f3xx_hal_flash.c ****         /* Nb of pages to erased can be decreased */
 320:Drivers/STM32F3xx_HAL_Driver/Src/stm32f3xx_hal_flash.c ****         pFlash.DataRemaining--;
 387              		.loc 1 320 0
 388 006a 564B     		ldr	r3, .L36+4
 389 006c 5B68     		ldr	r3, [r3, #4]
 390 006e 013B     		subs	r3, r3, #1
 391 0070 544A     		ldr	r2, .L36+4
 392 0072 5360     		str	r3, [r2, #4]
 321:Drivers/STM32F3xx_HAL_Driver/Src/stm32f3xx_hal_flash.c **** 
 322:Drivers/STM32F3xx_HAL_Driver/Src/stm32f3xx_hal_flash.c ****         /* Check if there are still pages to erase */
 323:Drivers/STM32F3xx_HAL_Driver/Src/stm32f3xx_hal_flash.c ****         if(pFlash.DataRemaining != 0U)
 393              		.loc 1 323 0
 394 0074 534B     		ldr	r3, .L36+4
 395 0076 5B68     		ldr	r3, [r3, #4]
 396 0078 002B     		cmp	r3, #0
 397 007a 17D0     		beq	.L27
 324:Drivers/STM32F3xx_HAL_Driver/Src/stm32f3xx_hal_flash.c ****         {
 325:Drivers/STM32F3xx_HAL_Driver/Src/stm32f3xx_hal_flash.c ****           addresstmp = pFlash.Address;
 398              		.loc 1 325 0
 399 007c 514B     		ldr	r3, .L36+4
 400 007e 9B68     		ldr	r3, [r3, #8]
 401 0080 7B60     		str	r3, [r7, #4]
 326:Drivers/STM32F3xx_HAL_Driver/Src/stm32f3xx_hal_flash.c ****           /*Indicate user which sector has been erased */
 327:Drivers/STM32F3xx_HAL_Driver/Src/stm32f3xx_hal_flash.c ****           HAL_FLASH_EndOfOperationCallback(addresstmp);
 402              		.loc 1 327 0
 403 0082 7868     		ldr	r0, [r7, #4]
 404 0084 FFF7FEFF 		bl	HAL_FLASH_EndOfOperationCallback
 328:Drivers/STM32F3xx_HAL_Driver/Src/stm32f3xx_hal_flash.c **** 
 329:Drivers/STM32F3xx_HAL_Driver/Src/stm32f3xx_hal_flash.c ****           /*Increment sector number*/
 330:Drivers/STM32F3xx_HAL_Driver/Src/stm32f3xx_hal_flash.c ****           addresstmp = pFlash.Address + FLASH_PAGE_SIZE;
 405              		.loc 1 330 0
 406 0088 4E4B     		ldr	r3, .L36+4
 407 008a 9B68     		ldr	r3, [r3, #8]
 408 008c 03F50063 		add	r3, r3, #2048
 409 0090 7B60     		str	r3, [r7, #4]
 331:Drivers/STM32F3xx_HAL_Driver/Src/stm32f3xx_hal_flash.c ****           pFlash.Address = addresstmp;
 410              		.loc 1 331 0
 411 0092 4C4A     		ldr	r2, .L36+4
 412 0094 7B68     		ldr	r3, [r7, #4]
 413 0096 9360     		str	r3, [r2, #8]
ARM GAS  /tmp/ccHRgJQr.s 			page 14


 332:Drivers/STM32F3xx_HAL_Driver/Src/stm32f3xx_hal_flash.c **** 
 333:Drivers/STM32F3xx_HAL_Driver/Src/stm32f3xx_hal_flash.c ****           /* If the erase operation is completed, disable the PER Bit */
 334:Drivers/STM32F3xx_HAL_Driver/Src/stm32f3xx_hal_flash.c ****           CLEAR_BIT(FLASH->CR, FLASH_CR_PER);
 414              		.loc 1 334 0
 415 0098 494B     		ldr	r3, .L36
 416 009a 1B69     		ldr	r3, [r3, #16]
 417 009c 484A     		ldr	r2, .L36
 418 009e 23F00203 		bic	r3, r3, #2
 419 00a2 1361     		str	r3, [r2, #16]
 335:Drivers/STM32F3xx_HAL_Driver/Src/stm32f3xx_hal_flash.c **** 
 336:Drivers/STM32F3xx_HAL_Driver/Src/stm32f3xx_hal_flash.c ****           FLASH_PageErase(addresstmp);
 420              		.loc 1 336 0
 421 00a4 7868     		ldr	r0, [r7, #4]
 422 00a6 FFF7FEFF 		bl	FLASH_PageErase
 423 00aa 70E0     		b	.L25
 424              	.L27:
 337:Drivers/STM32F3xx_HAL_Driver/Src/stm32f3xx_hal_flash.c ****         }
 338:Drivers/STM32F3xx_HAL_Driver/Src/stm32f3xx_hal_flash.c ****         else
 339:Drivers/STM32F3xx_HAL_Driver/Src/stm32f3xx_hal_flash.c ****         {
 340:Drivers/STM32F3xx_HAL_Driver/Src/stm32f3xx_hal_flash.c ****           /* No more pages to Erase, user callback can be called. */
 341:Drivers/STM32F3xx_HAL_Driver/Src/stm32f3xx_hal_flash.c ****           /* Reset Sector and stop Erase pages procedure */
 342:Drivers/STM32F3xx_HAL_Driver/Src/stm32f3xx_hal_flash.c ****           pFlash.Address = addresstmp = 0xFFFFFFFFU;
 425              		.loc 1 342 0
 426 00ac 4FF0FF33 		mov	r3, #-1
 427 00b0 7B60     		str	r3, [r7, #4]
 428 00b2 444A     		ldr	r2, .L36+4
 429 00b4 7B68     		ldr	r3, [r7, #4]
 430 00b6 9360     		str	r3, [r2, #8]
 343:Drivers/STM32F3xx_HAL_Driver/Src/stm32f3xx_hal_flash.c ****           pFlash.ProcedureOnGoing = FLASH_PROC_NONE;
 431              		.loc 1 343 0
 432 00b8 424B     		ldr	r3, .L36+4
 433 00ba 0022     		movs	r2, #0
 434 00bc 1A70     		strb	r2, [r3]
 344:Drivers/STM32F3xx_HAL_Driver/Src/stm32f3xx_hal_flash.c ****           /* FLASH EOP interrupt user callback */
 345:Drivers/STM32F3xx_HAL_Driver/Src/stm32f3xx_hal_flash.c ****           HAL_FLASH_EndOfOperationCallback(addresstmp);
 435              		.loc 1 345 0
 436 00be 7868     		ldr	r0, [r7, #4]
 437 00c0 FFF7FEFF 		bl	HAL_FLASH_EndOfOperationCallback
 438 00c4 63E0     		b	.L25
 439              	.L26:
 346:Drivers/STM32F3xx_HAL_Driver/Src/stm32f3xx_hal_flash.c ****         }
 347:Drivers/STM32F3xx_HAL_Driver/Src/stm32f3xx_hal_flash.c ****       }
 348:Drivers/STM32F3xx_HAL_Driver/Src/stm32f3xx_hal_flash.c ****       else if(pFlash.ProcedureOnGoing == FLASH_PROC_MASSERASE)
 440              		.loc 1 348 0
 441 00c6 3F4B     		ldr	r3, .L36+4
 442 00c8 1B78     		ldrb	r3, [r3]
 443 00ca DBB2     		uxtb	r3, r3
 444 00cc 022B     		cmp	r3, #2
 445 00ce 0CD1     		bne	.L29
 349:Drivers/STM32F3xx_HAL_Driver/Src/stm32f3xx_hal_flash.c ****       {
 350:Drivers/STM32F3xx_HAL_Driver/Src/stm32f3xx_hal_flash.c ****         /* Operation is completed, disable the MER Bit */
 351:Drivers/STM32F3xx_HAL_Driver/Src/stm32f3xx_hal_flash.c ****         CLEAR_BIT(FLASH->CR, FLASH_CR_MER);
 446              		.loc 1 351 0
 447 00d0 3B4B     		ldr	r3, .L36
 448 00d2 1B69     		ldr	r3, [r3, #16]
 449 00d4 3A4A     		ldr	r2, .L36
 450 00d6 23F00403 		bic	r3, r3, #4
ARM GAS  /tmp/ccHRgJQr.s 			page 15


 451 00da 1361     		str	r3, [r2, #16]
 352:Drivers/STM32F3xx_HAL_Driver/Src/stm32f3xx_hal_flash.c **** 
 353:Drivers/STM32F3xx_HAL_Driver/Src/stm32f3xx_hal_flash.c ****           /* MassErase ended. Return the selected bank */
 354:Drivers/STM32F3xx_HAL_Driver/Src/stm32f3xx_hal_flash.c ****           /* FLASH EOP interrupt user callback */
 355:Drivers/STM32F3xx_HAL_Driver/Src/stm32f3xx_hal_flash.c ****           HAL_FLASH_EndOfOperationCallback(0U);
 452              		.loc 1 355 0
 453 00dc 0020     		movs	r0, #0
 454 00de FFF7FEFF 		bl	HAL_FLASH_EndOfOperationCallback
 356:Drivers/STM32F3xx_HAL_Driver/Src/stm32f3xx_hal_flash.c **** 
 357:Drivers/STM32F3xx_HAL_Driver/Src/stm32f3xx_hal_flash.c ****           /* Stop Mass Erase procedure*/
 358:Drivers/STM32F3xx_HAL_Driver/Src/stm32f3xx_hal_flash.c ****           pFlash.ProcedureOnGoing = FLASH_PROC_NONE;
 455              		.loc 1 358 0
 456 00e2 384B     		ldr	r3, .L36+4
 457 00e4 0022     		movs	r2, #0
 458 00e6 1A70     		strb	r2, [r3]
 459 00e8 51E0     		b	.L25
 460              	.L29:
 359:Drivers/STM32F3xx_HAL_Driver/Src/stm32f3xx_hal_flash.c ****         }
 360:Drivers/STM32F3xx_HAL_Driver/Src/stm32f3xx_hal_flash.c ****       else
 361:Drivers/STM32F3xx_HAL_Driver/Src/stm32f3xx_hal_flash.c ****       {
 362:Drivers/STM32F3xx_HAL_Driver/Src/stm32f3xx_hal_flash.c ****         /* Nb of 16-bit data to program can be decreased */
 363:Drivers/STM32F3xx_HAL_Driver/Src/stm32f3xx_hal_flash.c ****         pFlash.DataRemaining--;
 461              		.loc 1 363 0
 462 00ea 364B     		ldr	r3, .L36+4
 463 00ec 5B68     		ldr	r3, [r3, #4]
 464 00ee 013B     		subs	r3, r3, #1
 465 00f0 344A     		ldr	r2, .L36+4
 466 00f2 5360     		str	r3, [r2, #4]
 364:Drivers/STM32F3xx_HAL_Driver/Src/stm32f3xx_hal_flash.c ****         
 365:Drivers/STM32F3xx_HAL_Driver/Src/stm32f3xx_hal_flash.c ****         /* Check if there are still 16-bit data to program */
 366:Drivers/STM32F3xx_HAL_Driver/Src/stm32f3xx_hal_flash.c ****         if(pFlash.DataRemaining != 0U)
 467              		.loc 1 366 0
 468 00f4 334B     		ldr	r3, .L36+4
 469 00f6 5B68     		ldr	r3, [r3, #4]
 470 00f8 002B     		cmp	r3, #0
 471 00fa 24D0     		beq	.L30
 367:Drivers/STM32F3xx_HAL_Driver/Src/stm32f3xx_hal_flash.c ****         {
 368:Drivers/STM32F3xx_HAL_Driver/Src/stm32f3xx_hal_flash.c ****           /* Increment address to 16-bit */
 369:Drivers/STM32F3xx_HAL_Driver/Src/stm32f3xx_hal_flash.c ****           pFlash.Address += 2U;
 472              		.loc 1 369 0
 473 00fc 314B     		ldr	r3, .L36+4
 474 00fe 9B68     		ldr	r3, [r3, #8]
 475 0100 0233     		adds	r3, r3, #2
 476 0102 304A     		ldr	r2, .L36+4
 477 0104 9360     		str	r3, [r2, #8]
 370:Drivers/STM32F3xx_HAL_Driver/Src/stm32f3xx_hal_flash.c ****           addresstmp = pFlash.Address;
 478              		.loc 1 370 0
 479 0106 2F4B     		ldr	r3, .L36+4
 480 0108 9B68     		ldr	r3, [r3, #8]
 481 010a 7B60     		str	r3, [r7, #4]
 371:Drivers/STM32F3xx_HAL_Driver/Src/stm32f3xx_hal_flash.c ****           
 372:Drivers/STM32F3xx_HAL_Driver/Src/stm32f3xx_hal_flash.c ****           /* Shift to have next 16-bit data */
 373:Drivers/STM32F3xx_HAL_Driver/Src/stm32f3xx_hal_flash.c ****           pFlash.Data = (pFlash.Data >> 16U);
 482              		.loc 1 373 0
 483 010c 2D4B     		ldr	r3, .L36+4
 484 010e D3E90412 		ldrd	r1, [r3, #16]
 485 0112 4FF00003 		mov	r3, #0
ARM GAS  /tmp/ccHRgJQr.s 			page 16


 486 0116 4FF00004 		mov	r4, #0
 487 011a 0B0C     		lsrs	r3, r1, #16
 488 011c 43EA0243 		orr	r3, r3, r2, lsl #16
 489 0120 140C     		lsrs	r4, r2, #16
 490 0122 284A     		ldr	r2, .L36+4
 491 0124 C2E90434 		strd	r3, [r2, #16]
 374:Drivers/STM32F3xx_HAL_Driver/Src/stm32f3xx_hal_flash.c ****           
 375:Drivers/STM32F3xx_HAL_Driver/Src/stm32f3xx_hal_flash.c ****           /* Operation is completed, disable the PG Bit */
 376:Drivers/STM32F3xx_HAL_Driver/Src/stm32f3xx_hal_flash.c ****           CLEAR_BIT(FLASH->CR, FLASH_CR_PG);
 492              		.loc 1 376 0
 493 0128 254B     		ldr	r3, .L36
 494 012a 1B69     		ldr	r3, [r3, #16]
 495 012c 244A     		ldr	r2, .L36
 496 012e 23F00103 		bic	r3, r3, #1
 497 0132 1361     		str	r3, [r2, #16]
 377:Drivers/STM32F3xx_HAL_Driver/Src/stm32f3xx_hal_flash.c **** 
 378:Drivers/STM32F3xx_HAL_Driver/Src/stm32f3xx_hal_flash.c ****           /*Program halfword (16-bit) at a specified address.*/
 379:Drivers/STM32F3xx_HAL_Driver/Src/stm32f3xx_hal_flash.c ****           FLASH_Program_HalfWord(addresstmp, (uint16_t)pFlash.Data);
 498              		.loc 1 379 0
 499 0134 234B     		ldr	r3, .L36+4
 500 0136 D3E90434 		ldrd	r3, [r3, #16]
 501 013a 9BB2     		uxth	r3, r3
 502 013c 1946     		mov	r1, r3
 503 013e 7868     		ldr	r0, [r7, #4]
 504 0140 FFF7FEFF 		bl	FLASH_Program_HalfWord
 505 0144 23E0     		b	.L25
 506              	.L30:
 380:Drivers/STM32F3xx_HAL_Driver/Src/stm32f3xx_hal_flash.c ****         }
 381:Drivers/STM32F3xx_HAL_Driver/Src/stm32f3xx_hal_flash.c ****         else
 382:Drivers/STM32F3xx_HAL_Driver/Src/stm32f3xx_hal_flash.c ****         {
 383:Drivers/STM32F3xx_HAL_Driver/Src/stm32f3xx_hal_flash.c ****           /* Program ended. Return the selected address */
 384:Drivers/STM32F3xx_HAL_Driver/Src/stm32f3xx_hal_flash.c ****           /* FLASH EOP interrupt user callback */
 385:Drivers/STM32F3xx_HAL_Driver/Src/stm32f3xx_hal_flash.c ****           if (pFlash.ProcedureOnGoing == FLASH_PROC_PROGRAMHALFWORD)
 507              		.loc 1 385 0
 508 0146 1F4B     		ldr	r3, .L36+4
 509 0148 1B78     		ldrb	r3, [r3]
 510 014a DBB2     		uxtb	r3, r3
 511 014c 032B     		cmp	r3, #3
 512 014e 05D1     		bne	.L31
 386:Drivers/STM32F3xx_HAL_Driver/Src/stm32f3xx_hal_flash.c ****           {
 387:Drivers/STM32F3xx_HAL_Driver/Src/stm32f3xx_hal_flash.c ****             HAL_FLASH_EndOfOperationCallback(pFlash.Address);
 513              		.loc 1 387 0
 514 0150 1C4B     		ldr	r3, .L36+4
 515 0152 9B68     		ldr	r3, [r3, #8]
 516 0154 1846     		mov	r0, r3
 517 0156 FFF7FEFF 		bl	HAL_FLASH_EndOfOperationCallback
 518 015a 11E0     		b	.L32
 519              	.L31:
 388:Drivers/STM32F3xx_HAL_Driver/Src/stm32f3xx_hal_flash.c ****           }
 389:Drivers/STM32F3xx_HAL_Driver/Src/stm32f3xx_hal_flash.c ****           else if (pFlash.ProcedureOnGoing == FLASH_PROC_PROGRAMWORD)
 520              		.loc 1 389 0
 521 015c 194B     		ldr	r3, .L36+4
 522 015e 1B78     		ldrb	r3, [r3]
 523 0160 DBB2     		uxtb	r3, r3
 524 0162 042B     		cmp	r3, #4
 525 0164 06D1     		bne	.L33
 390:Drivers/STM32F3xx_HAL_Driver/Src/stm32f3xx_hal_flash.c ****           {
ARM GAS  /tmp/ccHRgJQr.s 			page 17


 391:Drivers/STM32F3xx_HAL_Driver/Src/stm32f3xx_hal_flash.c ****             HAL_FLASH_EndOfOperationCallback(pFlash.Address - 2U);
 526              		.loc 1 391 0
 527 0166 174B     		ldr	r3, .L36+4
 528 0168 9B68     		ldr	r3, [r3, #8]
 529 016a 023B     		subs	r3, r3, #2
 530 016c 1846     		mov	r0, r3
 531 016e FFF7FEFF 		bl	HAL_FLASH_EndOfOperationCallback
 532 0172 05E0     		b	.L32
 533              	.L33:
 392:Drivers/STM32F3xx_HAL_Driver/Src/stm32f3xx_hal_flash.c ****           }
 393:Drivers/STM32F3xx_HAL_Driver/Src/stm32f3xx_hal_flash.c ****           else 
 394:Drivers/STM32F3xx_HAL_Driver/Src/stm32f3xx_hal_flash.c ****           {
 395:Drivers/STM32F3xx_HAL_Driver/Src/stm32f3xx_hal_flash.c ****             HAL_FLASH_EndOfOperationCallback(pFlash.Address - 6U);
 534              		.loc 1 395 0
 535 0174 134B     		ldr	r3, .L36+4
 536 0176 9B68     		ldr	r3, [r3, #8]
 537 0178 063B     		subs	r3, r3, #6
 538 017a 1846     		mov	r0, r3
 539 017c FFF7FEFF 		bl	HAL_FLASH_EndOfOperationCallback
 540              	.L32:
 396:Drivers/STM32F3xx_HAL_Driver/Src/stm32f3xx_hal_flash.c ****           }
 397:Drivers/STM32F3xx_HAL_Driver/Src/stm32f3xx_hal_flash.c ****         
 398:Drivers/STM32F3xx_HAL_Driver/Src/stm32f3xx_hal_flash.c ****           /* Reset Address and stop Program procedure */
 399:Drivers/STM32F3xx_HAL_Driver/Src/stm32f3xx_hal_flash.c ****           pFlash.Address = 0xFFFFFFFFU;
 541              		.loc 1 399 0
 542 0180 104B     		ldr	r3, .L36+4
 543 0182 4FF0FF32 		mov	r2, #-1
 544 0186 9A60     		str	r2, [r3, #8]
 400:Drivers/STM32F3xx_HAL_Driver/Src/stm32f3xx_hal_flash.c ****           pFlash.ProcedureOnGoing = FLASH_PROC_NONE;
 545              		.loc 1 400 0
 546 0188 0E4B     		ldr	r3, .L36+4
 547 018a 0022     		movs	r2, #0
 548 018c 1A70     		strb	r2, [r3]
 549              	.L25:
 401:Drivers/STM32F3xx_HAL_Driver/Src/stm32f3xx_hal_flash.c ****         }
 402:Drivers/STM32F3xx_HAL_Driver/Src/stm32f3xx_hal_flash.c ****       }
 403:Drivers/STM32F3xx_HAL_Driver/Src/stm32f3xx_hal_flash.c ****     }
 404:Drivers/STM32F3xx_HAL_Driver/Src/stm32f3xx_hal_flash.c ****   }
 405:Drivers/STM32F3xx_HAL_Driver/Src/stm32f3xx_hal_flash.c ****   
 406:Drivers/STM32F3xx_HAL_Driver/Src/stm32f3xx_hal_flash.c **** 
 407:Drivers/STM32F3xx_HAL_Driver/Src/stm32f3xx_hal_flash.c ****   if(pFlash.ProcedureOnGoing == FLASH_PROC_NONE)
 550              		.loc 1 407 0
 551 018e 0D4B     		ldr	r3, .L36+4
 552 0190 1B78     		ldrb	r3, [r3]
 553 0192 DBB2     		uxtb	r3, r3
 554 0194 002B     		cmp	r3, #0
 555 0196 0ED1     		bne	.L35
 408:Drivers/STM32F3xx_HAL_Driver/Src/stm32f3xx_hal_flash.c ****   {
 409:Drivers/STM32F3xx_HAL_Driver/Src/stm32f3xx_hal_flash.c ****     /* Operation is completed, disable the PG, PER and MER Bits */
 410:Drivers/STM32F3xx_HAL_Driver/Src/stm32f3xx_hal_flash.c ****     CLEAR_BIT(FLASH->CR, (FLASH_CR_PG | FLASH_CR_PER | FLASH_CR_MER));
 556              		.loc 1 410 0
 557 0198 094B     		ldr	r3, .L36
 558 019a 1B69     		ldr	r3, [r3, #16]
 559 019c 084A     		ldr	r2, .L36
 560 019e 23F00703 		bic	r3, r3, #7
 561 01a2 1361     		str	r3, [r2, #16]
 411:Drivers/STM32F3xx_HAL_Driver/Src/stm32f3xx_hal_flash.c **** 
ARM GAS  /tmp/ccHRgJQr.s 			page 18


 412:Drivers/STM32F3xx_HAL_Driver/Src/stm32f3xx_hal_flash.c ****     /* Disable End of FLASH Operation and Error source interrupts */
 413:Drivers/STM32F3xx_HAL_Driver/Src/stm32f3xx_hal_flash.c ****     __HAL_FLASH_DISABLE_IT(FLASH_IT_EOP | FLASH_IT_ERR);
 562              		.loc 1 413 0
 563 01a4 064B     		ldr	r3, .L36
 564 01a6 1B69     		ldr	r3, [r3, #16]
 565 01a8 054A     		ldr	r2, .L36
 566 01aa 23F4A053 		bic	r3, r3, #5120
 567 01ae 1361     		str	r3, [r2, #16]
 414:Drivers/STM32F3xx_HAL_Driver/Src/stm32f3xx_hal_flash.c **** 
 415:Drivers/STM32F3xx_HAL_Driver/Src/stm32f3xx_hal_flash.c ****     /* Process Unlocked */
 416:Drivers/STM32F3xx_HAL_Driver/Src/stm32f3xx_hal_flash.c ****     __HAL_UNLOCK(&pFlash);
 568              		.loc 1 416 0
 569 01b0 044B     		ldr	r3, .L36+4
 570 01b2 0022     		movs	r2, #0
 571 01b4 1A76     		strb	r2, [r3, #24]
 572              	.L35:
 417:Drivers/STM32F3xx_HAL_Driver/Src/stm32f3xx_hal_flash.c ****   }
 418:Drivers/STM32F3xx_HAL_Driver/Src/stm32f3xx_hal_flash.c **** }
 573              		.loc 1 418 0
 574 01b6 00BF     		nop
 575 01b8 0C37     		adds	r7, r7, #12
 576              	.LCFI13:
 577              		.cfi_def_cfa_offset 12
 578 01ba BD46     		mov	sp, r7
 579              	.LCFI14:
 580              		.cfi_def_cfa_register 13
 581              		@ sp needed
 582 01bc 90BD     		pop	{r4, r7, pc}
 583              	.L37:
 584 01be 00BF     		.align	2
 585              	.L36:
 586 01c0 00200240 		.word	1073881088
 587 01c4 00000000 		.word	pFlash
 588              		.cfi_endproc
 589              	.LFE125:
 591              		.section	.text.HAL_FLASH_EndOfOperationCallback,"ax",%progbits
 592              		.align	1
 593              		.weak	HAL_FLASH_EndOfOperationCallback
 594              		.syntax unified
 595              		.thumb
 596              		.thumb_func
 597              		.fpu fpv4-sp-d16
 599              	HAL_FLASH_EndOfOperationCallback:
 600              	.LFB126:
 419:Drivers/STM32F3xx_HAL_Driver/Src/stm32f3xx_hal_flash.c **** 
 420:Drivers/STM32F3xx_HAL_Driver/Src/stm32f3xx_hal_flash.c **** /**
 421:Drivers/STM32F3xx_HAL_Driver/Src/stm32f3xx_hal_flash.c ****   * @brief  FLASH end of operation interrupt callback
 422:Drivers/STM32F3xx_HAL_Driver/Src/stm32f3xx_hal_flash.c ****   * @param  ReturnValue The value saved in this parameter depends on the ongoing procedure
 423:Drivers/STM32F3xx_HAL_Driver/Src/stm32f3xx_hal_flash.c ****   *                 - Mass Erase: No return value expected
 424:Drivers/STM32F3xx_HAL_Driver/Src/stm32f3xx_hal_flash.c ****   *                 - Pages Erase: Address of the page which has been erased 
 425:Drivers/STM32F3xx_HAL_Driver/Src/stm32f3xx_hal_flash.c ****   *                    (if 0xFFFFFFFF, it means that all the selected pages have been erased)
 426:Drivers/STM32F3xx_HAL_Driver/Src/stm32f3xx_hal_flash.c ****   *                 - Program: Address which was selected for data program
 427:Drivers/STM32F3xx_HAL_Driver/Src/stm32f3xx_hal_flash.c ****   * @retval none
 428:Drivers/STM32F3xx_HAL_Driver/Src/stm32f3xx_hal_flash.c ****   */
 429:Drivers/STM32F3xx_HAL_Driver/Src/stm32f3xx_hal_flash.c **** __weak void HAL_FLASH_EndOfOperationCallback(uint32_t ReturnValue)
 430:Drivers/STM32F3xx_HAL_Driver/Src/stm32f3xx_hal_flash.c **** {
 601              		.loc 1 430 0
ARM GAS  /tmp/ccHRgJQr.s 			page 19


 602              		.cfi_startproc
 603              		@ args = 0, pretend = 0, frame = 8
 604              		@ frame_needed = 1, uses_anonymous_args = 0
 605              		@ link register save eliminated.
 606 0000 80B4     		push	{r7}
 607              	.LCFI15:
 608              		.cfi_def_cfa_offset 4
 609              		.cfi_offset 7, -4
 610 0002 83B0     		sub	sp, sp, #12
 611              	.LCFI16:
 612              		.cfi_def_cfa_offset 16
 613 0004 00AF     		add	r7, sp, #0
 614              	.LCFI17:
 615              		.cfi_def_cfa_register 7
 616 0006 7860     		str	r0, [r7, #4]
 431:Drivers/STM32F3xx_HAL_Driver/Src/stm32f3xx_hal_flash.c ****   /* Prevent unused argument(s) compilation warning */
 432:Drivers/STM32F3xx_HAL_Driver/Src/stm32f3xx_hal_flash.c ****   UNUSED(ReturnValue);
 433:Drivers/STM32F3xx_HAL_Driver/Src/stm32f3xx_hal_flash.c **** 
 434:Drivers/STM32F3xx_HAL_Driver/Src/stm32f3xx_hal_flash.c ****   /* NOTE : This function Should not be modified, when the callback is needed,
 435:Drivers/STM32F3xx_HAL_Driver/Src/stm32f3xx_hal_flash.c ****             the HAL_FLASH_EndOfOperationCallback could be implemented in the user file
 436:Drivers/STM32F3xx_HAL_Driver/Src/stm32f3xx_hal_flash.c ****    */ 
 437:Drivers/STM32F3xx_HAL_Driver/Src/stm32f3xx_hal_flash.c **** }
 617              		.loc 1 437 0
 618 0008 00BF     		nop
 619 000a 0C37     		adds	r7, r7, #12
 620              	.LCFI18:
 621              		.cfi_def_cfa_offset 4
 622 000c BD46     		mov	sp, r7
 623              	.LCFI19:
 624              		.cfi_def_cfa_register 13
 625              		@ sp needed
 626 000e 5DF8047B 		ldr	r7, [sp], #4
 627              	.LCFI20:
 628              		.cfi_restore 7
 629              		.cfi_def_cfa_offset 0
 630 0012 7047     		bx	lr
 631              		.cfi_endproc
 632              	.LFE126:
 634              		.section	.text.HAL_FLASH_OperationErrorCallback,"ax",%progbits
 635              		.align	1
 636              		.weak	HAL_FLASH_OperationErrorCallback
 637              		.syntax unified
 638              		.thumb
 639              		.thumb_func
 640              		.fpu fpv4-sp-d16
 642              	HAL_FLASH_OperationErrorCallback:
 643              	.LFB127:
 438:Drivers/STM32F3xx_HAL_Driver/Src/stm32f3xx_hal_flash.c **** 
 439:Drivers/STM32F3xx_HAL_Driver/Src/stm32f3xx_hal_flash.c **** /**
 440:Drivers/STM32F3xx_HAL_Driver/Src/stm32f3xx_hal_flash.c ****   * @brief  FLASH operation error interrupt callback
 441:Drivers/STM32F3xx_HAL_Driver/Src/stm32f3xx_hal_flash.c ****   * @param  ReturnValue The value saved in this parameter depends on the ongoing procedure
 442:Drivers/STM32F3xx_HAL_Driver/Src/stm32f3xx_hal_flash.c ****   *                 - Mass Erase: No return value expected
 443:Drivers/STM32F3xx_HAL_Driver/Src/stm32f3xx_hal_flash.c ****   *                 - Pages Erase: Address of the page which returned an error
 444:Drivers/STM32F3xx_HAL_Driver/Src/stm32f3xx_hal_flash.c ****   *                 - Program: Address which was selected for data program
 445:Drivers/STM32F3xx_HAL_Driver/Src/stm32f3xx_hal_flash.c ****   * @retval none
 446:Drivers/STM32F3xx_HAL_Driver/Src/stm32f3xx_hal_flash.c ****   */
 447:Drivers/STM32F3xx_HAL_Driver/Src/stm32f3xx_hal_flash.c **** __weak void HAL_FLASH_OperationErrorCallback(uint32_t ReturnValue)
ARM GAS  /tmp/ccHRgJQr.s 			page 20


 448:Drivers/STM32F3xx_HAL_Driver/Src/stm32f3xx_hal_flash.c **** {
 644              		.loc 1 448 0
 645              		.cfi_startproc
 646              		@ args = 0, pretend = 0, frame = 8
 647              		@ frame_needed = 1, uses_anonymous_args = 0
 648              		@ link register save eliminated.
 649 0000 80B4     		push	{r7}
 650              	.LCFI21:
 651              		.cfi_def_cfa_offset 4
 652              		.cfi_offset 7, -4
 653 0002 83B0     		sub	sp, sp, #12
 654              	.LCFI22:
 655              		.cfi_def_cfa_offset 16
 656 0004 00AF     		add	r7, sp, #0
 657              	.LCFI23:
 658              		.cfi_def_cfa_register 7
 659 0006 7860     		str	r0, [r7, #4]
 449:Drivers/STM32F3xx_HAL_Driver/Src/stm32f3xx_hal_flash.c ****   /* Prevent unused argument(s) compilation warning */
 450:Drivers/STM32F3xx_HAL_Driver/Src/stm32f3xx_hal_flash.c ****   UNUSED(ReturnValue);
 451:Drivers/STM32F3xx_HAL_Driver/Src/stm32f3xx_hal_flash.c **** 
 452:Drivers/STM32F3xx_HAL_Driver/Src/stm32f3xx_hal_flash.c ****   /* NOTE : This function Should not be modified, when the callback is needed,
 453:Drivers/STM32F3xx_HAL_Driver/Src/stm32f3xx_hal_flash.c ****             the HAL_FLASH_OperationErrorCallback could be implemented in the user file
 454:Drivers/STM32F3xx_HAL_Driver/Src/stm32f3xx_hal_flash.c ****    */ 
 455:Drivers/STM32F3xx_HAL_Driver/Src/stm32f3xx_hal_flash.c **** }
 660              		.loc 1 455 0
 661 0008 00BF     		nop
 662 000a 0C37     		adds	r7, r7, #12
 663              	.LCFI24:
 664              		.cfi_def_cfa_offset 4
 665 000c BD46     		mov	sp, r7
 666              	.LCFI25:
 667              		.cfi_def_cfa_register 13
 668              		@ sp needed
 669 000e 5DF8047B 		ldr	r7, [sp], #4
 670              	.LCFI26:
 671              		.cfi_restore 7
 672              		.cfi_def_cfa_offset 0
 673 0012 7047     		bx	lr
 674              		.cfi_endproc
 675              	.LFE127:
 677              		.section	.text.HAL_FLASH_Unlock,"ax",%progbits
 678              		.align	1
 679              		.global	HAL_FLASH_Unlock
 680              		.syntax unified
 681              		.thumb
 682              		.thumb_func
 683              		.fpu fpv4-sp-d16
 685              	HAL_FLASH_Unlock:
 686              	.LFB128:
 456:Drivers/STM32F3xx_HAL_Driver/Src/stm32f3xx_hal_flash.c **** 
 457:Drivers/STM32F3xx_HAL_Driver/Src/stm32f3xx_hal_flash.c **** /**
 458:Drivers/STM32F3xx_HAL_Driver/Src/stm32f3xx_hal_flash.c ****   * @}
 459:Drivers/STM32F3xx_HAL_Driver/Src/stm32f3xx_hal_flash.c ****   */
 460:Drivers/STM32F3xx_HAL_Driver/Src/stm32f3xx_hal_flash.c **** 
 461:Drivers/STM32F3xx_HAL_Driver/Src/stm32f3xx_hal_flash.c **** /** @defgroup FLASH_Exported_Functions_Group2 Peripheral Control functions 
 462:Drivers/STM32F3xx_HAL_Driver/Src/stm32f3xx_hal_flash.c ****  *  @brief   management functions 
 463:Drivers/STM32F3xx_HAL_Driver/Src/stm32f3xx_hal_flash.c ****  *
ARM GAS  /tmp/ccHRgJQr.s 			page 21


 464:Drivers/STM32F3xx_HAL_Driver/Src/stm32f3xx_hal_flash.c **** @verbatim   
 465:Drivers/STM32F3xx_HAL_Driver/Src/stm32f3xx_hal_flash.c ****  ===============================================================================
 466:Drivers/STM32F3xx_HAL_Driver/Src/stm32f3xx_hal_flash.c ****                       ##### Peripheral Control functions #####
 467:Drivers/STM32F3xx_HAL_Driver/Src/stm32f3xx_hal_flash.c ****  ===============================================================================  
 468:Drivers/STM32F3xx_HAL_Driver/Src/stm32f3xx_hal_flash.c ****     [..]
 469:Drivers/STM32F3xx_HAL_Driver/Src/stm32f3xx_hal_flash.c ****     This subsection provides a set of functions allowing to control the FLASH 
 470:Drivers/STM32F3xx_HAL_Driver/Src/stm32f3xx_hal_flash.c ****     memory operations.
 471:Drivers/STM32F3xx_HAL_Driver/Src/stm32f3xx_hal_flash.c **** 
 472:Drivers/STM32F3xx_HAL_Driver/Src/stm32f3xx_hal_flash.c **** @endverbatim
 473:Drivers/STM32F3xx_HAL_Driver/Src/stm32f3xx_hal_flash.c ****   * @{
 474:Drivers/STM32F3xx_HAL_Driver/Src/stm32f3xx_hal_flash.c ****   */
 475:Drivers/STM32F3xx_HAL_Driver/Src/stm32f3xx_hal_flash.c **** 
 476:Drivers/STM32F3xx_HAL_Driver/Src/stm32f3xx_hal_flash.c **** /**
 477:Drivers/STM32F3xx_HAL_Driver/Src/stm32f3xx_hal_flash.c ****   * @brief  Unlock the FLASH control register access
 478:Drivers/STM32F3xx_HAL_Driver/Src/stm32f3xx_hal_flash.c ****   * @retval HAL Status
 479:Drivers/STM32F3xx_HAL_Driver/Src/stm32f3xx_hal_flash.c ****   */
 480:Drivers/STM32F3xx_HAL_Driver/Src/stm32f3xx_hal_flash.c **** HAL_StatusTypeDef HAL_FLASH_Unlock(void)
 481:Drivers/STM32F3xx_HAL_Driver/Src/stm32f3xx_hal_flash.c **** {
 687              		.loc 1 481 0
 688              		.cfi_startproc
 689              		@ args = 0, pretend = 0, frame = 8
 690              		@ frame_needed = 1, uses_anonymous_args = 0
 691              		@ link register save eliminated.
 692 0000 80B4     		push	{r7}
 693              	.LCFI27:
 694              		.cfi_def_cfa_offset 4
 695              		.cfi_offset 7, -4
 696 0002 83B0     		sub	sp, sp, #12
 697              	.LCFI28:
 698              		.cfi_def_cfa_offset 16
 699 0004 00AF     		add	r7, sp, #0
 700              	.LCFI29:
 701              		.cfi_def_cfa_register 7
 482:Drivers/STM32F3xx_HAL_Driver/Src/stm32f3xx_hal_flash.c ****   HAL_StatusTypeDef status = HAL_OK;
 702              		.loc 1 482 0
 703 0006 0023     		movs	r3, #0
 704 0008 FB71     		strb	r3, [r7, #7]
 483:Drivers/STM32F3xx_HAL_Driver/Src/stm32f3xx_hal_flash.c **** 
 484:Drivers/STM32F3xx_HAL_Driver/Src/stm32f3xx_hal_flash.c ****   if(READ_BIT(FLASH->CR, FLASH_CR_LOCK) != RESET)
 705              		.loc 1 484 0
 706 000a 0D4B     		ldr	r3, .L43
 707 000c 1B69     		ldr	r3, [r3, #16]
 708 000e 03F08003 		and	r3, r3, #128
 709 0012 002B     		cmp	r3, #0
 710 0014 0DD0     		beq	.L41
 485:Drivers/STM32F3xx_HAL_Driver/Src/stm32f3xx_hal_flash.c ****   {
 486:Drivers/STM32F3xx_HAL_Driver/Src/stm32f3xx_hal_flash.c ****     /* Authorize the FLASH Registers access */
 487:Drivers/STM32F3xx_HAL_Driver/Src/stm32f3xx_hal_flash.c ****     WRITE_REG(FLASH->KEYR, FLASH_KEY1);
 711              		.loc 1 487 0
 712 0016 0A4B     		ldr	r3, .L43
 713 0018 0A4A     		ldr	r2, .L43+4
 714 001a 5A60     		str	r2, [r3, #4]
 488:Drivers/STM32F3xx_HAL_Driver/Src/stm32f3xx_hal_flash.c ****     WRITE_REG(FLASH->KEYR, FLASH_KEY2);
 715              		.loc 1 488 0
 716 001c 084B     		ldr	r3, .L43
 717 001e 0A4A     		ldr	r2, .L43+8
 718 0020 5A60     		str	r2, [r3, #4]
ARM GAS  /tmp/ccHRgJQr.s 			page 22


 489:Drivers/STM32F3xx_HAL_Driver/Src/stm32f3xx_hal_flash.c **** 
 490:Drivers/STM32F3xx_HAL_Driver/Src/stm32f3xx_hal_flash.c ****     /* Verify Flash is unlocked */
 491:Drivers/STM32F3xx_HAL_Driver/Src/stm32f3xx_hal_flash.c ****     if(READ_BIT(FLASH->CR, FLASH_CR_LOCK) != RESET)
 719              		.loc 1 491 0
 720 0022 074B     		ldr	r3, .L43
 721 0024 1B69     		ldr	r3, [r3, #16]
 722 0026 03F08003 		and	r3, r3, #128
 723 002a 002B     		cmp	r3, #0
 724 002c 01D0     		beq	.L41
 492:Drivers/STM32F3xx_HAL_Driver/Src/stm32f3xx_hal_flash.c ****     {
 493:Drivers/STM32F3xx_HAL_Driver/Src/stm32f3xx_hal_flash.c ****       status = HAL_ERROR;
 725              		.loc 1 493 0
 726 002e 0123     		movs	r3, #1
 727 0030 FB71     		strb	r3, [r7, #7]
 728              	.L41:
 494:Drivers/STM32F3xx_HAL_Driver/Src/stm32f3xx_hal_flash.c ****     }
 495:Drivers/STM32F3xx_HAL_Driver/Src/stm32f3xx_hal_flash.c ****   }
 496:Drivers/STM32F3xx_HAL_Driver/Src/stm32f3xx_hal_flash.c **** 
 497:Drivers/STM32F3xx_HAL_Driver/Src/stm32f3xx_hal_flash.c ****   return status;
 729              		.loc 1 497 0
 730 0032 FB79     		ldrb	r3, [r7, #7]	@ zero_extendqisi2
 498:Drivers/STM32F3xx_HAL_Driver/Src/stm32f3xx_hal_flash.c **** }
 731              		.loc 1 498 0
 732 0034 1846     		mov	r0, r3
 733 0036 0C37     		adds	r7, r7, #12
 734              	.LCFI30:
 735              		.cfi_def_cfa_offset 4
 736 0038 BD46     		mov	sp, r7
 737              	.LCFI31:
 738              		.cfi_def_cfa_register 13
 739              		@ sp needed
 740 003a 5DF8047B 		ldr	r7, [sp], #4
 741              	.LCFI32:
 742              		.cfi_restore 7
 743              		.cfi_def_cfa_offset 0
 744 003e 7047     		bx	lr
 745              	.L44:
 746              		.align	2
 747              	.L43:
 748 0040 00200240 		.word	1073881088
 749 0044 23016745 		.word	1164378403
 750 0048 AB89EFCD 		.word	-839939669
 751              		.cfi_endproc
 752              	.LFE128:
 754              		.section	.text.HAL_FLASH_Lock,"ax",%progbits
 755              		.align	1
 756              		.global	HAL_FLASH_Lock
 757              		.syntax unified
 758              		.thumb
 759              		.thumb_func
 760              		.fpu fpv4-sp-d16
 762              	HAL_FLASH_Lock:
 763              	.LFB129:
 499:Drivers/STM32F3xx_HAL_Driver/Src/stm32f3xx_hal_flash.c **** 
 500:Drivers/STM32F3xx_HAL_Driver/Src/stm32f3xx_hal_flash.c **** /**
 501:Drivers/STM32F3xx_HAL_Driver/Src/stm32f3xx_hal_flash.c ****   * @brief  Locks the FLASH control register access
 502:Drivers/STM32F3xx_HAL_Driver/Src/stm32f3xx_hal_flash.c ****   * @retval HAL Status
ARM GAS  /tmp/ccHRgJQr.s 			page 23


 503:Drivers/STM32F3xx_HAL_Driver/Src/stm32f3xx_hal_flash.c ****   */
 504:Drivers/STM32F3xx_HAL_Driver/Src/stm32f3xx_hal_flash.c **** HAL_StatusTypeDef HAL_FLASH_Lock(void)
 505:Drivers/STM32F3xx_HAL_Driver/Src/stm32f3xx_hal_flash.c **** {
 764              		.loc 1 505 0
 765              		.cfi_startproc
 766              		@ args = 0, pretend = 0, frame = 0
 767              		@ frame_needed = 1, uses_anonymous_args = 0
 768              		@ link register save eliminated.
 769 0000 80B4     		push	{r7}
 770              	.LCFI33:
 771              		.cfi_def_cfa_offset 4
 772              		.cfi_offset 7, -4
 773 0002 00AF     		add	r7, sp, #0
 774              	.LCFI34:
 775              		.cfi_def_cfa_register 7
 506:Drivers/STM32F3xx_HAL_Driver/Src/stm32f3xx_hal_flash.c ****   /* Set the LOCK Bit to lock the FLASH Registers access */
 507:Drivers/STM32F3xx_HAL_Driver/Src/stm32f3xx_hal_flash.c ****   SET_BIT(FLASH->CR, FLASH_CR_LOCK);
 776              		.loc 1 507 0
 777 0004 054B     		ldr	r3, .L47
 778 0006 1B69     		ldr	r3, [r3, #16]
 779 0008 044A     		ldr	r2, .L47
 780 000a 43F08003 		orr	r3, r3, #128
 781 000e 1361     		str	r3, [r2, #16]
 508:Drivers/STM32F3xx_HAL_Driver/Src/stm32f3xx_hal_flash.c ****   
 509:Drivers/STM32F3xx_HAL_Driver/Src/stm32f3xx_hal_flash.c ****   return HAL_OK;  
 782              		.loc 1 509 0
 783 0010 0023     		movs	r3, #0
 510:Drivers/STM32F3xx_HAL_Driver/Src/stm32f3xx_hal_flash.c **** }
 784              		.loc 1 510 0
 785 0012 1846     		mov	r0, r3
 786 0014 BD46     		mov	sp, r7
 787              	.LCFI35:
 788              		.cfi_def_cfa_register 13
 789              		@ sp needed
 790 0016 5DF8047B 		ldr	r7, [sp], #4
 791              	.LCFI36:
 792              		.cfi_restore 7
 793              		.cfi_def_cfa_offset 0
 794 001a 7047     		bx	lr
 795              	.L48:
 796              		.align	2
 797              	.L47:
 798 001c 00200240 		.word	1073881088
 799              		.cfi_endproc
 800              	.LFE129:
 802              		.section	.text.HAL_FLASH_OB_Unlock,"ax",%progbits
 803              		.align	1
 804              		.global	HAL_FLASH_OB_Unlock
 805              		.syntax unified
 806              		.thumb
 807              		.thumb_func
 808              		.fpu fpv4-sp-d16
 810              	HAL_FLASH_OB_Unlock:
 811              	.LFB130:
 511:Drivers/STM32F3xx_HAL_Driver/Src/stm32f3xx_hal_flash.c **** 
 512:Drivers/STM32F3xx_HAL_Driver/Src/stm32f3xx_hal_flash.c **** /**
 513:Drivers/STM32F3xx_HAL_Driver/Src/stm32f3xx_hal_flash.c ****   * @brief  Unlock the FLASH Option Control Registers access.
ARM GAS  /tmp/ccHRgJQr.s 			page 24


 514:Drivers/STM32F3xx_HAL_Driver/Src/stm32f3xx_hal_flash.c ****   * @retval HAL Status
 515:Drivers/STM32F3xx_HAL_Driver/Src/stm32f3xx_hal_flash.c ****   */
 516:Drivers/STM32F3xx_HAL_Driver/Src/stm32f3xx_hal_flash.c **** HAL_StatusTypeDef HAL_FLASH_OB_Unlock(void)
 517:Drivers/STM32F3xx_HAL_Driver/Src/stm32f3xx_hal_flash.c **** {
 812              		.loc 1 517 0
 813              		.cfi_startproc
 814              		@ args = 0, pretend = 0, frame = 0
 815              		@ frame_needed = 1, uses_anonymous_args = 0
 816              		@ link register save eliminated.
 817 0000 80B4     		push	{r7}
 818              	.LCFI37:
 819              		.cfi_def_cfa_offset 4
 820              		.cfi_offset 7, -4
 821 0002 00AF     		add	r7, sp, #0
 822              	.LCFI38:
 823              		.cfi_def_cfa_register 7
 518:Drivers/STM32F3xx_HAL_Driver/Src/stm32f3xx_hal_flash.c ****   if (HAL_IS_BIT_CLR(FLASH->CR, FLASH_CR_OPTWRE))
 824              		.loc 1 518 0
 825 0004 094B     		ldr	r3, .L53
 826 0006 1B69     		ldr	r3, [r3, #16]
 827 0008 03F40073 		and	r3, r3, #512
 828 000c 002B     		cmp	r3, #0
 829 000e 07D1     		bne	.L50
 519:Drivers/STM32F3xx_HAL_Driver/Src/stm32f3xx_hal_flash.c ****   {
 520:Drivers/STM32F3xx_HAL_Driver/Src/stm32f3xx_hal_flash.c ****     /* Authorizes the Option Byte register programming */
 521:Drivers/STM32F3xx_HAL_Driver/Src/stm32f3xx_hal_flash.c ****     WRITE_REG(FLASH->OPTKEYR, FLASH_OPTKEY1);
 830              		.loc 1 521 0
 831 0010 064B     		ldr	r3, .L53
 832 0012 074A     		ldr	r2, .L53+4
 833 0014 9A60     		str	r2, [r3, #8]
 522:Drivers/STM32F3xx_HAL_Driver/Src/stm32f3xx_hal_flash.c ****     WRITE_REG(FLASH->OPTKEYR, FLASH_OPTKEY2);
 834              		.loc 1 522 0
 835 0016 054B     		ldr	r3, .L53
 836 0018 064A     		ldr	r2, .L53+8
 837 001a 9A60     		str	r2, [r3, #8]
 523:Drivers/STM32F3xx_HAL_Driver/Src/stm32f3xx_hal_flash.c ****   }
 524:Drivers/STM32F3xx_HAL_Driver/Src/stm32f3xx_hal_flash.c ****   else
 525:Drivers/STM32F3xx_HAL_Driver/Src/stm32f3xx_hal_flash.c ****   {
 526:Drivers/STM32F3xx_HAL_Driver/Src/stm32f3xx_hal_flash.c ****     return HAL_ERROR;
 527:Drivers/STM32F3xx_HAL_Driver/Src/stm32f3xx_hal_flash.c ****   }  
 528:Drivers/STM32F3xx_HAL_Driver/Src/stm32f3xx_hal_flash.c ****   
 529:Drivers/STM32F3xx_HAL_Driver/Src/stm32f3xx_hal_flash.c ****   return HAL_OK;  
 838              		.loc 1 529 0
 839 001c 0023     		movs	r3, #0
 840 001e 00E0     		b	.L52
 841              	.L50:
 526:Drivers/STM32F3xx_HAL_Driver/Src/stm32f3xx_hal_flash.c ****   }  
 842              		.loc 1 526 0
 843 0020 0123     		movs	r3, #1
 844              	.L52:
 530:Drivers/STM32F3xx_HAL_Driver/Src/stm32f3xx_hal_flash.c **** }
 845              		.loc 1 530 0
 846 0022 1846     		mov	r0, r3
 847 0024 BD46     		mov	sp, r7
 848              	.LCFI39:
 849              		.cfi_def_cfa_register 13
 850              		@ sp needed
ARM GAS  /tmp/ccHRgJQr.s 			page 25


 851 0026 5DF8047B 		ldr	r7, [sp], #4
 852              	.LCFI40:
 853              		.cfi_restore 7
 854              		.cfi_def_cfa_offset 0
 855 002a 7047     		bx	lr
 856              	.L54:
 857              		.align	2
 858              	.L53:
 859 002c 00200240 		.word	1073881088
 860 0030 23016745 		.word	1164378403
 861 0034 AB89EFCD 		.word	-839939669
 862              		.cfi_endproc
 863              	.LFE130:
 865              		.section	.text.HAL_FLASH_OB_Lock,"ax",%progbits
 866              		.align	1
 867              		.global	HAL_FLASH_OB_Lock
 868              		.syntax unified
 869              		.thumb
 870              		.thumb_func
 871              		.fpu fpv4-sp-d16
 873              	HAL_FLASH_OB_Lock:
 874              	.LFB131:
 531:Drivers/STM32F3xx_HAL_Driver/Src/stm32f3xx_hal_flash.c **** 
 532:Drivers/STM32F3xx_HAL_Driver/Src/stm32f3xx_hal_flash.c **** /**
 533:Drivers/STM32F3xx_HAL_Driver/Src/stm32f3xx_hal_flash.c ****   * @brief  Lock the FLASH Option Control Registers access.
 534:Drivers/STM32F3xx_HAL_Driver/Src/stm32f3xx_hal_flash.c ****   * @retval HAL Status 
 535:Drivers/STM32F3xx_HAL_Driver/Src/stm32f3xx_hal_flash.c ****   */
 536:Drivers/STM32F3xx_HAL_Driver/Src/stm32f3xx_hal_flash.c **** HAL_StatusTypeDef HAL_FLASH_OB_Lock(void)
 537:Drivers/STM32F3xx_HAL_Driver/Src/stm32f3xx_hal_flash.c **** {
 875              		.loc 1 537 0
 876              		.cfi_startproc
 877              		@ args = 0, pretend = 0, frame = 0
 878              		@ frame_needed = 1, uses_anonymous_args = 0
 879              		@ link register save eliminated.
 880 0000 80B4     		push	{r7}
 881              	.LCFI41:
 882              		.cfi_def_cfa_offset 4
 883              		.cfi_offset 7, -4
 884 0002 00AF     		add	r7, sp, #0
 885              	.LCFI42:
 886              		.cfi_def_cfa_register 7
 538:Drivers/STM32F3xx_HAL_Driver/Src/stm32f3xx_hal_flash.c ****   /* Clear the OPTWRE Bit to lock the FLASH Option Byte Registers access */
 539:Drivers/STM32F3xx_HAL_Driver/Src/stm32f3xx_hal_flash.c ****   CLEAR_BIT(FLASH->CR, FLASH_CR_OPTWRE);
 887              		.loc 1 539 0
 888 0004 054B     		ldr	r3, .L57
 889 0006 1B69     		ldr	r3, [r3, #16]
 890 0008 044A     		ldr	r2, .L57
 891 000a 23F40073 		bic	r3, r3, #512
 892 000e 1361     		str	r3, [r2, #16]
 540:Drivers/STM32F3xx_HAL_Driver/Src/stm32f3xx_hal_flash.c ****   
 541:Drivers/STM32F3xx_HAL_Driver/Src/stm32f3xx_hal_flash.c ****   return HAL_OK;  
 893              		.loc 1 541 0
 894 0010 0023     		movs	r3, #0
 542:Drivers/STM32F3xx_HAL_Driver/Src/stm32f3xx_hal_flash.c **** }
 895              		.loc 1 542 0
 896 0012 1846     		mov	r0, r3
 897 0014 BD46     		mov	sp, r7
ARM GAS  /tmp/ccHRgJQr.s 			page 26


 898              	.LCFI43:
 899              		.cfi_def_cfa_register 13
 900              		@ sp needed
 901 0016 5DF8047B 		ldr	r7, [sp], #4
 902              	.LCFI44:
 903              		.cfi_restore 7
 904              		.cfi_def_cfa_offset 0
 905 001a 7047     		bx	lr
 906              	.L58:
 907              		.align	2
 908              	.L57:
 909 001c 00200240 		.word	1073881088
 910              		.cfi_endproc
 911              	.LFE131:
 913              		.section	.text.HAL_FLASH_OB_Launch,"ax",%progbits
 914              		.align	1
 915              		.global	HAL_FLASH_OB_Launch
 916              		.syntax unified
 917              		.thumb
 918              		.thumb_func
 919              		.fpu fpv4-sp-d16
 921              	HAL_FLASH_OB_Launch:
 922              	.LFB132:
 543:Drivers/STM32F3xx_HAL_Driver/Src/stm32f3xx_hal_flash.c ****   
 544:Drivers/STM32F3xx_HAL_Driver/Src/stm32f3xx_hal_flash.c **** /**
 545:Drivers/STM32F3xx_HAL_Driver/Src/stm32f3xx_hal_flash.c ****   * @brief  Launch the option byte loading.
 546:Drivers/STM32F3xx_HAL_Driver/Src/stm32f3xx_hal_flash.c ****   * @note   This function will reset automatically the MCU.
 547:Drivers/STM32F3xx_HAL_Driver/Src/stm32f3xx_hal_flash.c ****   * @retval HAL Status
 548:Drivers/STM32F3xx_HAL_Driver/Src/stm32f3xx_hal_flash.c ****   */
 549:Drivers/STM32F3xx_HAL_Driver/Src/stm32f3xx_hal_flash.c **** HAL_StatusTypeDef HAL_FLASH_OB_Launch(void)
 550:Drivers/STM32F3xx_HAL_Driver/Src/stm32f3xx_hal_flash.c **** {
 923              		.loc 1 550 0
 924              		.cfi_startproc
 925              		@ args = 0, pretend = 0, frame = 0
 926              		@ frame_needed = 1, uses_anonymous_args = 0
 927 0000 80B5     		push	{r7, lr}
 928              	.LCFI45:
 929              		.cfi_def_cfa_offset 8
 930              		.cfi_offset 7, -8
 931              		.cfi_offset 14, -4
 932 0002 00AF     		add	r7, sp, #0
 933              	.LCFI46:
 934              		.cfi_def_cfa_register 7
 551:Drivers/STM32F3xx_HAL_Driver/Src/stm32f3xx_hal_flash.c ****   /* Set the OBL_Launch bit to launch the option byte loading */
 552:Drivers/STM32F3xx_HAL_Driver/Src/stm32f3xx_hal_flash.c ****   SET_BIT(FLASH->CR, FLASH_CR_OBL_LAUNCH);
 935              		.loc 1 552 0
 936 0004 064B     		ldr	r3, .L61
 937 0006 1B69     		ldr	r3, [r3, #16]
 938 0008 054A     		ldr	r2, .L61
 939 000a 43F40053 		orr	r3, r3, #8192
 940 000e 1361     		str	r3, [r2, #16]
 553:Drivers/STM32F3xx_HAL_Driver/Src/stm32f3xx_hal_flash.c ****   
 554:Drivers/STM32F3xx_HAL_Driver/Src/stm32f3xx_hal_flash.c ****   /* Wait for last operation to be completed */
 555:Drivers/STM32F3xx_HAL_Driver/Src/stm32f3xx_hal_flash.c ****   return(FLASH_WaitForLastOperation(FLASH_TIMEOUT_VALUE));
 941              		.loc 1 555 0
 942 0010 4CF25030 		movw	r0, #50000
 943 0014 FFF7FEFF 		bl	FLASH_WaitForLastOperation
ARM GAS  /tmp/ccHRgJQr.s 			page 27


 944 0018 0346     		mov	r3, r0
 556:Drivers/STM32F3xx_HAL_Driver/Src/stm32f3xx_hal_flash.c **** }
 945              		.loc 1 556 0
 946 001a 1846     		mov	r0, r3
 947 001c 80BD     		pop	{r7, pc}
 948              	.L62:
 949 001e 00BF     		.align	2
 950              	.L61:
 951 0020 00200240 		.word	1073881088
 952              		.cfi_endproc
 953              	.LFE132:
 955              		.section	.text.HAL_FLASH_GetError,"ax",%progbits
 956              		.align	1
 957              		.global	HAL_FLASH_GetError
 958              		.syntax unified
 959              		.thumb
 960              		.thumb_func
 961              		.fpu fpv4-sp-d16
 963              	HAL_FLASH_GetError:
 964              	.LFB133:
 557:Drivers/STM32F3xx_HAL_Driver/Src/stm32f3xx_hal_flash.c **** 
 558:Drivers/STM32F3xx_HAL_Driver/Src/stm32f3xx_hal_flash.c **** /**
 559:Drivers/STM32F3xx_HAL_Driver/Src/stm32f3xx_hal_flash.c ****   * @}
 560:Drivers/STM32F3xx_HAL_Driver/Src/stm32f3xx_hal_flash.c ****   */  
 561:Drivers/STM32F3xx_HAL_Driver/Src/stm32f3xx_hal_flash.c **** 
 562:Drivers/STM32F3xx_HAL_Driver/Src/stm32f3xx_hal_flash.c **** /** @defgroup FLASH_Exported_Functions_Group3 Peripheral errors functions 
 563:Drivers/STM32F3xx_HAL_Driver/Src/stm32f3xx_hal_flash.c ****  *  @brief    Peripheral errors functions 
 564:Drivers/STM32F3xx_HAL_Driver/Src/stm32f3xx_hal_flash.c ****  *
 565:Drivers/STM32F3xx_HAL_Driver/Src/stm32f3xx_hal_flash.c **** @verbatim   
 566:Drivers/STM32F3xx_HAL_Driver/Src/stm32f3xx_hal_flash.c ****  ===============================================================================
 567:Drivers/STM32F3xx_HAL_Driver/Src/stm32f3xx_hal_flash.c ****                       ##### Peripheral Errors functions #####
 568:Drivers/STM32F3xx_HAL_Driver/Src/stm32f3xx_hal_flash.c ****  ===============================================================================  
 569:Drivers/STM32F3xx_HAL_Driver/Src/stm32f3xx_hal_flash.c ****     [..]
 570:Drivers/STM32F3xx_HAL_Driver/Src/stm32f3xx_hal_flash.c ****     This subsection permit to get in run-time errors of  the FLASH peripheral.
 571:Drivers/STM32F3xx_HAL_Driver/Src/stm32f3xx_hal_flash.c **** 
 572:Drivers/STM32F3xx_HAL_Driver/Src/stm32f3xx_hal_flash.c **** @endverbatim
 573:Drivers/STM32F3xx_HAL_Driver/Src/stm32f3xx_hal_flash.c ****   * @{
 574:Drivers/STM32F3xx_HAL_Driver/Src/stm32f3xx_hal_flash.c ****   */
 575:Drivers/STM32F3xx_HAL_Driver/Src/stm32f3xx_hal_flash.c **** 
 576:Drivers/STM32F3xx_HAL_Driver/Src/stm32f3xx_hal_flash.c **** /**
 577:Drivers/STM32F3xx_HAL_Driver/Src/stm32f3xx_hal_flash.c ****   * @brief  Get the specific FLASH error flag.
 578:Drivers/STM32F3xx_HAL_Driver/Src/stm32f3xx_hal_flash.c ****   * @retval FLASH_ErrorCode The returned value can be:
 579:Drivers/STM32F3xx_HAL_Driver/Src/stm32f3xx_hal_flash.c ****   *            @ref FLASH_Error_Codes
 580:Drivers/STM32F3xx_HAL_Driver/Src/stm32f3xx_hal_flash.c ****   */
 581:Drivers/STM32F3xx_HAL_Driver/Src/stm32f3xx_hal_flash.c **** uint32_t HAL_FLASH_GetError(void)
 582:Drivers/STM32F3xx_HAL_Driver/Src/stm32f3xx_hal_flash.c **** {
 965              		.loc 1 582 0
 966              		.cfi_startproc
 967              		@ args = 0, pretend = 0, frame = 0
 968              		@ frame_needed = 1, uses_anonymous_args = 0
 969              		@ link register save eliminated.
 970 0000 80B4     		push	{r7}
 971              	.LCFI47:
 972              		.cfi_def_cfa_offset 4
 973              		.cfi_offset 7, -4
 974 0002 00AF     		add	r7, sp, #0
 975              	.LCFI48:
ARM GAS  /tmp/ccHRgJQr.s 			page 28


 976              		.cfi_def_cfa_register 7
 583:Drivers/STM32F3xx_HAL_Driver/Src/stm32f3xx_hal_flash.c ****    return pFlash.ErrorCode;
 977              		.loc 1 583 0
 978 0004 034B     		ldr	r3, .L65
 979 0006 DB69     		ldr	r3, [r3, #28]
 584:Drivers/STM32F3xx_HAL_Driver/Src/stm32f3xx_hal_flash.c **** }
 980              		.loc 1 584 0
 981 0008 1846     		mov	r0, r3
 982 000a BD46     		mov	sp, r7
 983              	.LCFI49:
 984              		.cfi_def_cfa_register 13
 985              		@ sp needed
 986 000c 5DF8047B 		ldr	r7, [sp], #4
 987              	.LCFI50:
 988              		.cfi_restore 7
 989              		.cfi_def_cfa_offset 0
 990 0010 7047     		bx	lr
 991              	.L66:
 992 0012 00BF     		.align	2
 993              	.L65:
 994 0014 00000000 		.word	pFlash
 995              		.cfi_endproc
 996              	.LFE133:
 998              		.section	.text.FLASH_Program_HalfWord,"ax",%progbits
 999              		.align	1
 1000              		.syntax unified
 1001              		.thumb
 1002              		.thumb_func
 1003              		.fpu fpv4-sp-d16
 1005              	FLASH_Program_HalfWord:
 1006              	.LFB134:
 585:Drivers/STM32F3xx_HAL_Driver/Src/stm32f3xx_hal_flash.c **** 
 586:Drivers/STM32F3xx_HAL_Driver/Src/stm32f3xx_hal_flash.c **** /**
 587:Drivers/STM32F3xx_HAL_Driver/Src/stm32f3xx_hal_flash.c ****   * @}
 588:Drivers/STM32F3xx_HAL_Driver/Src/stm32f3xx_hal_flash.c ****   */
 589:Drivers/STM32F3xx_HAL_Driver/Src/stm32f3xx_hal_flash.c **** 
 590:Drivers/STM32F3xx_HAL_Driver/Src/stm32f3xx_hal_flash.c **** /**
 591:Drivers/STM32F3xx_HAL_Driver/Src/stm32f3xx_hal_flash.c ****   * @}
 592:Drivers/STM32F3xx_HAL_Driver/Src/stm32f3xx_hal_flash.c ****   */
 593:Drivers/STM32F3xx_HAL_Driver/Src/stm32f3xx_hal_flash.c **** 
 594:Drivers/STM32F3xx_HAL_Driver/Src/stm32f3xx_hal_flash.c **** /** @addtogroup FLASH_Private_Functions
 595:Drivers/STM32F3xx_HAL_Driver/Src/stm32f3xx_hal_flash.c ****  * @{
 596:Drivers/STM32F3xx_HAL_Driver/Src/stm32f3xx_hal_flash.c ****  */
 597:Drivers/STM32F3xx_HAL_Driver/Src/stm32f3xx_hal_flash.c **** 
 598:Drivers/STM32F3xx_HAL_Driver/Src/stm32f3xx_hal_flash.c **** /**
 599:Drivers/STM32F3xx_HAL_Driver/Src/stm32f3xx_hal_flash.c ****   * @brief  Program a half-word (16-bit) at a specified address.
 600:Drivers/STM32F3xx_HAL_Driver/Src/stm32f3xx_hal_flash.c ****   * @param  Address specify the address to be programmed.
 601:Drivers/STM32F3xx_HAL_Driver/Src/stm32f3xx_hal_flash.c ****   * @param  Data    specify the data to be programmed.
 602:Drivers/STM32F3xx_HAL_Driver/Src/stm32f3xx_hal_flash.c ****   * @retval None
 603:Drivers/STM32F3xx_HAL_Driver/Src/stm32f3xx_hal_flash.c ****   */
 604:Drivers/STM32F3xx_HAL_Driver/Src/stm32f3xx_hal_flash.c **** static void FLASH_Program_HalfWord(uint32_t Address, uint16_t Data)
 605:Drivers/STM32F3xx_HAL_Driver/Src/stm32f3xx_hal_flash.c **** {
 1007              		.loc 1 605 0
 1008              		.cfi_startproc
 1009              		@ args = 0, pretend = 0, frame = 8
 1010              		@ frame_needed = 1, uses_anonymous_args = 0
 1011              		@ link register save eliminated.
ARM GAS  /tmp/ccHRgJQr.s 			page 29


 1012 0000 80B4     		push	{r7}
 1013              	.LCFI51:
 1014              		.cfi_def_cfa_offset 4
 1015              		.cfi_offset 7, -4
 1016 0002 83B0     		sub	sp, sp, #12
 1017              	.LCFI52:
 1018              		.cfi_def_cfa_offset 16
 1019 0004 00AF     		add	r7, sp, #0
 1020              	.LCFI53:
 1021              		.cfi_def_cfa_register 7
 1022 0006 7860     		str	r0, [r7, #4]
 1023 0008 0B46     		mov	r3, r1
 1024 000a 7B80     		strh	r3, [r7, #2]	@ movhi
 606:Drivers/STM32F3xx_HAL_Driver/Src/stm32f3xx_hal_flash.c ****   /* Clean the error context */
 607:Drivers/STM32F3xx_HAL_Driver/Src/stm32f3xx_hal_flash.c ****   pFlash.ErrorCode = HAL_FLASH_ERROR_NONE;
 1025              		.loc 1 607 0
 1026 000c 084B     		ldr	r3, .L68
 1027 000e 0022     		movs	r2, #0
 1028 0010 DA61     		str	r2, [r3, #28]
 608:Drivers/STM32F3xx_HAL_Driver/Src/stm32f3xx_hal_flash.c ****   
 609:Drivers/STM32F3xx_HAL_Driver/Src/stm32f3xx_hal_flash.c ****     /* Proceed to program the new data */
 610:Drivers/STM32F3xx_HAL_Driver/Src/stm32f3xx_hal_flash.c ****     SET_BIT(FLASH->CR, FLASH_CR_PG);
 1029              		.loc 1 610 0
 1030 0012 084B     		ldr	r3, .L68+4
 1031 0014 1B69     		ldr	r3, [r3, #16]
 1032 0016 074A     		ldr	r2, .L68+4
 1033 0018 43F00103 		orr	r3, r3, #1
 1034 001c 1361     		str	r3, [r2, #16]
 611:Drivers/STM32F3xx_HAL_Driver/Src/stm32f3xx_hal_flash.c **** 
 612:Drivers/STM32F3xx_HAL_Driver/Src/stm32f3xx_hal_flash.c ****   /* Write data in the address */
 613:Drivers/STM32F3xx_HAL_Driver/Src/stm32f3xx_hal_flash.c ****   *(__IO uint16_t*)Address = Data;
 1035              		.loc 1 613 0
 1036 001e 7B68     		ldr	r3, [r7, #4]
 1037 0020 7A88     		ldrh	r2, [r7, #2]	@ movhi
 1038 0022 1A80     		strh	r2, [r3]	@ movhi
 614:Drivers/STM32F3xx_HAL_Driver/Src/stm32f3xx_hal_flash.c **** }
 1039              		.loc 1 614 0
 1040 0024 00BF     		nop
 1041 0026 0C37     		adds	r7, r7, #12
 1042              	.LCFI54:
 1043              		.cfi_def_cfa_offset 4
 1044 0028 BD46     		mov	sp, r7
 1045              	.LCFI55:
 1046              		.cfi_def_cfa_register 13
 1047              		@ sp needed
 1048 002a 5DF8047B 		ldr	r7, [sp], #4
 1049              	.LCFI56:
 1050              		.cfi_restore 7
 1051              		.cfi_def_cfa_offset 0
 1052 002e 7047     		bx	lr
 1053              	.L69:
 1054              		.align	2
 1055              	.L68:
 1056 0030 00000000 		.word	pFlash
 1057 0034 00200240 		.word	1073881088
 1058              		.cfi_endproc
 1059              	.LFE134:
ARM GAS  /tmp/ccHRgJQr.s 			page 30


 1061              		.section	.text.FLASH_WaitForLastOperation,"ax",%progbits
 1062              		.align	1
 1063              		.global	FLASH_WaitForLastOperation
 1064              		.syntax unified
 1065              		.thumb
 1066              		.thumb_func
 1067              		.fpu fpv4-sp-d16
 1069              	FLASH_WaitForLastOperation:
 1070              	.LFB135:
 615:Drivers/STM32F3xx_HAL_Driver/Src/stm32f3xx_hal_flash.c **** 
 616:Drivers/STM32F3xx_HAL_Driver/Src/stm32f3xx_hal_flash.c **** /**
 617:Drivers/STM32F3xx_HAL_Driver/Src/stm32f3xx_hal_flash.c ****   * @brief  Wait for a FLASH operation to complete.
 618:Drivers/STM32F3xx_HAL_Driver/Src/stm32f3xx_hal_flash.c ****   * @param  Timeout  maximum flash operation timeout
 619:Drivers/STM32F3xx_HAL_Driver/Src/stm32f3xx_hal_flash.c ****   * @retval HAL Status
 620:Drivers/STM32F3xx_HAL_Driver/Src/stm32f3xx_hal_flash.c ****   */
 621:Drivers/STM32F3xx_HAL_Driver/Src/stm32f3xx_hal_flash.c **** HAL_StatusTypeDef FLASH_WaitForLastOperation(uint32_t Timeout)
 622:Drivers/STM32F3xx_HAL_Driver/Src/stm32f3xx_hal_flash.c **** {
 1071              		.loc 1 622 0
 1072              		.cfi_startproc
 1073              		@ args = 0, pretend = 0, frame = 16
 1074              		@ frame_needed = 1, uses_anonymous_args = 0
 1075 0000 80B5     		push	{r7, lr}
 1076              	.LCFI57:
 1077              		.cfi_def_cfa_offset 8
 1078              		.cfi_offset 7, -8
 1079              		.cfi_offset 14, -4
 1080 0002 84B0     		sub	sp, sp, #16
 1081              	.LCFI58:
 1082              		.cfi_def_cfa_offset 24
 1083 0004 00AF     		add	r7, sp, #0
 1084              	.LCFI59:
 1085              		.cfi_def_cfa_register 7
 1086 0006 7860     		str	r0, [r7, #4]
 623:Drivers/STM32F3xx_HAL_Driver/Src/stm32f3xx_hal_flash.c ****   /* Wait for the FLASH operation to complete by polling on BUSY flag to be reset.
 624:Drivers/STM32F3xx_HAL_Driver/Src/stm32f3xx_hal_flash.c ****      Even if the FLASH operation fails, the BUSY flag will be reset and an error
 625:Drivers/STM32F3xx_HAL_Driver/Src/stm32f3xx_hal_flash.c ****      flag will be set */
 626:Drivers/STM32F3xx_HAL_Driver/Src/stm32f3xx_hal_flash.c ****      
 627:Drivers/STM32F3xx_HAL_Driver/Src/stm32f3xx_hal_flash.c ****   uint32_t tickstart = HAL_GetTick();
 1087              		.loc 1 627 0
 1088 0008 FFF7FEFF 		bl	HAL_GetTick
 1089 000c F860     		str	r0, [r7, #12]
 628:Drivers/STM32F3xx_HAL_Driver/Src/stm32f3xx_hal_flash.c ****      
 629:Drivers/STM32F3xx_HAL_Driver/Src/stm32f3xx_hal_flash.c ****   while(__HAL_FLASH_GET_FLAG(FLASH_FLAG_BSY)) 
 1090              		.loc 1 629 0
 1091 000e 10E0     		b	.L71
 1092              	.L74:
 630:Drivers/STM32F3xx_HAL_Driver/Src/stm32f3xx_hal_flash.c ****   { 
 631:Drivers/STM32F3xx_HAL_Driver/Src/stm32f3xx_hal_flash.c ****     if (Timeout != HAL_MAX_DELAY)
 1093              		.loc 1 631 0
 1094 0010 7B68     		ldr	r3, [r7, #4]
 1095 0012 B3F1FF3F 		cmp	r3, #-1
 1096 0016 0CD0     		beq	.L71
 632:Drivers/STM32F3xx_HAL_Driver/Src/stm32f3xx_hal_flash.c ****     {
 633:Drivers/STM32F3xx_HAL_Driver/Src/stm32f3xx_hal_flash.c ****       if((Timeout == 0U) || ((HAL_GetTick()-tickstart) > Timeout))
 1097              		.loc 1 633 0
 1098 0018 7B68     		ldr	r3, [r7, #4]
 1099 001a 002B     		cmp	r3, #0
ARM GAS  /tmp/ccHRgJQr.s 			page 31


 1100 001c 07D0     		beq	.L72
 1101              		.loc 1 633 0 is_stmt 0 discriminator 1
 1102 001e FFF7FEFF 		bl	HAL_GetTick
 1103 0022 0246     		mov	r2, r0
 1104 0024 FB68     		ldr	r3, [r7, #12]
 1105 0026 D31A     		subs	r3, r2, r3
 1106 0028 7A68     		ldr	r2, [r7, #4]
 1107 002a 9A42     		cmp	r2, r3
 1108 002c 01D2     		bcs	.L71
 1109              	.L72:
 634:Drivers/STM32F3xx_HAL_Driver/Src/stm32f3xx_hal_flash.c ****       {
 635:Drivers/STM32F3xx_HAL_Driver/Src/stm32f3xx_hal_flash.c ****         return HAL_TIMEOUT;
 1110              		.loc 1 635 0 is_stmt 1
 1111 002e 0323     		movs	r3, #3
 1112 0030 1FE0     		b	.L73
 1113              	.L71:
 629:Drivers/STM32F3xx_HAL_Driver/Src/stm32f3xx_hal_flash.c ****   { 
 1114              		.loc 1 629 0
 1115 0032 124B     		ldr	r3, .L78
 1116 0034 DB68     		ldr	r3, [r3, #12]
 1117 0036 03F00103 		and	r3, r3, #1
 1118 003a 012B     		cmp	r3, #1
 1119 003c E8D0     		beq	.L74
 636:Drivers/STM32F3xx_HAL_Driver/Src/stm32f3xx_hal_flash.c ****       }
 637:Drivers/STM32F3xx_HAL_Driver/Src/stm32f3xx_hal_flash.c ****     }
 638:Drivers/STM32F3xx_HAL_Driver/Src/stm32f3xx_hal_flash.c ****   }
 639:Drivers/STM32F3xx_HAL_Driver/Src/stm32f3xx_hal_flash.c ****   
 640:Drivers/STM32F3xx_HAL_Driver/Src/stm32f3xx_hal_flash.c ****   /* Check FLASH End of Operation flag  */
 641:Drivers/STM32F3xx_HAL_Driver/Src/stm32f3xx_hal_flash.c ****   if (__HAL_FLASH_GET_FLAG(FLASH_FLAG_EOP))
 1120              		.loc 1 641 0
 1121 003e 0F4B     		ldr	r3, .L78
 1122 0040 DB68     		ldr	r3, [r3, #12]
 1123 0042 03F02003 		and	r3, r3, #32
 1124 0046 202B     		cmp	r3, #32
 1125 0048 02D1     		bne	.L75
 642:Drivers/STM32F3xx_HAL_Driver/Src/stm32f3xx_hal_flash.c ****   {
 643:Drivers/STM32F3xx_HAL_Driver/Src/stm32f3xx_hal_flash.c ****     /* Clear FLASH End of Operation pending bit */
 644:Drivers/STM32F3xx_HAL_Driver/Src/stm32f3xx_hal_flash.c ****     __HAL_FLASH_CLEAR_FLAG(FLASH_FLAG_EOP);
 1126              		.loc 1 644 0
 1127 004a 0C4B     		ldr	r3, .L78
 1128 004c 2022     		movs	r2, #32
 1129 004e DA60     		str	r2, [r3, #12]
 1130              	.L75:
 645:Drivers/STM32F3xx_HAL_Driver/Src/stm32f3xx_hal_flash.c ****   }
 646:Drivers/STM32F3xx_HAL_Driver/Src/stm32f3xx_hal_flash.c ****   
 647:Drivers/STM32F3xx_HAL_Driver/Src/stm32f3xx_hal_flash.c ****   if(__HAL_FLASH_GET_FLAG(FLASH_FLAG_WRPERR)  || 
 1131              		.loc 1 647 0
 1132 0050 0A4B     		ldr	r3, .L78
 1133 0052 DB68     		ldr	r3, [r3, #12]
 1134 0054 03F01003 		and	r3, r3, #16
 1135 0058 102B     		cmp	r3, #16
 1136 005a 05D0     		beq	.L76
 648:Drivers/STM32F3xx_HAL_Driver/Src/stm32f3xx_hal_flash.c ****      __HAL_FLASH_GET_FLAG(FLASH_FLAG_PGERR))
 1137              		.loc 1 648 0 discriminator 1
 1138 005c 074B     		ldr	r3, .L78
 1139 005e DB68     		ldr	r3, [r3, #12]
 1140 0060 03F00403 		and	r3, r3, #4
ARM GAS  /tmp/ccHRgJQr.s 			page 32


 647:Drivers/STM32F3xx_HAL_Driver/Src/stm32f3xx_hal_flash.c ****      __HAL_FLASH_GET_FLAG(FLASH_FLAG_PGERR))
 1141              		.loc 1 647 0 discriminator 1
 1142 0064 042B     		cmp	r3, #4
 1143 0066 03D1     		bne	.L77
 1144              	.L76:
 649:Drivers/STM32F3xx_HAL_Driver/Src/stm32f3xx_hal_flash.c ****   {
 650:Drivers/STM32F3xx_HAL_Driver/Src/stm32f3xx_hal_flash.c ****     /*Save the error code*/
 651:Drivers/STM32F3xx_HAL_Driver/Src/stm32f3xx_hal_flash.c ****     FLASH_SetErrorCode();
 1145              		.loc 1 651 0
 1146 0068 FFF7FEFF 		bl	FLASH_SetErrorCode
 652:Drivers/STM32F3xx_HAL_Driver/Src/stm32f3xx_hal_flash.c ****     return HAL_ERROR;
 1147              		.loc 1 652 0
 1148 006c 0123     		movs	r3, #1
 1149 006e 00E0     		b	.L73
 1150              	.L77:
 653:Drivers/STM32F3xx_HAL_Driver/Src/stm32f3xx_hal_flash.c ****   }
 654:Drivers/STM32F3xx_HAL_Driver/Src/stm32f3xx_hal_flash.c **** 
 655:Drivers/STM32F3xx_HAL_Driver/Src/stm32f3xx_hal_flash.c ****   /* There is no error flag set */
 656:Drivers/STM32F3xx_HAL_Driver/Src/stm32f3xx_hal_flash.c ****   return HAL_OK;
 1151              		.loc 1 656 0
 1152 0070 0023     		movs	r3, #0
 1153              	.L73:
 657:Drivers/STM32F3xx_HAL_Driver/Src/stm32f3xx_hal_flash.c **** }
 1154              		.loc 1 657 0
 1155 0072 1846     		mov	r0, r3
 1156 0074 1037     		adds	r7, r7, #16
 1157              	.LCFI60:
 1158              		.cfi_def_cfa_offset 8
 1159 0076 BD46     		mov	sp, r7
 1160              	.LCFI61:
 1161              		.cfi_def_cfa_register 13
 1162              		@ sp needed
 1163 0078 80BD     		pop	{r7, pc}
 1164              	.L79:
 1165 007a 00BF     		.align	2
 1166              	.L78:
 1167 007c 00200240 		.word	1073881088
 1168              		.cfi_endproc
 1169              	.LFE135:
 1171              		.section	.text.FLASH_SetErrorCode,"ax",%progbits
 1172              		.align	1
 1173              		.syntax unified
 1174              		.thumb
 1175              		.thumb_func
 1176              		.fpu fpv4-sp-d16
 1178              	FLASH_SetErrorCode:
 1179              	.LFB136:
 658:Drivers/STM32F3xx_HAL_Driver/Src/stm32f3xx_hal_flash.c **** 
 659:Drivers/STM32F3xx_HAL_Driver/Src/stm32f3xx_hal_flash.c **** 
 660:Drivers/STM32F3xx_HAL_Driver/Src/stm32f3xx_hal_flash.c **** /**
 661:Drivers/STM32F3xx_HAL_Driver/Src/stm32f3xx_hal_flash.c ****   * @brief  Set the specific FLASH error flag.
 662:Drivers/STM32F3xx_HAL_Driver/Src/stm32f3xx_hal_flash.c ****   * @retval None
 663:Drivers/STM32F3xx_HAL_Driver/Src/stm32f3xx_hal_flash.c ****   */
 664:Drivers/STM32F3xx_HAL_Driver/Src/stm32f3xx_hal_flash.c **** static void FLASH_SetErrorCode(void)
 665:Drivers/STM32F3xx_HAL_Driver/Src/stm32f3xx_hal_flash.c **** {
 1180              		.loc 1 665 0
 1181              		.cfi_startproc
ARM GAS  /tmp/ccHRgJQr.s 			page 33


 1182              		@ args = 0, pretend = 0, frame = 8
 1183              		@ frame_needed = 1, uses_anonymous_args = 0
 1184              		@ link register save eliminated.
 1185 0000 80B4     		push	{r7}
 1186              	.LCFI62:
 1187              		.cfi_def_cfa_offset 4
 1188              		.cfi_offset 7, -4
 1189 0002 83B0     		sub	sp, sp, #12
 1190              	.LCFI63:
 1191              		.cfi_def_cfa_offset 16
 1192 0004 00AF     		add	r7, sp, #0
 1193              	.LCFI64:
 1194              		.cfi_def_cfa_register 7
 666:Drivers/STM32F3xx_HAL_Driver/Src/stm32f3xx_hal_flash.c ****   uint32_t flags = 0U;
 1195              		.loc 1 666 0
 1196 0006 0023     		movs	r3, #0
 1197 0008 7B60     		str	r3, [r7, #4]
 667:Drivers/STM32F3xx_HAL_Driver/Src/stm32f3xx_hal_flash.c ****   
 668:Drivers/STM32F3xx_HAL_Driver/Src/stm32f3xx_hal_flash.c ****   if(__HAL_FLASH_GET_FLAG(FLASH_FLAG_WRPERR))
 1198              		.loc 1 668 0
 1199 000a 144B     		ldr	r3, .L83
 1200 000c DB68     		ldr	r3, [r3, #12]
 1201 000e 03F01003 		and	r3, r3, #16
 1202 0012 102B     		cmp	r3, #16
 1203 0014 09D1     		bne	.L81
 669:Drivers/STM32F3xx_HAL_Driver/Src/stm32f3xx_hal_flash.c ****   {
 670:Drivers/STM32F3xx_HAL_Driver/Src/stm32f3xx_hal_flash.c ****     pFlash.ErrorCode |= HAL_FLASH_ERROR_WRP;
 1204              		.loc 1 670 0
 1205 0016 124B     		ldr	r3, .L83+4
 1206 0018 DB69     		ldr	r3, [r3, #28]
 1207 001a 43F00203 		orr	r3, r3, #2
 1208 001e 104A     		ldr	r2, .L83+4
 1209 0020 D361     		str	r3, [r2, #28]
 671:Drivers/STM32F3xx_HAL_Driver/Src/stm32f3xx_hal_flash.c ****     flags |= FLASH_FLAG_WRPERR;
 1210              		.loc 1 671 0
 1211 0022 7B68     		ldr	r3, [r7, #4]
 1212 0024 43F01003 		orr	r3, r3, #16
 1213 0028 7B60     		str	r3, [r7, #4]
 1214              	.L81:
 672:Drivers/STM32F3xx_HAL_Driver/Src/stm32f3xx_hal_flash.c ****   }
 673:Drivers/STM32F3xx_HAL_Driver/Src/stm32f3xx_hal_flash.c ****   if(__HAL_FLASH_GET_FLAG(FLASH_FLAG_PGERR))
 1215              		.loc 1 673 0
 1216 002a 0C4B     		ldr	r3, .L83
 1217 002c DB68     		ldr	r3, [r3, #12]
 1218 002e 03F00403 		and	r3, r3, #4
 1219 0032 042B     		cmp	r3, #4
 1220 0034 09D1     		bne	.L82
 674:Drivers/STM32F3xx_HAL_Driver/Src/stm32f3xx_hal_flash.c ****   {
 675:Drivers/STM32F3xx_HAL_Driver/Src/stm32f3xx_hal_flash.c ****     pFlash.ErrorCode |= HAL_FLASH_ERROR_PROG;
 1221              		.loc 1 675 0
 1222 0036 0A4B     		ldr	r3, .L83+4
 1223 0038 DB69     		ldr	r3, [r3, #28]
 1224 003a 43F00103 		orr	r3, r3, #1
 1225 003e 084A     		ldr	r2, .L83+4
 1226 0040 D361     		str	r3, [r2, #28]
 676:Drivers/STM32F3xx_HAL_Driver/Src/stm32f3xx_hal_flash.c ****     flags |= FLASH_FLAG_PGERR;
 1227              		.loc 1 676 0
ARM GAS  /tmp/ccHRgJQr.s 			page 34


 1228 0042 7B68     		ldr	r3, [r7, #4]
 1229 0044 43F00403 		orr	r3, r3, #4
 1230 0048 7B60     		str	r3, [r7, #4]
 1231              	.L82:
 677:Drivers/STM32F3xx_HAL_Driver/Src/stm32f3xx_hal_flash.c ****   }
 678:Drivers/STM32F3xx_HAL_Driver/Src/stm32f3xx_hal_flash.c ****   /* Clear FLASH error pending bits */
 679:Drivers/STM32F3xx_HAL_Driver/Src/stm32f3xx_hal_flash.c ****   __HAL_FLASH_CLEAR_FLAG(flags);
 1232              		.loc 1 679 0
 1233 004a 044A     		ldr	r2, .L83
 1234 004c 7B68     		ldr	r3, [r7, #4]
 1235 004e D360     		str	r3, [r2, #12]
 680:Drivers/STM32F3xx_HAL_Driver/Src/stm32f3xx_hal_flash.c **** }  
 1236              		.loc 1 680 0
 1237 0050 00BF     		nop
 1238 0052 0C37     		adds	r7, r7, #12
 1239              	.LCFI65:
 1240              		.cfi_def_cfa_offset 4
 1241 0054 BD46     		mov	sp, r7
 1242              	.LCFI66:
 1243              		.cfi_def_cfa_register 13
 1244              		@ sp needed
 1245 0056 5DF8047B 		ldr	r7, [sp], #4
 1246              	.LCFI67:
 1247              		.cfi_restore 7
 1248              		.cfi_def_cfa_offset 0
 1249 005a 7047     		bx	lr
 1250              	.L84:
 1251              		.align	2
 1252              	.L83:
 1253 005c 00200240 		.word	1073881088
 1254 0060 00000000 		.word	pFlash
 1255              		.cfi_endproc
 1256              	.LFE136:
 1258              		.text
 1259              	.Letext0:
 1260              		.file 2 "/opt/st/stm32cubeide_1.3.0/plugins/com.st.stm32cube.ide.mcu.externaltools.gnu-tools-for-s
 1261              		.file 3 "/opt/st/stm32cubeide_1.3.0/plugins/com.st.stm32cube.ide.mcu.externaltools.gnu-tools-for-s
 1262              		.file 4 "Drivers/CMSIS/Include/core_cm4.h"
 1263              		.file 5 "Drivers/CMSIS/Device/ST/STM32F3xx/Include/system_stm32f3xx.h"
 1264              		.file 6 "Drivers/CMSIS/Device/ST/STM32F3xx/Include/stm32f303x8.h"
 1265              		.file 7 "Drivers/CMSIS/Device/ST/STM32F3xx/Include/stm32f3xx.h"
 1266              		.file 8 "Drivers/STM32F3xx_HAL_Driver/Inc/stm32f3xx_hal_def.h"
 1267              		.file 9 "Drivers/STM32F3xx_HAL_Driver/Inc/stm32f3xx_hal_flash.h"
 1268              		.file 10 "Drivers/STM32F3xx_HAL_Driver/Inc/stm32f3xx_hal.h"
ARM GAS  /tmp/ccHRgJQr.s 			page 35

