ARM GAS  /tmp/ccg0GetW.s 			page 1


   1              		.cpu cortex-m4
   2              		.eabi_attribute 27, 1
   3              		.eabi_attribute 28, 1
   4              		.eabi_attribute 20, 1
   5              		.eabi_attribute 21, 1
   6              		.eabi_attribute 23, 3
   7              		.eabi_attribute 24, 1
   8              		.eabi_attribute 25, 1
   9              		.eabi_attribute 26, 1
  10              		.eabi_attribute 30, 6
  11              		.eabi_attribute 34, 1
  12              		.eabi_attribute 18, 4
  13              		.file	"stm32f3xx_hal_gpio.c"
  14              		.text
  15              	.Ltext0:
  16              		.cfi_sections	.debug_frame
  17              		.section	.text.HAL_GPIO_Init,"ax",%progbits
  18              		.align	1
  19              		.global	HAL_GPIO_Init
  20              		.syntax unified
  21              		.thumb
  22              		.thumb_func
  23              		.fpu fpv4-sp-d16
  25              	HAL_GPIO_Init:
  26              	.LFB123:
  27              		.file 1 "Drivers/STM32F3xx_HAL_Driver/Src/stm32f3xx_hal_gpio.c"
   1:Drivers/STM32F3xx_HAL_Driver/Src/stm32f3xx_hal_gpio.c **** /**
   2:Drivers/STM32F3xx_HAL_Driver/Src/stm32f3xx_hal_gpio.c ****   ******************************************************************************
   3:Drivers/STM32F3xx_HAL_Driver/Src/stm32f3xx_hal_gpio.c ****   * @file    stm32f3xx_hal_gpio.c
   4:Drivers/STM32F3xx_HAL_Driver/Src/stm32f3xx_hal_gpio.c ****   * @author  MCD Application Team
   5:Drivers/STM32F3xx_HAL_Driver/Src/stm32f3xx_hal_gpio.c ****   * @brief   GPIO HAL module driver.
   6:Drivers/STM32F3xx_HAL_Driver/Src/stm32f3xx_hal_gpio.c ****   *          This file provides firmware functions to manage the following
   7:Drivers/STM32F3xx_HAL_Driver/Src/stm32f3xx_hal_gpio.c ****   *          functionalities of the General Purpose Input/Output (GPIO) peripheral:
   8:Drivers/STM32F3xx_HAL_Driver/Src/stm32f3xx_hal_gpio.c ****   *           + Initialization and de-initialization functions
   9:Drivers/STM32F3xx_HAL_Driver/Src/stm32f3xx_hal_gpio.c ****   *           + IO operation functions
  10:Drivers/STM32F3xx_HAL_Driver/Src/stm32f3xx_hal_gpio.c ****   *
  11:Drivers/STM32F3xx_HAL_Driver/Src/stm32f3xx_hal_gpio.c ****   @verbatim
  12:Drivers/STM32F3xx_HAL_Driver/Src/stm32f3xx_hal_gpio.c ****   ==============================================================================
  13:Drivers/STM32F3xx_HAL_Driver/Src/stm32f3xx_hal_gpio.c ****                     ##### GPIO Peripheral features #####
  14:Drivers/STM32F3xx_HAL_Driver/Src/stm32f3xx_hal_gpio.c ****   ==============================================================================
  15:Drivers/STM32F3xx_HAL_Driver/Src/stm32f3xx_hal_gpio.c ****   [..]
  16:Drivers/STM32F3xx_HAL_Driver/Src/stm32f3xx_hal_gpio.c ****     (+) Each port bit of the general-purpose I/O (GPIO) ports can be individually
  17:Drivers/STM32F3xx_HAL_Driver/Src/stm32f3xx_hal_gpio.c ****         configured by software in several modes:
  18:Drivers/STM32F3xx_HAL_Driver/Src/stm32f3xx_hal_gpio.c ****         (++) Input mode
  19:Drivers/STM32F3xx_HAL_Driver/Src/stm32f3xx_hal_gpio.c ****         (++) Analog mode
  20:Drivers/STM32F3xx_HAL_Driver/Src/stm32f3xx_hal_gpio.c ****         (++) Output mode
  21:Drivers/STM32F3xx_HAL_Driver/Src/stm32f3xx_hal_gpio.c ****         (++) Alternate function mode
  22:Drivers/STM32F3xx_HAL_Driver/Src/stm32f3xx_hal_gpio.c ****         (++) External interrupt/event lines
  23:Drivers/STM32F3xx_HAL_Driver/Src/stm32f3xx_hal_gpio.c **** 
  24:Drivers/STM32F3xx_HAL_Driver/Src/stm32f3xx_hal_gpio.c ****     (+) During and just after reset, the alternate functions and external interrupt
  25:Drivers/STM32F3xx_HAL_Driver/Src/stm32f3xx_hal_gpio.c ****         lines are not active and the I/O ports are configured in input floating mode.
  26:Drivers/STM32F3xx_HAL_Driver/Src/stm32f3xx_hal_gpio.c **** 
  27:Drivers/STM32F3xx_HAL_Driver/Src/stm32f3xx_hal_gpio.c ****     (+) All GPIO pins have weak internal pull-up and pull-down resistors, which can be
  28:Drivers/STM32F3xx_HAL_Driver/Src/stm32f3xx_hal_gpio.c ****         activated or not.
  29:Drivers/STM32F3xx_HAL_Driver/Src/stm32f3xx_hal_gpio.c **** 
  30:Drivers/STM32F3xx_HAL_Driver/Src/stm32f3xx_hal_gpio.c ****     (+) In Output or Alternate mode, each IO can be configured on open-drain or push-pull
  31:Drivers/STM32F3xx_HAL_Driver/Src/stm32f3xx_hal_gpio.c ****         type and the IO speed can be selected depending on the VDD value.
ARM GAS  /tmp/ccg0GetW.s 			page 2


  32:Drivers/STM32F3xx_HAL_Driver/Src/stm32f3xx_hal_gpio.c **** 
  33:Drivers/STM32F3xx_HAL_Driver/Src/stm32f3xx_hal_gpio.c ****     (+) The microcontroller IO pins are connected to onboard peripherals/modules through a
  34:Drivers/STM32F3xx_HAL_Driver/Src/stm32f3xx_hal_gpio.c ****         multiplexer that allows only one peripheral alternate function (AF) connected
  35:Drivers/STM32F3xx_HAL_Driver/Src/stm32f3xx_hal_gpio.c ****        to an IO pin at a time. In this way, there can be no conflict between peripherals
  36:Drivers/STM32F3xx_HAL_Driver/Src/stm32f3xx_hal_gpio.c ****        sharing the same IO pin.
  37:Drivers/STM32F3xx_HAL_Driver/Src/stm32f3xx_hal_gpio.c **** 
  38:Drivers/STM32F3xx_HAL_Driver/Src/stm32f3xx_hal_gpio.c ****     (+) All ports have external interrupt/event capability. To use external interrupt
  39:Drivers/STM32F3xx_HAL_Driver/Src/stm32f3xx_hal_gpio.c ****         lines, the port must be configured in input mode. All available GPIO pins are
  40:Drivers/STM32F3xx_HAL_Driver/Src/stm32f3xx_hal_gpio.c ****         connected to the 16 external interrupt/event lines from EXTI0 to EXTI15.
  41:Drivers/STM32F3xx_HAL_Driver/Src/stm32f3xx_hal_gpio.c **** 
  42:Drivers/STM32F3xx_HAL_Driver/Src/stm32f3xx_hal_gpio.c ****     (+) The external interrupt/event controller consists of up to 23 edge detectors
  43:Drivers/STM32F3xx_HAL_Driver/Src/stm32f3xx_hal_gpio.c ****         (16 lines are connected to GPIO) for generating event/interrupt requests (each
  44:Drivers/STM32F3xx_HAL_Driver/Src/stm32f3xx_hal_gpio.c ****         input line can be independently configured to select the type (interrupt or event)
  45:Drivers/STM32F3xx_HAL_Driver/Src/stm32f3xx_hal_gpio.c ****         and the corresponding trigger event (rising or falling or both). Each line can
  46:Drivers/STM32F3xx_HAL_Driver/Src/stm32f3xx_hal_gpio.c ****         also be masked independently.
  47:Drivers/STM32F3xx_HAL_Driver/Src/stm32f3xx_hal_gpio.c **** 
  48:Drivers/STM32F3xx_HAL_Driver/Src/stm32f3xx_hal_gpio.c ****                      ##### How to use this driver #####
  49:Drivers/STM32F3xx_HAL_Driver/Src/stm32f3xx_hal_gpio.c ****   ==============================================================================
  50:Drivers/STM32F3xx_HAL_Driver/Src/stm32f3xx_hal_gpio.c ****   [..]
  51:Drivers/STM32F3xx_HAL_Driver/Src/stm32f3xx_hal_gpio.c ****     (#) Enable the GPIO AHB clock using the following function: __HAL_RCC_GPIOx_CLK_ENABLE().
  52:Drivers/STM32F3xx_HAL_Driver/Src/stm32f3xx_hal_gpio.c **** 
  53:Drivers/STM32F3xx_HAL_Driver/Src/stm32f3xx_hal_gpio.c ****     (#) Configure the GPIO pin(s) using HAL_GPIO_Init().
  54:Drivers/STM32F3xx_HAL_Driver/Src/stm32f3xx_hal_gpio.c ****         (++) Configure the IO mode using "Mode" member from GPIO_InitTypeDef structure
  55:Drivers/STM32F3xx_HAL_Driver/Src/stm32f3xx_hal_gpio.c ****         (++) Activate Pull-up, Pull-down resistor using "Pull" member from GPIO_InitTypeDef
  56:Drivers/STM32F3xx_HAL_Driver/Src/stm32f3xx_hal_gpio.c ****              structure.
  57:Drivers/STM32F3xx_HAL_Driver/Src/stm32f3xx_hal_gpio.c ****         (++) In case of Output or alternate function mode selection: the speed is
  58:Drivers/STM32F3xx_HAL_Driver/Src/stm32f3xx_hal_gpio.c ****              configured through "Speed" member from GPIO_InitTypeDef structure.
  59:Drivers/STM32F3xx_HAL_Driver/Src/stm32f3xx_hal_gpio.c ****         (++) In alternate mode is selection, the alternate function connected to the IO
  60:Drivers/STM32F3xx_HAL_Driver/Src/stm32f3xx_hal_gpio.c ****              is configured through "Alternate" member from GPIO_InitTypeDef structure.
  61:Drivers/STM32F3xx_HAL_Driver/Src/stm32f3xx_hal_gpio.c ****         (++) Analog mode is required when a pin is to be used as ADC channel
  62:Drivers/STM32F3xx_HAL_Driver/Src/stm32f3xx_hal_gpio.c ****              or DAC output.
  63:Drivers/STM32F3xx_HAL_Driver/Src/stm32f3xx_hal_gpio.c ****         (++) In case of external interrupt/event selection the "Mode" member from
  64:Drivers/STM32F3xx_HAL_Driver/Src/stm32f3xx_hal_gpio.c ****              GPIO_InitTypeDef structure select the type (interrupt or event) and
  65:Drivers/STM32F3xx_HAL_Driver/Src/stm32f3xx_hal_gpio.c ****              the corresponding trigger event (rising or falling or both).
  66:Drivers/STM32F3xx_HAL_Driver/Src/stm32f3xx_hal_gpio.c **** 
  67:Drivers/STM32F3xx_HAL_Driver/Src/stm32f3xx_hal_gpio.c ****     (#) In case of external interrupt/event mode selection, configure NVIC IRQ priority
  68:Drivers/STM32F3xx_HAL_Driver/Src/stm32f3xx_hal_gpio.c ****         mapped to the EXTI line using HAL_NVIC_SetPriority() and enable it using
  69:Drivers/STM32F3xx_HAL_Driver/Src/stm32f3xx_hal_gpio.c ****         HAL_NVIC_EnableIRQ().
  70:Drivers/STM32F3xx_HAL_Driver/Src/stm32f3xx_hal_gpio.c **** 
  71:Drivers/STM32F3xx_HAL_Driver/Src/stm32f3xx_hal_gpio.c ****     (#) To get the level of a pin configured in input mode use HAL_GPIO_ReadPin().
  72:Drivers/STM32F3xx_HAL_Driver/Src/stm32f3xx_hal_gpio.c **** 
  73:Drivers/STM32F3xx_HAL_Driver/Src/stm32f3xx_hal_gpio.c ****     (#) To set/reset the level of a pin configured in output mode use
  74:Drivers/STM32F3xx_HAL_Driver/Src/stm32f3xx_hal_gpio.c ****         HAL_GPIO_WritePin()/HAL_GPIO_TogglePin().
  75:Drivers/STM32F3xx_HAL_Driver/Src/stm32f3xx_hal_gpio.c **** 
  76:Drivers/STM32F3xx_HAL_Driver/Src/stm32f3xx_hal_gpio.c ****    (#) To lock pin configuration until next reset use HAL_GPIO_LockPin().
  77:Drivers/STM32F3xx_HAL_Driver/Src/stm32f3xx_hal_gpio.c ****   
  78:Drivers/STM32F3xx_HAL_Driver/Src/stm32f3xx_hal_gpio.c ****     (#) During and just after reset, the alternate functions are not
  79:Drivers/STM32F3xx_HAL_Driver/Src/stm32f3xx_hal_gpio.c ****         active and the GPIO pins are configured in input floating mode (except JTAG
  80:Drivers/STM32F3xx_HAL_Driver/Src/stm32f3xx_hal_gpio.c ****         pins).
  81:Drivers/STM32F3xx_HAL_Driver/Src/stm32f3xx_hal_gpio.c **** 
  82:Drivers/STM32F3xx_HAL_Driver/Src/stm32f3xx_hal_gpio.c ****     (#) The LSE oscillator pins OSC32_IN and OSC32_OUT can be used as general purpose
  83:Drivers/STM32F3xx_HAL_Driver/Src/stm32f3xx_hal_gpio.c ****         (PC14 and PC15U, respectively) when the LSE oscillator is off. The LSE has
  84:Drivers/STM32F3xx_HAL_Driver/Src/stm32f3xx_hal_gpio.c ****         priority over the GPIO function.
  85:Drivers/STM32F3xx_HAL_Driver/Src/stm32f3xx_hal_gpio.c **** 
  86:Drivers/STM32F3xx_HAL_Driver/Src/stm32f3xx_hal_gpio.c ****     (#) The HSE oscillator pins OSC_IN/OSC_OUT can be used as
  87:Drivers/STM32F3xx_HAL_Driver/Src/stm32f3xx_hal_gpio.c ****         general purpose PF0 and PF1, respectively, when the HSE oscillator is off.
  88:Drivers/STM32F3xx_HAL_Driver/Src/stm32f3xx_hal_gpio.c ****         The HSE has priority over the GPIO function.
ARM GAS  /tmp/ccg0GetW.s 			page 3


  89:Drivers/STM32F3xx_HAL_Driver/Src/stm32f3xx_hal_gpio.c **** 
  90:Drivers/STM32F3xx_HAL_Driver/Src/stm32f3xx_hal_gpio.c ****   @endverbatim
  91:Drivers/STM32F3xx_HAL_Driver/Src/stm32f3xx_hal_gpio.c ****   ******************************************************************************
  92:Drivers/STM32F3xx_HAL_Driver/Src/stm32f3xx_hal_gpio.c ****   * @attention
  93:Drivers/STM32F3xx_HAL_Driver/Src/stm32f3xx_hal_gpio.c ****   *
  94:Drivers/STM32F3xx_HAL_Driver/Src/stm32f3xx_hal_gpio.c ****   * <h2><center>&copy; Copyright (c) 2016 STMicroelectronics.
  95:Drivers/STM32F3xx_HAL_Driver/Src/stm32f3xx_hal_gpio.c ****   * All rights reserved.</center></h2>
  96:Drivers/STM32F3xx_HAL_Driver/Src/stm32f3xx_hal_gpio.c ****   *
  97:Drivers/STM32F3xx_HAL_Driver/Src/stm32f3xx_hal_gpio.c ****   * This software component is licensed by ST under BSD 3-Clause license,
  98:Drivers/STM32F3xx_HAL_Driver/Src/stm32f3xx_hal_gpio.c ****   * the "License"; You may not use this file except in compliance with the
  99:Drivers/STM32F3xx_HAL_Driver/Src/stm32f3xx_hal_gpio.c ****   * License. You may obtain a copy of the License at:
 100:Drivers/STM32F3xx_HAL_Driver/Src/stm32f3xx_hal_gpio.c ****   *                        opensource.org/licenses/BSD-3-Clause
 101:Drivers/STM32F3xx_HAL_Driver/Src/stm32f3xx_hal_gpio.c ****   *
 102:Drivers/STM32F3xx_HAL_Driver/Src/stm32f3xx_hal_gpio.c ****   ******************************************************************************
 103:Drivers/STM32F3xx_HAL_Driver/Src/stm32f3xx_hal_gpio.c ****   */
 104:Drivers/STM32F3xx_HAL_Driver/Src/stm32f3xx_hal_gpio.c **** 
 105:Drivers/STM32F3xx_HAL_Driver/Src/stm32f3xx_hal_gpio.c **** /* Includes ------------------------------------------------------------------*/
 106:Drivers/STM32F3xx_HAL_Driver/Src/stm32f3xx_hal_gpio.c **** #include "stm32f3xx_hal.h"
 107:Drivers/STM32F3xx_HAL_Driver/Src/stm32f3xx_hal_gpio.c **** 
 108:Drivers/STM32F3xx_HAL_Driver/Src/stm32f3xx_hal_gpio.c **** /** @addtogroup STM32F3xx_HAL_Driver
 109:Drivers/STM32F3xx_HAL_Driver/Src/stm32f3xx_hal_gpio.c ****   * @{
 110:Drivers/STM32F3xx_HAL_Driver/Src/stm32f3xx_hal_gpio.c ****   */
 111:Drivers/STM32F3xx_HAL_Driver/Src/stm32f3xx_hal_gpio.c **** 
 112:Drivers/STM32F3xx_HAL_Driver/Src/stm32f3xx_hal_gpio.c **** /** @defgroup GPIO GPIO
 113:Drivers/STM32F3xx_HAL_Driver/Src/stm32f3xx_hal_gpio.c ****   * @brief GPIO HAL module driver
 114:Drivers/STM32F3xx_HAL_Driver/Src/stm32f3xx_hal_gpio.c ****   * @{
 115:Drivers/STM32F3xx_HAL_Driver/Src/stm32f3xx_hal_gpio.c ****   */
 116:Drivers/STM32F3xx_HAL_Driver/Src/stm32f3xx_hal_gpio.c **** 
 117:Drivers/STM32F3xx_HAL_Driver/Src/stm32f3xx_hal_gpio.c **** /** MISRA C:2012 deviation rule has been granted for following rules:
 118:Drivers/STM32F3xx_HAL_Driver/Src/stm32f3xx_hal_gpio.c ****   * Rule-18.1_d - Medium: Array pointer `GPIOx' is accessed with index [..,..]
 119:Drivers/STM32F3xx_HAL_Driver/Src/stm32f3xx_hal_gpio.c ****   * which may be out of array bounds [..,UNKNOWN] in following APIs:
 120:Drivers/STM32F3xx_HAL_Driver/Src/stm32f3xx_hal_gpio.c ****   * HAL_GPIO_Init
 121:Drivers/STM32F3xx_HAL_Driver/Src/stm32f3xx_hal_gpio.c ****   * HAL_GPIO_DeInit
 122:Drivers/STM32F3xx_HAL_Driver/Src/stm32f3xx_hal_gpio.c ****   */
 123:Drivers/STM32F3xx_HAL_Driver/Src/stm32f3xx_hal_gpio.c **** 
 124:Drivers/STM32F3xx_HAL_Driver/Src/stm32f3xx_hal_gpio.c **** #ifdef HAL_GPIO_MODULE_ENABLED
 125:Drivers/STM32F3xx_HAL_Driver/Src/stm32f3xx_hal_gpio.c **** 
 126:Drivers/STM32F3xx_HAL_Driver/Src/stm32f3xx_hal_gpio.c **** /* Private typedef -----------------------------------------------------------*/
 127:Drivers/STM32F3xx_HAL_Driver/Src/stm32f3xx_hal_gpio.c **** /* Private defines -----------------------------------------------------------*/
 128:Drivers/STM32F3xx_HAL_Driver/Src/stm32f3xx_hal_gpio.c **** /** @defgroup GPIO_Private_Defines GPIO Private Defines
 129:Drivers/STM32F3xx_HAL_Driver/Src/stm32f3xx_hal_gpio.c ****   * @{
 130:Drivers/STM32F3xx_HAL_Driver/Src/stm32f3xx_hal_gpio.c ****   */
 131:Drivers/STM32F3xx_HAL_Driver/Src/stm32f3xx_hal_gpio.c **** #define GPIO_MODE             (0x00000003U)
 132:Drivers/STM32F3xx_HAL_Driver/Src/stm32f3xx_hal_gpio.c **** #define EXTI_MODE             (0x10000000U)
 133:Drivers/STM32F3xx_HAL_Driver/Src/stm32f3xx_hal_gpio.c **** #define GPIO_MODE_IT          (0x00010000U)
 134:Drivers/STM32F3xx_HAL_Driver/Src/stm32f3xx_hal_gpio.c **** #define GPIO_MODE_EVT         (0x00020000U)
 135:Drivers/STM32F3xx_HAL_Driver/Src/stm32f3xx_hal_gpio.c **** #define RISING_EDGE           (0x00100000U)
 136:Drivers/STM32F3xx_HAL_Driver/Src/stm32f3xx_hal_gpio.c **** #define FALLING_EDGE          (0x00200000U)
 137:Drivers/STM32F3xx_HAL_Driver/Src/stm32f3xx_hal_gpio.c **** #define GPIO_OUTPUT_TYPE      (0x00000010U)
 138:Drivers/STM32F3xx_HAL_Driver/Src/stm32f3xx_hal_gpio.c **** 
 139:Drivers/STM32F3xx_HAL_Driver/Src/stm32f3xx_hal_gpio.c **** #define GPIO_NUMBER           (16U)
 140:Drivers/STM32F3xx_HAL_Driver/Src/stm32f3xx_hal_gpio.c **** /**
 141:Drivers/STM32F3xx_HAL_Driver/Src/stm32f3xx_hal_gpio.c ****   * @}
 142:Drivers/STM32F3xx_HAL_Driver/Src/stm32f3xx_hal_gpio.c ****   */
 143:Drivers/STM32F3xx_HAL_Driver/Src/stm32f3xx_hal_gpio.c ****   
 144:Drivers/STM32F3xx_HAL_Driver/Src/stm32f3xx_hal_gpio.c **** /* Private macros ------------------------------------------------------------*/
 145:Drivers/STM32F3xx_HAL_Driver/Src/stm32f3xx_hal_gpio.c **** /* Private macros ------------------------------------------------------------*/
ARM GAS  /tmp/ccg0GetW.s 			page 4


 146:Drivers/STM32F3xx_HAL_Driver/Src/stm32f3xx_hal_gpio.c **** /** @defgroup GPIO_Private_Macros GPIO Private Macros
 147:Drivers/STM32F3xx_HAL_Driver/Src/stm32f3xx_hal_gpio.c ****   * @{
 148:Drivers/STM32F3xx_HAL_Driver/Src/stm32f3xx_hal_gpio.c ****   */
 149:Drivers/STM32F3xx_HAL_Driver/Src/stm32f3xx_hal_gpio.c **** /**
 150:Drivers/STM32F3xx_HAL_Driver/Src/stm32f3xx_hal_gpio.c ****   * @}
 151:Drivers/STM32F3xx_HAL_Driver/Src/stm32f3xx_hal_gpio.c ****   */
 152:Drivers/STM32F3xx_HAL_Driver/Src/stm32f3xx_hal_gpio.c **** /* Private variables ---------------------------------------------------------*/
 153:Drivers/STM32F3xx_HAL_Driver/Src/stm32f3xx_hal_gpio.c **** /* Private function prototypes -----------------------------------------------*/
 154:Drivers/STM32F3xx_HAL_Driver/Src/stm32f3xx_hal_gpio.c **** /* Exported functions --------------------------------------------------------*/
 155:Drivers/STM32F3xx_HAL_Driver/Src/stm32f3xx_hal_gpio.c **** 
 156:Drivers/STM32F3xx_HAL_Driver/Src/stm32f3xx_hal_gpio.c **** /** @defgroup GPIO_Exported_Functions GPIO Exported Functions
 157:Drivers/STM32F3xx_HAL_Driver/Src/stm32f3xx_hal_gpio.c ****   * @{
 158:Drivers/STM32F3xx_HAL_Driver/Src/stm32f3xx_hal_gpio.c ****   */
 159:Drivers/STM32F3xx_HAL_Driver/Src/stm32f3xx_hal_gpio.c **** 
 160:Drivers/STM32F3xx_HAL_Driver/Src/stm32f3xx_hal_gpio.c **** /** @defgroup GPIO_Exported_Functions_Group1 Initialization/de-initialization functions 
 161:Drivers/STM32F3xx_HAL_Driver/Src/stm32f3xx_hal_gpio.c ****  *  @brief    Initialization and Configuration functions
 162:Drivers/STM32F3xx_HAL_Driver/Src/stm32f3xx_hal_gpio.c ****  *
 163:Drivers/STM32F3xx_HAL_Driver/Src/stm32f3xx_hal_gpio.c **** @verbatim
 164:Drivers/STM32F3xx_HAL_Driver/Src/stm32f3xx_hal_gpio.c ****  ===============================================================================
 165:Drivers/STM32F3xx_HAL_Driver/Src/stm32f3xx_hal_gpio.c ****               ##### Initialization and de-initialization functions #####
 166:Drivers/STM32F3xx_HAL_Driver/Src/stm32f3xx_hal_gpio.c ****  ===============================================================================
 167:Drivers/STM32F3xx_HAL_Driver/Src/stm32f3xx_hal_gpio.c **** 
 168:Drivers/STM32F3xx_HAL_Driver/Src/stm32f3xx_hal_gpio.c **** @endverbatim
 169:Drivers/STM32F3xx_HAL_Driver/Src/stm32f3xx_hal_gpio.c ****   * @{
 170:Drivers/STM32F3xx_HAL_Driver/Src/stm32f3xx_hal_gpio.c ****   */
 171:Drivers/STM32F3xx_HAL_Driver/Src/stm32f3xx_hal_gpio.c **** 
 172:Drivers/STM32F3xx_HAL_Driver/Src/stm32f3xx_hal_gpio.c **** /**
 173:Drivers/STM32F3xx_HAL_Driver/Src/stm32f3xx_hal_gpio.c ****   * @brief  Initialize the GPIOx peripheral according to the specified parameters in the GPIO_Init.
 174:Drivers/STM32F3xx_HAL_Driver/Src/stm32f3xx_hal_gpio.c ****   * @param  GPIOx where x can be (A..F) to select the GPIO peripheral for STM32F3 family devices
 175:Drivers/STM32F3xx_HAL_Driver/Src/stm32f3xx_hal_gpio.c ****   * @param  GPIO_Init pointer to a GPIO_InitTypeDef structure that contains
 176:Drivers/STM32F3xx_HAL_Driver/Src/stm32f3xx_hal_gpio.c ****   *         the configuration information for the specified GPIO peripheral.
 177:Drivers/STM32F3xx_HAL_Driver/Src/stm32f3xx_hal_gpio.c ****   * @retval None
 178:Drivers/STM32F3xx_HAL_Driver/Src/stm32f3xx_hal_gpio.c ****   */
 179:Drivers/STM32F3xx_HAL_Driver/Src/stm32f3xx_hal_gpio.c **** void HAL_GPIO_Init(GPIO_TypeDef  *GPIOx, GPIO_InitTypeDef *GPIO_Init)
 180:Drivers/STM32F3xx_HAL_Driver/Src/stm32f3xx_hal_gpio.c **** {
  28              		.loc 1 180 0
  29              		.cfi_startproc
  30              		@ args = 0, pretend = 0, frame = 24
  31              		@ frame_needed = 1, uses_anonymous_args = 0
  32              		@ link register save eliminated.
  33 0000 80B4     		push	{r7}
  34              	.LCFI0:
  35              		.cfi_def_cfa_offset 4
  36              		.cfi_offset 7, -4
  37 0002 87B0     		sub	sp, sp, #28
  38              	.LCFI1:
  39              		.cfi_def_cfa_offset 32
  40 0004 00AF     		add	r7, sp, #0
  41              	.LCFI2:
  42              		.cfi_def_cfa_register 7
  43 0006 7860     		str	r0, [r7, #4]
  44 0008 3960     		str	r1, [r7]
 181:Drivers/STM32F3xx_HAL_Driver/Src/stm32f3xx_hal_gpio.c ****   uint32_t position = 0x00u;
  45              		.loc 1 181 0
  46 000a 0023     		movs	r3, #0
  47 000c 7B61     		str	r3, [r7, #20]
 182:Drivers/STM32F3xx_HAL_Driver/Src/stm32f3xx_hal_gpio.c ****   uint32_t iocurrent;
ARM GAS  /tmp/ccg0GetW.s 			page 5


 183:Drivers/STM32F3xx_HAL_Driver/Src/stm32f3xx_hal_gpio.c ****   uint32_t temp;
 184:Drivers/STM32F3xx_HAL_Driver/Src/stm32f3xx_hal_gpio.c **** 
 185:Drivers/STM32F3xx_HAL_Driver/Src/stm32f3xx_hal_gpio.c ****   /* Check the parameters */
 186:Drivers/STM32F3xx_HAL_Driver/Src/stm32f3xx_hal_gpio.c ****   assert_param(IS_GPIO_ALL_INSTANCE(GPIOx));
 187:Drivers/STM32F3xx_HAL_Driver/Src/stm32f3xx_hal_gpio.c ****   assert_param(IS_GPIO_PIN(GPIO_Init->Pin));
 188:Drivers/STM32F3xx_HAL_Driver/Src/stm32f3xx_hal_gpio.c ****   assert_param(IS_GPIO_MODE(GPIO_Init->Mode));
 189:Drivers/STM32F3xx_HAL_Driver/Src/stm32f3xx_hal_gpio.c ****   assert_param(IS_GPIO_PULL(GPIO_Init->Pull));
 190:Drivers/STM32F3xx_HAL_Driver/Src/stm32f3xx_hal_gpio.c **** 
 191:Drivers/STM32F3xx_HAL_Driver/Src/stm32f3xx_hal_gpio.c ****   /* Configure the port pins */
 192:Drivers/STM32F3xx_HAL_Driver/Src/stm32f3xx_hal_gpio.c ****   while (((GPIO_Init->Pin) >> position) != 0x00u)
  48              		.loc 1 192 0
  49 000e 4EE1     		b	.L2
  50              	.L20:
 193:Drivers/STM32F3xx_HAL_Driver/Src/stm32f3xx_hal_gpio.c ****   {
 194:Drivers/STM32F3xx_HAL_Driver/Src/stm32f3xx_hal_gpio.c ****     /* Get current io position */
 195:Drivers/STM32F3xx_HAL_Driver/Src/stm32f3xx_hal_gpio.c ****     iocurrent = (GPIO_Init->Pin) & (1uL << position);
  51              		.loc 1 195 0
  52 0010 3B68     		ldr	r3, [r7]
  53 0012 1A68     		ldr	r2, [r3]
  54 0014 0121     		movs	r1, #1
  55 0016 7B69     		ldr	r3, [r7, #20]
  56 0018 01FA03F3 		lsl	r3, r1, r3
  57 001c 1340     		ands	r3, r3, r2
  58 001e FB60     		str	r3, [r7, #12]
 196:Drivers/STM32F3xx_HAL_Driver/Src/stm32f3xx_hal_gpio.c **** 
 197:Drivers/STM32F3xx_HAL_Driver/Src/stm32f3xx_hal_gpio.c ****     if (iocurrent != 0x00u)
  59              		.loc 1 197 0
  60 0020 FB68     		ldr	r3, [r7, #12]
  61 0022 002B     		cmp	r3, #0
  62 0024 00F04081 		beq	.L3
 198:Drivers/STM32F3xx_HAL_Driver/Src/stm32f3xx_hal_gpio.c ****     {
 199:Drivers/STM32F3xx_HAL_Driver/Src/stm32f3xx_hal_gpio.c ****       /*--------------------- GPIO Mode Configuration ------------------------*/
 200:Drivers/STM32F3xx_HAL_Driver/Src/stm32f3xx_hal_gpio.c ****       /* In case of Alternate function mode selection */
 201:Drivers/STM32F3xx_HAL_Driver/Src/stm32f3xx_hal_gpio.c ****       if((GPIO_Init->Mode == GPIO_MODE_AF_PP) || (GPIO_Init->Mode == GPIO_MODE_AF_OD))
  63              		.loc 1 201 0
  64 0028 3B68     		ldr	r3, [r7]
  65 002a 5B68     		ldr	r3, [r3, #4]
  66 002c 022B     		cmp	r3, #2
  67 002e 03D0     		beq	.L4
  68              		.loc 1 201 0 is_stmt 0 discriminator 1
  69 0030 3B68     		ldr	r3, [r7]
  70 0032 5B68     		ldr	r3, [r3, #4]
  71 0034 122B     		cmp	r3, #18
  72 0036 23D1     		bne	.L5
  73              	.L4:
 202:Drivers/STM32F3xx_HAL_Driver/Src/stm32f3xx_hal_gpio.c ****       {
 203:Drivers/STM32F3xx_HAL_Driver/Src/stm32f3xx_hal_gpio.c ****         /* Check the Alternate function parameters */
 204:Drivers/STM32F3xx_HAL_Driver/Src/stm32f3xx_hal_gpio.c ****         assert_param(IS_GPIO_AF_INSTANCE(GPIOx));
 205:Drivers/STM32F3xx_HAL_Driver/Src/stm32f3xx_hal_gpio.c ****         assert_param(IS_GPIO_AF(GPIO_Init->Alternate));
 206:Drivers/STM32F3xx_HAL_Driver/Src/stm32f3xx_hal_gpio.c **** 
 207:Drivers/STM32F3xx_HAL_Driver/Src/stm32f3xx_hal_gpio.c ****         /* Configure Alternate function mapped with the current IO */
 208:Drivers/STM32F3xx_HAL_Driver/Src/stm32f3xx_hal_gpio.c ****         temp = GPIOx->AFR[position >> 3u];
  74              		.loc 1 208 0 is_stmt 1
  75 0038 7B69     		ldr	r3, [r7, #20]
  76 003a DA08     		lsrs	r2, r3, #3
  77 003c 7B68     		ldr	r3, [r7, #4]
  78 003e 0832     		adds	r2, r2, #8
ARM GAS  /tmp/ccg0GetW.s 			page 6


  79 0040 53F82230 		ldr	r3, [r3, r2, lsl #2]
  80 0044 3B61     		str	r3, [r7, #16]
 209:Drivers/STM32F3xx_HAL_Driver/Src/stm32f3xx_hal_gpio.c ****         temp &= ~(0xFu << ((position & 0x07u) * 4u));
  81              		.loc 1 209 0
  82 0046 7B69     		ldr	r3, [r7, #20]
  83 0048 03F00703 		and	r3, r3, #7
  84 004c 9B00     		lsls	r3, r3, #2
  85 004e 0F22     		movs	r2, #15
  86 0050 02FA03F3 		lsl	r3, r2, r3
  87 0054 DB43     		mvns	r3, r3
  88 0056 3A69     		ldr	r2, [r7, #16]
  89 0058 1340     		ands	r3, r3, r2
  90 005a 3B61     		str	r3, [r7, #16]
 210:Drivers/STM32F3xx_HAL_Driver/Src/stm32f3xx_hal_gpio.c ****         temp |= ((GPIO_Init->Alternate) << ((position & 0x07u) * 4u));
  91              		.loc 1 210 0
  92 005c 3B68     		ldr	r3, [r7]
  93 005e 1A69     		ldr	r2, [r3, #16]
  94 0060 7B69     		ldr	r3, [r7, #20]
  95 0062 03F00703 		and	r3, r3, #7
  96 0066 9B00     		lsls	r3, r3, #2
  97 0068 02FA03F3 		lsl	r3, r2, r3
  98 006c 3A69     		ldr	r2, [r7, #16]
  99 006e 1343     		orrs	r3, r3, r2
 100 0070 3B61     		str	r3, [r7, #16]
 211:Drivers/STM32F3xx_HAL_Driver/Src/stm32f3xx_hal_gpio.c ****         GPIOx->AFR[position >> 3u] = temp;
 101              		.loc 1 211 0
 102 0072 7B69     		ldr	r3, [r7, #20]
 103 0074 DA08     		lsrs	r2, r3, #3
 104 0076 7B68     		ldr	r3, [r7, #4]
 105 0078 0832     		adds	r2, r2, #8
 106 007a 3969     		ldr	r1, [r7, #16]
 107 007c 43F82210 		str	r1, [r3, r2, lsl #2]
 108              	.L5:
 212:Drivers/STM32F3xx_HAL_Driver/Src/stm32f3xx_hal_gpio.c ****       }
 213:Drivers/STM32F3xx_HAL_Driver/Src/stm32f3xx_hal_gpio.c **** 
 214:Drivers/STM32F3xx_HAL_Driver/Src/stm32f3xx_hal_gpio.c ****       /* Configure IO Direction mode (Input, Output, Alternate or Analog) */
 215:Drivers/STM32F3xx_HAL_Driver/Src/stm32f3xx_hal_gpio.c ****       temp = GPIOx->MODER;
 109              		.loc 1 215 0
 110 0080 7B68     		ldr	r3, [r7, #4]
 111 0082 1B68     		ldr	r3, [r3]
 112 0084 3B61     		str	r3, [r7, #16]
 216:Drivers/STM32F3xx_HAL_Driver/Src/stm32f3xx_hal_gpio.c ****       temp &= ~(GPIO_MODER_MODER0 << (position * 2u));
 113              		.loc 1 216 0
 114 0086 7B69     		ldr	r3, [r7, #20]
 115 0088 5B00     		lsls	r3, r3, #1
 116 008a 0322     		movs	r2, #3
 117 008c 02FA03F3 		lsl	r3, r2, r3
 118 0090 DB43     		mvns	r3, r3
 119 0092 3A69     		ldr	r2, [r7, #16]
 120 0094 1340     		ands	r3, r3, r2
 121 0096 3B61     		str	r3, [r7, #16]
 217:Drivers/STM32F3xx_HAL_Driver/Src/stm32f3xx_hal_gpio.c ****       temp |= ((GPIO_Init->Mode & GPIO_MODE) << (position * 2u));
 122              		.loc 1 217 0
 123 0098 3B68     		ldr	r3, [r7]
 124 009a 5B68     		ldr	r3, [r3, #4]
 125 009c 03F00302 		and	r2, r3, #3
 126 00a0 7B69     		ldr	r3, [r7, #20]
ARM GAS  /tmp/ccg0GetW.s 			page 7


 127 00a2 5B00     		lsls	r3, r3, #1
 128 00a4 02FA03F3 		lsl	r3, r2, r3
 129 00a8 3A69     		ldr	r2, [r7, #16]
 130 00aa 1343     		orrs	r3, r3, r2
 131 00ac 3B61     		str	r3, [r7, #16]
 218:Drivers/STM32F3xx_HAL_Driver/Src/stm32f3xx_hal_gpio.c ****       GPIOx->MODER = temp;
 132              		.loc 1 218 0
 133 00ae 7B68     		ldr	r3, [r7, #4]
 134 00b0 3A69     		ldr	r2, [r7, #16]
 135 00b2 1A60     		str	r2, [r3]
 219:Drivers/STM32F3xx_HAL_Driver/Src/stm32f3xx_hal_gpio.c **** 
 220:Drivers/STM32F3xx_HAL_Driver/Src/stm32f3xx_hal_gpio.c ****       /* In case of Output or Alternate function mode selection */
 221:Drivers/STM32F3xx_HAL_Driver/Src/stm32f3xx_hal_gpio.c ****       if((GPIO_Init->Mode == GPIO_MODE_OUTPUT_PP) || (GPIO_Init->Mode == GPIO_MODE_AF_PP) ||
 136              		.loc 1 221 0
 137 00b4 3B68     		ldr	r3, [r7]
 138 00b6 5B68     		ldr	r3, [r3, #4]
 139 00b8 012B     		cmp	r3, #1
 140 00ba 0BD0     		beq	.L6
 141              		.loc 1 221 0 is_stmt 0 discriminator 1
 142 00bc 3B68     		ldr	r3, [r7]
 143 00be 5B68     		ldr	r3, [r3, #4]
 144 00c0 022B     		cmp	r3, #2
 145 00c2 07D0     		beq	.L6
 222:Drivers/STM32F3xx_HAL_Driver/Src/stm32f3xx_hal_gpio.c ****          (GPIO_Init->Mode == GPIO_MODE_OUTPUT_OD) || (GPIO_Init->Mode == GPIO_MODE_AF_OD))
 146              		.loc 1 222 0 is_stmt 1 discriminator 2
 147 00c4 3B68     		ldr	r3, [r7]
 148 00c6 5B68     		ldr	r3, [r3, #4]
 221:Drivers/STM32F3xx_HAL_Driver/Src/stm32f3xx_hal_gpio.c ****          (GPIO_Init->Mode == GPIO_MODE_OUTPUT_OD) || (GPIO_Init->Mode == GPIO_MODE_AF_OD))
 149              		.loc 1 221 0 discriminator 2
 150 00c8 112B     		cmp	r3, #17
 151 00ca 03D0     		beq	.L6
 152              		.loc 1 222 0
 153 00cc 3B68     		ldr	r3, [r7]
 154 00ce 5B68     		ldr	r3, [r3, #4]
 155 00d0 122B     		cmp	r3, #18
 156 00d2 30D1     		bne	.L7
 157              	.L6:
 223:Drivers/STM32F3xx_HAL_Driver/Src/stm32f3xx_hal_gpio.c ****       {
 224:Drivers/STM32F3xx_HAL_Driver/Src/stm32f3xx_hal_gpio.c ****         /* Check the Speed parameter */
 225:Drivers/STM32F3xx_HAL_Driver/Src/stm32f3xx_hal_gpio.c ****         assert_param(IS_GPIO_SPEED(GPIO_Init->Speed));
 226:Drivers/STM32F3xx_HAL_Driver/Src/stm32f3xx_hal_gpio.c ****         /* Configure the IO Speed */
 227:Drivers/STM32F3xx_HAL_Driver/Src/stm32f3xx_hal_gpio.c ****         temp = GPIOx->OSPEEDR;
 158              		.loc 1 227 0
 159 00d4 7B68     		ldr	r3, [r7, #4]
 160 00d6 9B68     		ldr	r3, [r3, #8]
 161 00d8 3B61     		str	r3, [r7, #16]
 228:Drivers/STM32F3xx_HAL_Driver/Src/stm32f3xx_hal_gpio.c ****         temp &= ~(GPIO_OSPEEDER_OSPEEDR0 << (position * 2u));
 162              		.loc 1 228 0
 163 00da 7B69     		ldr	r3, [r7, #20]
 164 00dc 5B00     		lsls	r3, r3, #1
 165 00de 0322     		movs	r2, #3
 166 00e0 02FA03F3 		lsl	r3, r2, r3
 167 00e4 DB43     		mvns	r3, r3
 168 00e6 3A69     		ldr	r2, [r7, #16]
 169 00e8 1340     		ands	r3, r3, r2
 170 00ea 3B61     		str	r3, [r7, #16]
 229:Drivers/STM32F3xx_HAL_Driver/Src/stm32f3xx_hal_gpio.c ****         temp |= (GPIO_Init->Speed << (position * 2u));
ARM GAS  /tmp/ccg0GetW.s 			page 8


 171              		.loc 1 229 0
 172 00ec 3B68     		ldr	r3, [r7]
 173 00ee DA68     		ldr	r2, [r3, #12]
 174 00f0 7B69     		ldr	r3, [r7, #20]
 175 00f2 5B00     		lsls	r3, r3, #1
 176 00f4 02FA03F3 		lsl	r3, r2, r3
 177 00f8 3A69     		ldr	r2, [r7, #16]
 178 00fa 1343     		orrs	r3, r3, r2
 179 00fc 3B61     		str	r3, [r7, #16]
 230:Drivers/STM32F3xx_HAL_Driver/Src/stm32f3xx_hal_gpio.c ****         GPIOx->OSPEEDR = temp;
 180              		.loc 1 230 0
 181 00fe 7B68     		ldr	r3, [r7, #4]
 182 0100 3A69     		ldr	r2, [r7, #16]
 183 0102 9A60     		str	r2, [r3, #8]
 231:Drivers/STM32F3xx_HAL_Driver/Src/stm32f3xx_hal_gpio.c **** 
 232:Drivers/STM32F3xx_HAL_Driver/Src/stm32f3xx_hal_gpio.c ****         /* Configure the IO Output Type */
 233:Drivers/STM32F3xx_HAL_Driver/Src/stm32f3xx_hal_gpio.c ****         temp = GPIOx->OTYPER;
 184              		.loc 1 233 0
 185 0104 7B68     		ldr	r3, [r7, #4]
 186 0106 5B68     		ldr	r3, [r3, #4]
 187 0108 3B61     		str	r3, [r7, #16]
 234:Drivers/STM32F3xx_HAL_Driver/Src/stm32f3xx_hal_gpio.c ****         temp &= ~(GPIO_OTYPER_OT_0 << position) ;
 188              		.loc 1 234 0
 189 010a 0122     		movs	r2, #1
 190 010c 7B69     		ldr	r3, [r7, #20]
 191 010e 02FA03F3 		lsl	r3, r2, r3
 192 0112 DB43     		mvns	r3, r3
 193 0114 3A69     		ldr	r2, [r7, #16]
 194 0116 1340     		ands	r3, r3, r2
 195 0118 3B61     		str	r3, [r7, #16]
 235:Drivers/STM32F3xx_HAL_Driver/Src/stm32f3xx_hal_gpio.c ****         temp |= (((GPIO_Init->Mode & GPIO_OUTPUT_TYPE) >> 4u) << position);
 196              		.loc 1 235 0
 197 011a 3B68     		ldr	r3, [r7]
 198 011c 5B68     		ldr	r3, [r3, #4]
 199 011e 1B09     		lsrs	r3, r3, #4
 200 0120 03F00102 		and	r2, r3, #1
 201 0124 7B69     		ldr	r3, [r7, #20]
 202 0126 02FA03F3 		lsl	r3, r2, r3
 203 012a 3A69     		ldr	r2, [r7, #16]
 204 012c 1343     		orrs	r3, r3, r2
 205 012e 3B61     		str	r3, [r7, #16]
 236:Drivers/STM32F3xx_HAL_Driver/Src/stm32f3xx_hal_gpio.c ****         GPIOx->OTYPER = temp;
 206              		.loc 1 236 0
 207 0130 7B68     		ldr	r3, [r7, #4]
 208 0132 3A69     		ldr	r2, [r7, #16]
 209 0134 5A60     		str	r2, [r3, #4]
 210              	.L7:
 237:Drivers/STM32F3xx_HAL_Driver/Src/stm32f3xx_hal_gpio.c ****       }
 238:Drivers/STM32F3xx_HAL_Driver/Src/stm32f3xx_hal_gpio.c **** 
 239:Drivers/STM32F3xx_HAL_Driver/Src/stm32f3xx_hal_gpio.c ****       /* Activate the Pull-up or Pull down resistor for the current IO */
 240:Drivers/STM32F3xx_HAL_Driver/Src/stm32f3xx_hal_gpio.c ****       temp = GPIOx->PUPDR;
 211              		.loc 1 240 0
 212 0136 7B68     		ldr	r3, [r7, #4]
 213 0138 DB68     		ldr	r3, [r3, #12]
 214 013a 3B61     		str	r3, [r7, #16]
 241:Drivers/STM32F3xx_HAL_Driver/Src/stm32f3xx_hal_gpio.c ****       temp &= ~(GPIO_PUPDR_PUPDR0 << (position * 2u));
 215              		.loc 1 241 0
ARM GAS  /tmp/ccg0GetW.s 			page 9


 216 013c 7B69     		ldr	r3, [r7, #20]
 217 013e 5B00     		lsls	r3, r3, #1
 218 0140 0322     		movs	r2, #3
 219 0142 02FA03F3 		lsl	r3, r2, r3
 220 0146 DB43     		mvns	r3, r3
 221 0148 3A69     		ldr	r2, [r7, #16]
 222 014a 1340     		ands	r3, r3, r2
 223 014c 3B61     		str	r3, [r7, #16]
 242:Drivers/STM32F3xx_HAL_Driver/Src/stm32f3xx_hal_gpio.c ****       temp |= ((GPIO_Init->Pull) << (position * 2u));
 224              		.loc 1 242 0
 225 014e 3B68     		ldr	r3, [r7]
 226 0150 9A68     		ldr	r2, [r3, #8]
 227 0152 7B69     		ldr	r3, [r7, #20]
 228 0154 5B00     		lsls	r3, r3, #1
 229 0156 02FA03F3 		lsl	r3, r2, r3
 230 015a 3A69     		ldr	r2, [r7, #16]
 231 015c 1343     		orrs	r3, r3, r2
 232 015e 3B61     		str	r3, [r7, #16]
 243:Drivers/STM32F3xx_HAL_Driver/Src/stm32f3xx_hal_gpio.c ****       GPIOx->PUPDR = temp;
 233              		.loc 1 243 0
 234 0160 7B68     		ldr	r3, [r7, #4]
 235 0162 3A69     		ldr	r2, [r7, #16]
 236 0164 DA60     		str	r2, [r3, #12]
 244:Drivers/STM32F3xx_HAL_Driver/Src/stm32f3xx_hal_gpio.c **** 
 245:Drivers/STM32F3xx_HAL_Driver/Src/stm32f3xx_hal_gpio.c ****       /*--------------------- EXTI Mode Configuration ------------------------*/
 246:Drivers/STM32F3xx_HAL_Driver/Src/stm32f3xx_hal_gpio.c ****       /* Configure the External Interrupt or event for the current IO */
 247:Drivers/STM32F3xx_HAL_Driver/Src/stm32f3xx_hal_gpio.c ****       if((GPIO_Init->Mode & EXTI_MODE) == EXTI_MODE)
 237              		.loc 1 247 0
 238 0166 3B68     		ldr	r3, [r7]
 239 0168 5B68     		ldr	r3, [r3, #4]
 240 016a 03F08053 		and	r3, r3, #268435456
 241 016e 002B     		cmp	r3, #0
 242 0170 00F09A80 		beq	.L3
 243              	.LBB2:
 248:Drivers/STM32F3xx_HAL_Driver/Src/stm32f3xx_hal_gpio.c ****       {
 249:Drivers/STM32F3xx_HAL_Driver/Src/stm32f3xx_hal_gpio.c ****         /* Enable SYSCFG Clock */
 250:Drivers/STM32F3xx_HAL_Driver/Src/stm32f3xx_hal_gpio.c ****         __HAL_RCC_SYSCFG_CLK_ENABLE();
 244              		.loc 1 250 0
 245 0174 554B     		ldr	r3, .L21
 246 0176 9B69     		ldr	r3, [r3, #24]
 247 0178 544A     		ldr	r2, .L21
 248 017a 43F00103 		orr	r3, r3, #1
 249 017e 9361     		str	r3, [r2, #24]
 250 0180 524B     		ldr	r3, .L21
 251 0182 9B69     		ldr	r3, [r3, #24]
 252 0184 03F00103 		and	r3, r3, #1
 253 0188 BB60     		str	r3, [r7, #8]
 254 018a BB68     		ldr	r3, [r7, #8]
 255              	.LBE2:
 251:Drivers/STM32F3xx_HAL_Driver/Src/stm32f3xx_hal_gpio.c **** 
 252:Drivers/STM32F3xx_HAL_Driver/Src/stm32f3xx_hal_gpio.c ****         temp = SYSCFG->EXTICR[position >> 2u];
 256              		.loc 1 252 0
 257 018c 504A     		ldr	r2, .L21+4
 258 018e 7B69     		ldr	r3, [r7, #20]
 259 0190 9B08     		lsrs	r3, r3, #2
 260 0192 0233     		adds	r3, r3, #2
 261 0194 52F82330 		ldr	r3, [r2, r3, lsl #2]
ARM GAS  /tmp/ccg0GetW.s 			page 10


 262 0198 3B61     		str	r3, [r7, #16]
 253:Drivers/STM32F3xx_HAL_Driver/Src/stm32f3xx_hal_gpio.c ****         temp &= ~(0x0FuL << (4u * (position & 0x03u)));
 263              		.loc 1 253 0
 264 019a 7B69     		ldr	r3, [r7, #20]
 265 019c 03F00303 		and	r3, r3, #3
 266 01a0 9B00     		lsls	r3, r3, #2
 267 01a2 0F22     		movs	r2, #15
 268 01a4 02FA03F3 		lsl	r3, r2, r3
 269 01a8 DB43     		mvns	r3, r3
 270 01aa 3A69     		ldr	r2, [r7, #16]
 271 01ac 1340     		ands	r3, r3, r2
 272 01ae 3B61     		str	r3, [r7, #16]
 254:Drivers/STM32F3xx_HAL_Driver/Src/stm32f3xx_hal_gpio.c ****         temp |= (GPIO_GET_INDEX(GPIOx) << (4u * (position & 0x03u)));
 273              		.loc 1 254 0
 274 01b0 7B68     		ldr	r3, [r7, #4]
 275 01b2 B3F1904F 		cmp	r3, #1207959552
 276 01b6 13D0     		beq	.L8
 277              		.loc 1 254 0 is_stmt 0 discriminator 1
 278 01b8 7B68     		ldr	r3, [r7, #4]
 279 01ba 464A     		ldr	r2, .L21+8
 280 01bc 9342     		cmp	r3, r2
 281 01be 0DD0     		beq	.L9
 282              		.loc 1 254 0 discriminator 3
 283 01c0 7B68     		ldr	r3, [r7, #4]
 284 01c2 454A     		ldr	r2, .L21+12
 285 01c4 9342     		cmp	r3, r2
 286 01c6 07D0     		beq	.L10
 287              		.loc 1 254 0 discriminator 5
 288 01c8 7B68     		ldr	r3, [r7, #4]
 289 01ca 444A     		ldr	r2, .L21+16
 290 01cc 9342     		cmp	r3, r2
 291 01ce 01D1     		bne	.L11
 292              		.loc 1 254 0 discriminator 7
 293 01d0 0323     		movs	r3, #3
 294 01d2 06E0     		b	.L15
 295              	.L11:
 296              		.loc 1 254 0 discriminator 8
 297 01d4 0523     		movs	r3, #5
 298 01d6 04E0     		b	.L15
 299              	.L10:
 300              		.loc 1 254 0 discriminator 6
 301 01d8 0223     		movs	r3, #2
 302 01da 02E0     		b	.L15
 303              	.L9:
 304              		.loc 1 254 0 discriminator 4
 305 01dc 0123     		movs	r3, #1
 306 01de 00E0     		b	.L15
 307              	.L8:
 308              		.loc 1 254 0 discriminator 2
 309 01e0 0023     		movs	r3, #0
 310              	.L15:
 311              		.loc 1 254 0 discriminator 16
 312 01e2 7A69     		ldr	r2, [r7, #20]
 313 01e4 02F00302 		and	r2, r2, #3
 314 01e8 9200     		lsls	r2, r2, #2
 315 01ea 9340     		lsls	r3, r3, r2
 316 01ec 3A69     		ldr	r2, [r7, #16]
ARM GAS  /tmp/ccg0GetW.s 			page 11


 317 01ee 1343     		orrs	r3, r3, r2
 318 01f0 3B61     		str	r3, [r7, #16]
 255:Drivers/STM32F3xx_HAL_Driver/Src/stm32f3xx_hal_gpio.c ****         SYSCFG->EXTICR[position >> 2u] = temp;
 319              		.loc 1 255 0 is_stmt 1 discriminator 16
 320 01f2 3749     		ldr	r1, .L21+4
 321 01f4 7B69     		ldr	r3, [r7, #20]
 322 01f6 9B08     		lsrs	r3, r3, #2
 323 01f8 0233     		adds	r3, r3, #2
 324 01fa 3A69     		ldr	r2, [r7, #16]
 325 01fc 41F82320 		str	r2, [r1, r3, lsl #2]
 256:Drivers/STM32F3xx_HAL_Driver/Src/stm32f3xx_hal_gpio.c **** 
 257:Drivers/STM32F3xx_HAL_Driver/Src/stm32f3xx_hal_gpio.c ****         /* Clear EXTI line configuration */
 258:Drivers/STM32F3xx_HAL_Driver/Src/stm32f3xx_hal_gpio.c ****         temp = EXTI->IMR;
 326              		.loc 1 258 0 discriminator 16
 327 0200 374B     		ldr	r3, .L21+20
 328 0202 1B68     		ldr	r3, [r3]
 329 0204 3B61     		str	r3, [r7, #16]
 259:Drivers/STM32F3xx_HAL_Driver/Src/stm32f3xx_hal_gpio.c ****         temp &= ~(iocurrent);
 330              		.loc 1 259 0 discriminator 16
 331 0206 FB68     		ldr	r3, [r7, #12]
 332 0208 DB43     		mvns	r3, r3
 333 020a 3A69     		ldr	r2, [r7, #16]
 334 020c 1340     		ands	r3, r3, r2
 335 020e 3B61     		str	r3, [r7, #16]
 260:Drivers/STM32F3xx_HAL_Driver/Src/stm32f3xx_hal_gpio.c ****         if((GPIO_Init->Mode & GPIO_MODE_IT) == GPIO_MODE_IT)
 336              		.loc 1 260 0 discriminator 16
 337 0210 3B68     		ldr	r3, [r7]
 338 0212 5B68     		ldr	r3, [r3, #4]
 339 0214 03F48033 		and	r3, r3, #65536
 340 0218 002B     		cmp	r3, #0
 341 021a 03D0     		beq	.L16
 261:Drivers/STM32F3xx_HAL_Driver/Src/stm32f3xx_hal_gpio.c ****         {
 262:Drivers/STM32F3xx_HAL_Driver/Src/stm32f3xx_hal_gpio.c ****           temp |= iocurrent;
 342              		.loc 1 262 0
 343 021c 3A69     		ldr	r2, [r7, #16]
 344 021e FB68     		ldr	r3, [r7, #12]
 345 0220 1343     		orrs	r3, r3, r2
 346 0222 3B61     		str	r3, [r7, #16]
 347              	.L16:
 263:Drivers/STM32F3xx_HAL_Driver/Src/stm32f3xx_hal_gpio.c ****         }
 264:Drivers/STM32F3xx_HAL_Driver/Src/stm32f3xx_hal_gpio.c ****         EXTI->IMR = temp;
 348              		.loc 1 264 0
 349 0224 2E4A     		ldr	r2, .L21+20
 350 0226 3B69     		ldr	r3, [r7, #16]
 351 0228 1360     		str	r3, [r2]
 265:Drivers/STM32F3xx_HAL_Driver/Src/stm32f3xx_hal_gpio.c **** 
 266:Drivers/STM32F3xx_HAL_Driver/Src/stm32f3xx_hal_gpio.c ****         temp = EXTI->EMR;
 352              		.loc 1 266 0
 353 022a 2D4B     		ldr	r3, .L21+20
 354 022c 5B68     		ldr	r3, [r3, #4]
 355 022e 3B61     		str	r3, [r7, #16]
 267:Drivers/STM32F3xx_HAL_Driver/Src/stm32f3xx_hal_gpio.c ****         temp &= ~(iocurrent);
 356              		.loc 1 267 0
 357 0230 FB68     		ldr	r3, [r7, #12]
 358 0232 DB43     		mvns	r3, r3
 359 0234 3A69     		ldr	r2, [r7, #16]
 360 0236 1340     		ands	r3, r3, r2
ARM GAS  /tmp/ccg0GetW.s 			page 12


 361 0238 3B61     		str	r3, [r7, #16]
 268:Drivers/STM32F3xx_HAL_Driver/Src/stm32f3xx_hal_gpio.c ****         if((GPIO_Init->Mode & GPIO_MODE_EVT) == GPIO_MODE_EVT)
 362              		.loc 1 268 0
 363 023a 3B68     		ldr	r3, [r7]
 364 023c 5B68     		ldr	r3, [r3, #4]
 365 023e 03F40033 		and	r3, r3, #131072
 366 0242 002B     		cmp	r3, #0
 367 0244 03D0     		beq	.L17
 269:Drivers/STM32F3xx_HAL_Driver/Src/stm32f3xx_hal_gpio.c ****         {
 270:Drivers/STM32F3xx_HAL_Driver/Src/stm32f3xx_hal_gpio.c ****           temp |= iocurrent;
 368              		.loc 1 270 0
 369 0246 3A69     		ldr	r2, [r7, #16]
 370 0248 FB68     		ldr	r3, [r7, #12]
 371 024a 1343     		orrs	r3, r3, r2
 372 024c 3B61     		str	r3, [r7, #16]
 373              	.L17:
 271:Drivers/STM32F3xx_HAL_Driver/Src/stm32f3xx_hal_gpio.c ****         }
 272:Drivers/STM32F3xx_HAL_Driver/Src/stm32f3xx_hal_gpio.c ****         EXTI->EMR = temp;
 374              		.loc 1 272 0
 375 024e 244A     		ldr	r2, .L21+20
 376 0250 3B69     		ldr	r3, [r7, #16]
 377 0252 5360     		str	r3, [r2, #4]
 273:Drivers/STM32F3xx_HAL_Driver/Src/stm32f3xx_hal_gpio.c **** 
 274:Drivers/STM32F3xx_HAL_Driver/Src/stm32f3xx_hal_gpio.c ****         /* Clear Rising Falling edge configuration */
 275:Drivers/STM32F3xx_HAL_Driver/Src/stm32f3xx_hal_gpio.c ****         temp = EXTI->RTSR;
 378              		.loc 1 275 0
 379 0254 224B     		ldr	r3, .L21+20
 380 0256 9B68     		ldr	r3, [r3, #8]
 381 0258 3B61     		str	r3, [r7, #16]
 276:Drivers/STM32F3xx_HAL_Driver/Src/stm32f3xx_hal_gpio.c ****         temp &= ~(iocurrent);
 382              		.loc 1 276 0
 383 025a FB68     		ldr	r3, [r7, #12]
 384 025c DB43     		mvns	r3, r3
 385 025e 3A69     		ldr	r2, [r7, #16]
 386 0260 1340     		ands	r3, r3, r2
 387 0262 3B61     		str	r3, [r7, #16]
 277:Drivers/STM32F3xx_HAL_Driver/Src/stm32f3xx_hal_gpio.c ****         if((GPIO_Init->Mode & RISING_EDGE) == RISING_EDGE)
 388              		.loc 1 277 0
 389 0264 3B68     		ldr	r3, [r7]
 390 0266 5B68     		ldr	r3, [r3, #4]
 391 0268 03F48013 		and	r3, r3, #1048576
 392 026c 002B     		cmp	r3, #0
 393 026e 03D0     		beq	.L18
 278:Drivers/STM32F3xx_HAL_Driver/Src/stm32f3xx_hal_gpio.c ****         {
 279:Drivers/STM32F3xx_HAL_Driver/Src/stm32f3xx_hal_gpio.c ****           temp |= iocurrent;
 394              		.loc 1 279 0
 395 0270 3A69     		ldr	r2, [r7, #16]
 396 0272 FB68     		ldr	r3, [r7, #12]
 397 0274 1343     		orrs	r3, r3, r2
 398 0276 3B61     		str	r3, [r7, #16]
 399              	.L18:
 280:Drivers/STM32F3xx_HAL_Driver/Src/stm32f3xx_hal_gpio.c ****         }
 281:Drivers/STM32F3xx_HAL_Driver/Src/stm32f3xx_hal_gpio.c ****         EXTI->RTSR = temp;
 400              		.loc 1 281 0
 401 0278 194A     		ldr	r2, .L21+20
 402 027a 3B69     		ldr	r3, [r7, #16]
 403 027c 9360     		str	r3, [r2, #8]
ARM GAS  /tmp/ccg0GetW.s 			page 13


 282:Drivers/STM32F3xx_HAL_Driver/Src/stm32f3xx_hal_gpio.c **** 
 283:Drivers/STM32F3xx_HAL_Driver/Src/stm32f3xx_hal_gpio.c ****         temp = EXTI->FTSR;
 404              		.loc 1 283 0
 405 027e 184B     		ldr	r3, .L21+20
 406 0280 DB68     		ldr	r3, [r3, #12]
 407 0282 3B61     		str	r3, [r7, #16]
 284:Drivers/STM32F3xx_HAL_Driver/Src/stm32f3xx_hal_gpio.c ****         temp &= ~(iocurrent);
 408              		.loc 1 284 0
 409 0284 FB68     		ldr	r3, [r7, #12]
 410 0286 DB43     		mvns	r3, r3
 411 0288 3A69     		ldr	r2, [r7, #16]
 412 028a 1340     		ands	r3, r3, r2
 413 028c 3B61     		str	r3, [r7, #16]
 285:Drivers/STM32F3xx_HAL_Driver/Src/stm32f3xx_hal_gpio.c ****         if((GPIO_Init->Mode & FALLING_EDGE) == FALLING_EDGE)
 414              		.loc 1 285 0
 415 028e 3B68     		ldr	r3, [r7]
 416 0290 5B68     		ldr	r3, [r3, #4]
 417 0292 03F40013 		and	r3, r3, #2097152
 418 0296 002B     		cmp	r3, #0
 419 0298 03D0     		beq	.L19
 286:Drivers/STM32F3xx_HAL_Driver/Src/stm32f3xx_hal_gpio.c ****         {
 287:Drivers/STM32F3xx_HAL_Driver/Src/stm32f3xx_hal_gpio.c ****           temp |= iocurrent;
 420              		.loc 1 287 0
 421 029a 3A69     		ldr	r2, [r7, #16]
 422 029c FB68     		ldr	r3, [r7, #12]
 423 029e 1343     		orrs	r3, r3, r2
 424 02a0 3B61     		str	r3, [r7, #16]
 425              	.L19:
 288:Drivers/STM32F3xx_HAL_Driver/Src/stm32f3xx_hal_gpio.c ****         }
 289:Drivers/STM32F3xx_HAL_Driver/Src/stm32f3xx_hal_gpio.c ****         EXTI->FTSR = temp;
 426              		.loc 1 289 0
 427 02a2 0F4A     		ldr	r2, .L21+20
 428 02a4 3B69     		ldr	r3, [r7, #16]
 429 02a6 D360     		str	r3, [r2, #12]
 430              	.L3:
 290:Drivers/STM32F3xx_HAL_Driver/Src/stm32f3xx_hal_gpio.c ****       }
 291:Drivers/STM32F3xx_HAL_Driver/Src/stm32f3xx_hal_gpio.c ****     }
 292:Drivers/STM32F3xx_HAL_Driver/Src/stm32f3xx_hal_gpio.c **** 
 293:Drivers/STM32F3xx_HAL_Driver/Src/stm32f3xx_hal_gpio.c ****     position++;
 431              		.loc 1 293 0
 432 02a8 7B69     		ldr	r3, [r7, #20]
 433 02aa 0133     		adds	r3, r3, #1
 434 02ac 7B61     		str	r3, [r7, #20]
 435              	.L2:
 192:Drivers/STM32F3xx_HAL_Driver/Src/stm32f3xx_hal_gpio.c ****   {
 436              		.loc 1 192 0
 437 02ae 3B68     		ldr	r3, [r7]
 438 02b0 1A68     		ldr	r2, [r3]
 439 02b2 7B69     		ldr	r3, [r7, #20]
 440 02b4 22FA03F3 		lsr	r3, r2, r3
 441 02b8 002B     		cmp	r3, #0
 442 02ba 7FF4A9AE 		bne	.L20
 294:Drivers/STM32F3xx_HAL_Driver/Src/stm32f3xx_hal_gpio.c ****   }
 295:Drivers/STM32F3xx_HAL_Driver/Src/stm32f3xx_hal_gpio.c **** }
 443              		.loc 1 295 0
 444 02be 00BF     		nop
 445 02c0 1C37     		adds	r7, r7, #28
ARM GAS  /tmp/ccg0GetW.s 			page 14


 446              	.LCFI3:
 447              		.cfi_def_cfa_offset 4
 448 02c2 BD46     		mov	sp, r7
 449              	.LCFI4:
 450              		.cfi_def_cfa_register 13
 451              		@ sp needed
 452 02c4 5DF8047B 		ldr	r7, [sp], #4
 453              	.LCFI5:
 454              		.cfi_restore 7
 455              		.cfi_def_cfa_offset 0
 456 02c8 7047     		bx	lr
 457              	.L22:
 458 02ca 00BF     		.align	2
 459              	.L21:
 460 02cc 00100240 		.word	1073876992
 461 02d0 00000140 		.word	1073807360
 462 02d4 00040048 		.word	1207960576
 463 02d8 00080048 		.word	1207961600
 464 02dc 000C0048 		.word	1207962624
 465 02e0 00040140 		.word	1073808384
 466              		.cfi_endproc
 467              	.LFE123:
 469              		.section	.text.HAL_GPIO_DeInit,"ax",%progbits
 470              		.align	1
 471              		.global	HAL_GPIO_DeInit
 472              		.syntax unified
 473              		.thumb
 474              		.thumb_func
 475              		.fpu fpv4-sp-d16
 477              	HAL_GPIO_DeInit:
 478              	.LFB124:
 296:Drivers/STM32F3xx_HAL_Driver/Src/stm32f3xx_hal_gpio.c **** 
 297:Drivers/STM32F3xx_HAL_Driver/Src/stm32f3xx_hal_gpio.c **** /**
 298:Drivers/STM32F3xx_HAL_Driver/Src/stm32f3xx_hal_gpio.c ****   * @brief  De-initialize the GPIOx peripheral registers to their default reset values.
 299:Drivers/STM32F3xx_HAL_Driver/Src/stm32f3xx_hal_gpio.c ****   * @param  GPIOx where x can be (A..F) to select the GPIO peripheral for STM32F30X device or STM32
 300:Drivers/STM32F3xx_HAL_Driver/Src/stm32f3xx_hal_gpio.c ****   * @param  GPIO_Pin specifies the port bit to be written.
 301:Drivers/STM32F3xx_HAL_Driver/Src/stm32f3xx_hal_gpio.c ****   *         This parameter can be one of GPIO_PIN_x where x can be (0..15).
 302:Drivers/STM32F3xx_HAL_Driver/Src/stm32f3xx_hal_gpio.c ****   * @retval None
 303:Drivers/STM32F3xx_HAL_Driver/Src/stm32f3xx_hal_gpio.c ****   */
 304:Drivers/STM32F3xx_HAL_Driver/Src/stm32f3xx_hal_gpio.c **** void HAL_GPIO_DeInit(GPIO_TypeDef  *GPIOx, uint32_t GPIO_Pin)
 305:Drivers/STM32F3xx_HAL_Driver/Src/stm32f3xx_hal_gpio.c **** {
 479              		.loc 1 305 0
 480              		.cfi_startproc
 481              		@ args = 0, pretend = 0, frame = 24
 482              		@ frame_needed = 1, uses_anonymous_args = 0
 483              		@ link register save eliminated.
 484 0000 80B4     		push	{r7}
 485              	.LCFI6:
 486              		.cfi_def_cfa_offset 4
 487              		.cfi_offset 7, -4
 488 0002 87B0     		sub	sp, sp, #28
 489              	.LCFI7:
 490              		.cfi_def_cfa_offset 32
 491 0004 00AF     		add	r7, sp, #0
 492              	.LCFI8:
 493              		.cfi_def_cfa_register 7
 494 0006 7860     		str	r0, [r7, #4]
ARM GAS  /tmp/ccg0GetW.s 			page 15


 495 0008 3960     		str	r1, [r7]
 306:Drivers/STM32F3xx_HAL_Driver/Src/stm32f3xx_hal_gpio.c ****   uint32_t position = 0x00u;
 496              		.loc 1 306 0
 497 000a 0023     		movs	r3, #0
 498 000c 7B61     		str	r3, [r7, #20]
 307:Drivers/STM32F3xx_HAL_Driver/Src/stm32f3xx_hal_gpio.c ****   uint32_t iocurrent;
 308:Drivers/STM32F3xx_HAL_Driver/Src/stm32f3xx_hal_gpio.c ****   uint32_t tmp;
 309:Drivers/STM32F3xx_HAL_Driver/Src/stm32f3xx_hal_gpio.c **** 
 310:Drivers/STM32F3xx_HAL_Driver/Src/stm32f3xx_hal_gpio.c ****   /* Check the parameters */
 311:Drivers/STM32F3xx_HAL_Driver/Src/stm32f3xx_hal_gpio.c ****   assert_param(IS_GPIO_ALL_INSTANCE(GPIOx));
 312:Drivers/STM32F3xx_HAL_Driver/Src/stm32f3xx_hal_gpio.c ****   assert_param(IS_GPIO_PIN(GPIO_Pin));
 313:Drivers/STM32F3xx_HAL_Driver/Src/stm32f3xx_hal_gpio.c **** 
 314:Drivers/STM32F3xx_HAL_Driver/Src/stm32f3xx_hal_gpio.c ****   /* Configure the port pins */
 315:Drivers/STM32F3xx_HAL_Driver/Src/stm32f3xx_hal_gpio.c ****   while ((GPIO_Pin >> position) != 0x00u)
 499              		.loc 1 315 0
 500 000e B2E0     		b	.L24
 501              	.L35:
 316:Drivers/STM32F3xx_HAL_Driver/Src/stm32f3xx_hal_gpio.c ****   {
 317:Drivers/STM32F3xx_HAL_Driver/Src/stm32f3xx_hal_gpio.c ****     /* Get current io position */
 318:Drivers/STM32F3xx_HAL_Driver/Src/stm32f3xx_hal_gpio.c ****     iocurrent = (GPIO_Pin) & (1uL << position);
 502              		.loc 1 318 0
 503 0010 0122     		movs	r2, #1
 504 0012 7B69     		ldr	r3, [r7, #20]
 505 0014 02FA03F3 		lsl	r3, r2, r3
 506 0018 3A68     		ldr	r2, [r7]
 507 001a 1340     		ands	r3, r3, r2
 508 001c 3B61     		str	r3, [r7, #16]
 319:Drivers/STM32F3xx_HAL_Driver/Src/stm32f3xx_hal_gpio.c **** 
 320:Drivers/STM32F3xx_HAL_Driver/Src/stm32f3xx_hal_gpio.c ****     if (iocurrent != 0x00u)
 509              		.loc 1 320 0
 510 001e 3B69     		ldr	r3, [r7, #16]
 511 0020 002B     		cmp	r3, #0
 512 0022 00F0A580 		beq	.L25
 321:Drivers/STM32F3xx_HAL_Driver/Src/stm32f3xx_hal_gpio.c ****     {
 322:Drivers/STM32F3xx_HAL_Driver/Src/stm32f3xx_hal_gpio.c ****       /*------------------------- EXTI Mode Configuration --------------------*/
 323:Drivers/STM32F3xx_HAL_Driver/Src/stm32f3xx_hal_gpio.c ****       /* Clear the External Interrupt or Event for the current IO */
 324:Drivers/STM32F3xx_HAL_Driver/Src/stm32f3xx_hal_gpio.c **** 
 325:Drivers/STM32F3xx_HAL_Driver/Src/stm32f3xx_hal_gpio.c ****       tmp = SYSCFG->EXTICR[position >> 2u];
 513              		.loc 1 325 0
 514 0026 5A4A     		ldr	r2, .L36
 515 0028 7B69     		ldr	r3, [r7, #20]
 516 002a 9B08     		lsrs	r3, r3, #2
 517 002c 0233     		adds	r3, r3, #2
 518 002e 52F82330 		ldr	r3, [r2, r3, lsl #2]
 519 0032 FB60     		str	r3, [r7, #12]
 326:Drivers/STM32F3xx_HAL_Driver/Src/stm32f3xx_hal_gpio.c ****       tmp &= (0x0FuL << (4u * (position & 0x03u)));
 520              		.loc 1 326 0
 521 0034 7B69     		ldr	r3, [r7, #20]
 522 0036 03F00303 		and	r3, r3, #3
 523 003a 9B00     		lsls	r3, r3, #2
 524 003c 0F22     		movs	r2, #15
 525 003e 02FA03F3 		lsl	r3, r2, r3
 526 0042 FA68     		ldr	r2, [r7, #12]
 527 0044 1340     		ands	r3, r3, r2
 528 0046 FB60     		str	r3, [r7, #12]
 327:Drivers/STM32F3xx_HAL_Driver/Src/stm32f3xx_hal_gpio.c ****       if (tmp == (GPIO_GET_INDEX(GPIOx) << (4u * (position & 0x03u))))
 529              		.loc 1 327 0
ARM GAS  /tmp/ccg0GetW.s 			page 16


 530 0048 7B68     		ldr	r3, [r7, #4]
 531 004a B3F1904F 		cmp	r3, #1207959552
 532 004e 13D0     		beq	.L26
 533              		.loc 1 327 0 is_stmt 0 discriminator 1
 534 0050 7B68     		ldr	r3, [r7, #4]
 535 0052 504A     		ldr	r2, .L36+4
 536 0054 9342     		cmp	r3, r2
 537 0056 0DD0     		beq	.L27
 538              		.loc 1 327 0 discriminator 3
 539 0058 7B68     		ldr	r3, [r7, #4]
 540 005a 4F4A     		ldr	r2, .L36+8
 541 005c 9342     		cmp	r3, r2
 542 005e 07D0     		beq	.L28
 543              		.loc 1 327 0 discriminator 5
 544 0060 7B68     		ldr	r3, [r7, #4]
 545 0062 4E4A     		ldr	r2, .L36+12
 546 0064 9342     		cmp	r3, r2
 547 0066 01D1     		bne	.L29
 548              		.loc 1 327 0 discriminator 7
 549 0068 0323     		movs	r3, #3
 550 006a 06E0     		b	.L33
 551              	.L29:
 552              		.loc 1 327 0 discriminator 8
 553 006c 0523     		movs	r3, #5
 554 006e 04E0     		b	.L33
 555              	.L28:
 556              		.loc 1 327 0 discriminator 6
 557 0070 0223     		movs	r3, #2
 558 0072 02E0     		b	.L33
 559              	.L27:
 560              		.loc 1 327 0 discriminator 4
 561 0074 0123     		movs	r3, #1
 562 0076 00E0     		b	.L33
 563              	.L26:
 564              		.loc 1 327 0 discriminator 2
 565 0078 0023     		movs	r3, #0
 566              	.L33:
 567              		.loc 1 327 0 discriminator 16
 568 007a 7A69     		ldr	r2, [r7, #20]
 569 007c 02F00302 		and	r2, r2, #3
 570 0080 9200     		lsls	r2, r2, #2
 571 0082 9340     		lsls	r3, r3, r2
 572 0084 FA68     		ldr	r2, [r7, #12]
 573 0086 9A42     		cmp	r2, r3
 574 0088 32D1     		bne	.L34
 328:Drivers/STM32F3xx_HAL_Driver/Src/stm32f3xx_hal_gpio.c ****       {
 329:Drivers/STM32F3xx_HAL_Driver/Src/stm32f3xx_hal_gpio.c ****         /* Clear EXTI line configuration */
 330:Drivers/STM32F3xx_HAL_Driver/Src/stm32f3xx_hal_gpio.c ****         EXTI->IMR &= ~((uint32_t)iocurrent);
 575              		.loc 1 330 0 is_stmt 1
 576 008a 454B     		ldr	r3, .L36+16
 577 008c 1A68     		ldr	r2, [r3]
 578 008e 3B69     		ldr	r3, [r7, #16]
 579 0090 DB43     		mvns	r3, r3
 580 0092 4349     		ldr	r1, .L36+16
 581 0094 1340     		ands	r3, r3, r2
 582 0096 0B60     		str	r3, [r1]
 331:Drivers/STM32F3xx_HAL_Driver/Src/stm32f3xx_hal_gpio.c ****         EXTI->EMR &= ~((uint32_t)iocurrent);
ARM GAS  /tmp/ccg0GetW.s 			page 17


 583              		.loc 1 331 0
 584 0098 414B     		ldr	r3, .L36+16
 585 009a 5A68     		ldr	r2, [r3, #4]
 586 009c 3B69     		ldr	r3, [r7, #16]
 587 009e DB43     		mvns	r3, r3
 588 00a0 3F49     		ldr	r1, .L36+16
 589 00a2 1340     		ands	r3, r3, r2
 590 00a4 4B60     		str	r3, [r1, #4]
 332:Drivers/STM32F3xx_HAL_Driver/Src/stm32f3xx_hal_gpio.c ****         
 333:Drivers/STM32F3xx_HAL_Driver/Src/stm32f3xx_hal_gpio.c ****         /* Clear Rising Falling edge configuration */
 334:Drivers/STM32F3xx_HAL_Driver/Src/stm32f3xx_hal_gpio.c ****         EXTI->RTSR &= ~((uint32_t)iocurrent);
 591              		.loc 1 334 0
 592 00a6 3E4B     		ldr	r3, .L36+16
 593 00a8 9A68     		ldr	r2, [r3, #8]
 594 00aa 3B69     		ldr	r3, [r7, #16]
 595 00ac DB43     		mvns	r3, r3
 596 00ae 3C49     		ldr	r1, .L36+16
 597 00b0 1340     		ands	r3, r3, r2
 598 00b2 8B60     		str	r3, [r1, #8]
 335:Drivers/STM32F3xx_HAL_Driver/Src/stm32f3xx_hal_gpio.c ****         EXTI->FTSR &= ~((uint32_t)iocurrent);
 599              		.loc 1 335 0
 600 00b4 3A4B     		ldr	r3, .L36+16
 601 00b6 DA68     		ldr	r2, [r3, #12]
 602 00b8 3B69     		ldr	r3, [r7, #16]
 603 00ba DB43     		mvns	r3, r3
 604 00bc 3849     		ldr	r1, .L36+16
 605 00be 1340     		ands	r3, r3, r2
 606 00c0 CB60     		str	r3, [r1, #12]
 336:Drivers/STM32F3xx_HAL_Driver/Src/stm32f3xx_hal_gpio.c **** 
 337:Drivers/STM32F3xx_HAL_Driver/Src/stm32f3xx_hal_gpio.c ****         /* Configure the External Interrupt or event for the current IO */
 338:Drivers/STM32F3xx_HAL_Driver/Src/stm32f3xx_hal_gpio.c ****         tmp = 0x0FuL << (4u * (position & 0x03u));
 607              		.loc 1 338 0
 608 00c2 7B69     		ldr	r3, [r7, #20]
 609 00c4 03F00303 		and	r3, r3, #3
 610 00c8 9B00     		lsls	r3, r3, #2
 611 00ca 0F22     		movs	r2, #15
 612 00cc 02FA03F3 		lsl	r3, r2, r3
 613 00d0 FB60     		str	r3, [r7, #12]
 339:Drivers/STM32F3xx_HAL_Driver/Src/stm32f3xx_hal_gpio.c ****         SYSCFG->EXTICR[position >> 2u] &= ~tmp;
 614              		.loc 1 339 0
 615 00d2 2F4A     		ldr	r2, .L36
 616 00d4 7B69     		ldr	r3, [r7, #20]
 617 00d6 9B08     		lsrs	r3, r3, #2
 618 00d8 0233     		adds	r3, r3, #2
 619 00da 52F82310 		ldr	r1, [r2, r3, lsl #2]
 620 00de FB68     		ldr	r3, [r7, #12]
 621 00e0 DA43     		mvns	r2, r3
 622 00e2 2B48     		ldr	r0, .L36
 623 00e4 7B69     		ldr	r3, [r7, #20]
 624 00e6 9B08     		lsrs	r3, r3, #2
 625 00e8 0A40     		ands	r2, r2, r1
 626 00ea 0233     		adds	r3, r3, #2
 627 00ec 40F82320 		str	r2, [r0, r3, lsl #2]
 628              	.L34:
 340:Drivers/STM32F3xx_HAL_Driver/Src/stm32f3xx_hal_gpio.c ****       }
 341:Drivers/STM32F3xx_HAL_Driver/Src/stm32f3xx_hal_gpio.c **** 
 342:Drivers/STM32F3xx_HAL_Driver/Src/stm32f3xx_hal_gpio.c ****       /*------------------------- GPIO Mode Configuration --------------------*/
ARM GAS  /tmp/ccg0GetW.s 			page 18


 343:Drivers/STM32F3xx_HAL_Driver/Src/stm32f3xx_hal_gpio.c ****       /* Configure IO Direction in Input Floating Mode */
 344:Drivers/STM32F3xx_HAL_Driver/Src/stm32f3xx_hal_gpio.c ****       GPIOx->MODER &= ~(GPIO_MODER_MODER0 << (position * 2u));
 629              		.loc 1 344 0
 630 00f0 7B68     		ldr	r3, [r7, #4]
 631 00f2 1A68     		ldr	r2, [r3]
 632 00f4 7B69     		ldr	r3, [r7, #20]
 633 00f6 5B00     		lsls	r3, r3, #1
 634 00f8 0321     		movs	r1, #3
 635 00fa 01FA03F3 		lsl	r3, r1, r3
 636 00fe DB43     		mvns	r3, r3
 637 0100 1A40     		ands	r2, r2, r3
 638 0102 7B68     		ldr	r3, [r7, #4]
 639 0104 1A60     		str	r2, [r3]
 345:Drivers/STM32F3xx_HAL_Driver/Src/stm32f3xx_hal_gpio.c **** 
 346:Drivers/STM32F3xx_HAL_Driver/Src/stm32f3xx_hal_gpio.c ****       /* Configure the default Alternate Function in current IO */
 347:Drivers/STM32F3xx_HAL_Driver/Src/stm32f3xx_hal_gpio.c ****       GPIOx->AFR[position >> 3u] &= ~(0xFu << ((uint32_t)(position & 0x07u) * 4u)) ;
 640              		.loc 1 347 0
 641 0106 7B69     		ldr	r3, [r7, #20]
 642 0108 DA08     		lsrs	r2, r3, #3
 643 010a 7B68     		ldr	r3, [r7, #4]
 644 010c 0832     		adds	r2, r2, #8
 645 010e 53F82210 		ldr	r1, [r3, r2, lsl #2]
 646 0112 7B69     		ldr	r3, [r7, #20]
 647 0114 03F00703 		and	r3, r3, #7
 648 0118 9B00     		lsls	r3, r3, #2
 649 011a 0F22     		movs	r2, #15
 650 011c 02FA03F3 		lsl	r3, r2, r3
 651 0120 DB43     		mvns	r3, r3
 652 0122 7A69     		ldr	r2, [r7, #20]
 653 0124 D208     		lsrs	r2, r2, #3
 654 0126 1940     		ands	r1, r1, r3
 655 0128 7B68     		ldr	r3, [r7, #4]
 656 012a 0832     		adds	r2, r2, #8
 657 012c 43F82210 		str	r1, [r3, r2, lsl #2]
 348:Drivers/STM32F3xx_HAL_Driver/Src/stm32f3xx_hal_gpio.c **** 
 349:Drivers/STM32F3xx_HAL_Driver/Src/stm32f3xx_hal_gpio.c ****       /* Configure the default value for IO Speed */
 350:Drivers/STM32F3xx_HAL_Driver/Src/stm32f3xx_hal_gpio.c ****       GPIOx->OSPEEDR &= ~(GPIO_OSPEEDER_OSPEEDR0 << (position * 2u));
 658              		.loc 1 350 0
 659 0130 7B68     		ldr	r3, [r7, #4]
 660 0132 9A68     		ldr	r2, [r3, #8]
 661 0134 7B69     		ldr	r3, [r7, #20]
 662 0136 5B00     		lsls	r3, r3, #1
 663 0138 0321     		movs	r1, #3
 664 013a 01FA03F3 		lsl	r3, r1, r3
 665 013e DB43     		mvns	r3, r3
 666 0140 1A40     		ands	r2, r2, r3
 667 0142 7B68     		ldr	r3, [r7, #4]
 668 0144 9A60     		str	r2, [r3, #8]
 351:Drivers/STM32F3xx_HAL_Driver/Src/stm32f3xx_hal_gpio.c **** 
 352:Drivers/STM32F3xx_HAL_Driver/Src/stm32f3xx_hal_gpio.c ****       /* Configure the default value IO Output Type */
 353:Drivers/STM32F3xx_HAL_Driver/Src/stm32f3xx_hal_gpio.c ****       GPIOx->OTYPER  &= ~(GPIO_OTYPER_OT_0 << position) ;
 669              		.loc 1 353 0
 670 0146 7B68     		ldr	r3, [r7, #4]
 671 0148 5A68     		ldr	r2, [r3, #4]
 672 014a 0121     		movs	r1, #1
 673 014c 7B69     		ldr	r3, [r7, #20]
 674 014e 01FA03F3 		lsl	r3, r1, r3
ARM GAS  /tmp/ccg0GetW.s 			page 19


 675 0152 DB43     		mvns	r3, r3
 676 0154 1A40     		ands	r2, r2, r3
 677 0156 7B68     		ldr	r3, [r7, #4]
 678 0158 5A60     		str	r2, [r3, #4]
 354:Drivers/STM32F3xx_HAL_Driver/Src/stm32f3xx_hal_gpio.c **** 
 355:Drivers/STM32F3xx_HAL_Driver/Src/stm32f3xx_hal_gpio.c ****       /* Deactivate the Pull-up and Pull-down resistor for the current IO */
 356:Drivers/STM32F3xx_HAL_Driver/Src/stm32f3xx_hal_gpio.c ****       GPIOx->PUPDR &= ~(GPIO_PUPDR_PUPDR0 << (position * 2U));
 679              		.loc 1 356 0
 680 015a 7B68     		ldr	r3, [r7, #4]
 681 015c DA68     		ldr	r2, [r3, #12]
 682 015e 7B69     		ldr	r3, [r7, #20]
 683 0160 5B00     		lsls	r3, r3, #1
 684 0162 0321     		movs	r1, #3
 685 0164 01FA03F3 		lsl	r3, r1, r3
 686 0168 DB43     		mvns	r3, r3
 687 016a 1A40     		ands	r2, r2, r3
 688 016c 7B68     		ldr	r3, [r7, #4]
 689 016e DA60     		str	r2, [r3, #12]
 690              	.L25:
 357:Drivers/STM32F3xx_HAL_Driver/Src/stm32f3xx_hal_gpio.c ****     }
 358:Drivers/STM32F3xx_HAL_Driver/Src/stm32f3xx_hal_gpio.c **** 
 359:Drivers/STM32F3xx_HAL_Driver/Src/stm32f3xx_hal_gpio.c ****     position++;
 691              		.loc 1 359 0
 692 0170 7B69     		ldr	r3, [r7, #20]
 693 0172 0133     		adds	r3, r3, #1
 694 0174 7B61     		str	r3, [r7, #20]
 695              	.L24:
 315:Drivers/STM32F3xx_HAL_Driver/Src/stm32f3xx_hal_gpio.c ****   {
 696              		.loc 1 315 0
 697 0176 3A68     		ldr	r2, [r7]
 698 0178 7B69     		ldr	r3, [r7, #20]
 699 017a 22FA03F3 		lsr	r3, r2, r3
 700 017e 002B     		cmp	r3, #0
 701 0180 7FF446AF 		bne	.L35
 360:Drivers/STM32F3xx_HAL_Driver/Src/stm32f3xx_hal_gpio.c ****   }
 361:Drivers/STM32F3xx_HAL_Driver/Src/stm32f3xx_hal_gpio.c **** }
 702              		.loc 1 361 0
 703 0184 00BF     		nop
 704 0186 1C37     		adds	r7, r7, #28
 705              	.LCFI9:
 706              		.cfi_def_cfa_offset 4
 707 0188 BD46     		mov	sp, r7
 708              	.LCFI10:
 709              		.cfi_def_cfa_register 13
 710              		@ sp needed
 711 018a 5DF8047B 		ldr	r7, [sp], #4
 712              	.LCFI11:
 713              		.cfi_restore 7
 714              		.cfi_def_cfa_offset 0
 715 018e 7047     		bx	lr
 716              	.L37:
 717              		.align	2
 718              	.L36:
 719 0190 00000140 		.word	1073807360
 720 0194 00040048 		.word	1207960576
 721 0198 00080048 		.word	1207961600
 722 019c 000C0048 		.word	1207962624
ARM GAS  /tmp/ccg0GetW.s 			page 20


 723 01a0 00040140 		.word	1073808384
 724              		.cfi_endproc
 725              	.LFE124:
 727              		.section	.text.HAL_GPIO_ReadPin,"ax",%progbits
 728              		.align	1
 729              		.global	HAL_GPIO_ReadPin
 730              		.syntax unified
 731              		.thumb
 732              		.thumb_func
 733              		.fpu fpv4-sp-d16
 735              	HAL_GPIO_ReadPin:
 736              	.LFB125:
 362:Drivers/STM32F3xx_HAL_Driver/Src/stm32f3xx_hal_gpio.c **** 
 363:Drivers/STM32F3xx_HAL_Driver/Src/stm32f3xx_hal_gpio.c **** /**
 364:Drivers/STM32F3xx_HAL_Driver/Src/stm32f3xx_hal_gpio.c ****   * @}
 365:Drivers/STM32F3xx_HAL_Driver/Src/stm32f3xx_hal_gpio.c ****   */
 366:Drivers/STM32F3xx_HAL_Driver/Src/stm32f3xx_hal_gpio.c **** 
 367:Drivers/STM32F3xx_HAL_Driver/Src/stm32f3xx_hal_gpio.c **** /** @defgroup GPIO_Exported_Functions_Group2 IO operation functions 
 368:Drivers/STM32F3xx_HAL_Driver/Src/stm32f3xx_hal_gpio.c ****  *  @brief GPIO Read, Write, Toggle, Lock and EXTI management functions.
 369:Drivers/STM32F3xx_HAL_Driver/Src/stm32f3xx_hal_gpio.c ****  *
 370:Drivers/STM32F3xx_HAL_Driver/Src/stm32f3xx_hal_gpio.c **** @verbatim
 371:Drivers/STM32F3xx_HAL_Driver/Src/stm32f3xx_hal_gpio.c ****  ===============================================================================
 372:Drivers/STM32F3xx_HAL_Driver/Src/stm32f3xx_hal_gpio.c ****                        ##### IO operation functions #####
 373:Drivers/STM32F3xx_HAL_Driver/Src/stm32f3xx_hal_gpio.c ****  ===============================================================================
 374:Drivers/STM32F3xx_HAL_Driver/Src/stm32f3xx_hal_gpio.c **** 
 375:Drivers/STM32F3xx_HAL_Driver/Src/stm32f3xx_hal_gpio.c **** @endverbatim
 376:Drivers/STM32F3xx_HAL_Driver/Src/stm32f3xx_hal_gpio.c ****   * @{
 377:Drivers/STM32F3xx_HAL_Driver/Src/stm32f3xx_hal_gpio.c ****   */
 378:Drivers/STM32F3xx_HAL_Driver/Src/stm32f3xx_hal_gpio.c **** 
 379:Drivers/STM32F3xx_HAL_Driver/Src/stm32f3xx_hal_gpio.c **** /**
 380:Drivers/STM32F3xx_HAL_Driver/Src/stm32f3xx_hal_gpio.c ****   * @brief  Read the specified input port pin.
 381:Drivers/STM32F3xx_HAL_Driver/Src/stm32f3xx_hal_gpio.c ****   * @param  GPIOx where x can be (A..F) to select the GPIO peripheral for STM32F3 family
 382:Drivers/STM32F3xx_HAL_Driver/Src/stm32f3xx_hal_gpio.c ****   * @param  GPIO_Pin specifies the port bit to read.
 383:Drivers/STM32F3xx_HAL_Driver/Src/stm32f3xx_hal_gpio.c ****   *         This parameter can be GPIO_PIN_x where x can be (0..15).
 384:Drivers/STM32F3xx_HAL_Driver/Src/stm32f3xx_hal_gpio.c ****   * @retval The input port pin value.
 385:Drivers/STM32F3xx_HAL_Driver/Src/stm32f3xx_hal_gpio.c ****   */
 386:Drivers/STM32F3xx_HAL_Driver/Src/stm32f3xx_hal_gpio.c **** GPIO_PinState HAL_GPIO_ReadPin(GPIO_TypeDef* GPIOx, uint16_t GPIO_Pin)
 387:Drivers/STM32F3xx_HAL_Driver/Src/stm32f3xx_hal_gpio.c **** {
 737              		.loc 1 387 0
 738              		.cfi_startproc
 739              		@ args = 0, pretend = 0, frame = 16
 740              		@ frame_needed = 1, uses_anonymous_args = 0
 741              		@ link register save eliminated.
 742 0000 80B4     		push	{r7}
 743              	.LCFI12:
 744              		.cfi_def_cfa_offset 4
 745              		.cfi_offset 7, -4
 746 0002 85B0     		sub	sp, sp, #20
 747              	.LCFI13:
 748              		.cfi_def_cfa_offset 24
 749 0004 00AF     		add	r7, sp, #0
 750              	.LCFI14:
 751              		.cfi_def_cfa_register 7
 752 0006 7860     		str	r0, [r7, #4]
 753 0008 0B46     		mov	r3, r1
 754 000a 7B80     		strh	r3, [r7, #2]	@ movhi
 388:Drivers/STM32F3xx_HAL_Driver/Src/stm32f3xx_hal_gpio.c ****   GPIO_PinState bitstatus;
ARM GAS  /tmp/ccg0GetW.s 			page 21


 389:Drivers/STM32F3xx_HAL_Driver/Src/stm32f3xx_hal_gpio.c **** 
 390:Drivers/STM32F3xx_HAL_Driver/Src/stm32f3xx_hal_gpio.c ****   /* Check the parameters */
 391:Drivers/STM32F3xx_HAL_Driver/Src/stm32f3xx_hal_gpio.c ****   assert_param(IS_GPIO_PIN(GPIO_Pin));
 392:Drivers/STM32F3xx_HAL_Driver/Src/stm32f3xx_hal_gpio.c **** 
 393:Drivers/STM32F3xx_HAL_Driver/Src/stm32f3xx_hal_gpio.c ****   if((GPIOx->IDR & GPIO_Pin) != (uint32_t)GPIO_PIN_RESET)
 755              		.loc 1 393 0
 756 000c 7B68     		ldr	r3, [r7, #4]
 757 000e 1A69     		ldr	r2, [r3, #16]
 758 0010 7B88     		ldrh	r3, [r7, #2]
 759 0012 1340     		ands	r3, r3, r2
 760 0014 002B     		cmp	r3, #0
 761 0016 02D0     		beq	.L39
 394:Drivers/STM32F3xx_HAL_Driver/Src/stm32f3xx_hal_gpio.c ****   {
 395:Drivers/STM32F3xx_HAL_Driver/Src/stm32f3xx_hal_gpio.c ****     bitstatus = GPIO_PIN_SET;
 762              		.loc 1 395 0
 763 0018 0123     		movs	r3, #1
 764 001a FB73     		strb	r3, [r7, #15]
 765 001c 01E0     		b	.L40
 766              	.L39:
 396:Drivers/STM32F3xx_HAL_Driver/Src/stm32f3xx_hal_gpio.c ****   }
 397:Drivers/STM32F3xx_HAL_Driver/Src/stm32f3xx_hal_gpio.c ****   else
 398:Drivers/STM32F3xx_HAL_Driver/Src/stm32f3xx_hal_gpio.c ****   {
 399:Drivers/STM32F3xx_HAL_Driver/Src/stm32f3xx_hal_gpio.c ****     bitstatus = GPIO_PIN_RESET;
 767              		.loc 1 399 0
 768 001e 0023     		movs	r3, #0
 769 0020 FB73     		strb	r3, [r7, #15]
 770              	.L40:
 400:Drivers/STM32F3xx_HAL_Driver/Src/stm32f3xx_hal_gpio.c ****   }
 401:Drivers/STM32F3xx_HAL_Driver/Src/stm32f3xx_hal_gpio.c ****   return bitstatus;
 771              		.loc 1 401 0
 772 0022 FB7B     		ldrb	r3, [r7, #15]	@ zero_extendqisi2
 402:Drivers/STM32F3xx_HAL_Driver/Src/stm32f3xx_hal_gpio.c **** }
 773              		.loc 1 402 0
 774 0024 1846     		mov	r0, r3
 775 0026 1437     		adds	r7, r7, #20
 776              	.LCFI15:
 777              		.cfi_def_cfa_offset 4
 778 0028 BD46     		mov	sp, r7
 779              	.LCFI16:
 780              		.cfi_def_cfa_register 13
 781              		@ sp needed
 782 002a 5DF8047B 		ldr	r7, [sp], #4
 783              	.LCFI17:
 784              		.cfi_restore 7
 785              		.cfi_def_cfa_offset 0
 786 002e 7047     		bx	lr
 787              		.cfi_endproc
 788              	.LFE125:
 790              		.section	.text.HAL_GPIO_WritePin,"ax",%progbits
 791              		.align	1
 792              		.global	HAL_GPIO_WritePin
 793              		.syntax unified
 794              		.thumb
 795              		.thumb_func
 796              		.fpu fpv4-sp-d16
 798              	HAL_GPIO_WritePin:
 799              	.LFB126:
ARM GAS  /tmp/ccg0GetW.s 			page 22


 403:Drivers/STM32F3xx_HAL_Driver/Src/stm32f3xx_hal_gpio.c **** 
 404:Drivers/STM32F3xx_HAL_Driver/Src/stm32f3xx_hal_gpio.c **** /**
 405:Drivers/STM32F3xx_HAL_Driver/Src/stm32f3xx_hal_gpio.c ****   * @brief  Set or clear the selected data port bit.
 406:Drivers/STM32F3xx_HAL_Driver/Src/stm32f3xx_hal_gpio.c ****   *
 407:Drivers/STM32F3xx_HAL_Driver/Src/stm32f3xx_hal_gpio.c ****   * @note   This function uses GPIOx_BSRR and GPIOx_BRR registers to allow atomic read/modify
 408:Drivers/STM32F3xx_HAL_Driver/Src/stm32f3xx_hal_gpio.c ****   *         accesses. In this way, there is no risk of an IRQ occurring between
 409:Drivers/STM32F3xx_HAL_Driver/Src/stm32f3xx_hal_gpio.c ****   *         the read and the modify access.
 410:Drivers/STM32F3xx_HAL_Driver/Src/stm32f3xx_hal_gpio.c ****   *
 411:Drivers/STM32F3xx_HAL_Driver/Src/stm32f3xx_hal_gpio.c ****   * @param  GPIOx where x can be (A..F) to select the GPIO peripheral for STM32F3 family
 412:Drivers/STM32F3xx_HAL_Driver/Src/stm32f3xx_hal_gpio.c ****   * @param  GPIO_Pin specifies the port bit to be written.
 413:Drivers/STM32F3xx_HAL_Driver/Src/stm32f3xx_hal_gpio.c ****   *         This parameter can be one of GPIO_PIN_x where x can be (0..15).
 414:Drivers/STM32F3xx_HAL_Driver/Src/stm32f3xx_hal_gpio.c ****   * @param  PinState specifies the value to be written to the selected bit.
 415:Drivers/STM32F3xx_HAL_Driver/Src/stm32f3xx_hal_gpio.c ****   *         This parameter can be one of the GPIO_PinState enum values:
 416:Drivers/STM32F3xx_HAL_Driver/Src/stm32f3xx_hal_gpio.c ****   *            @arg GPIO_PIN_RESET: to clear the port pin
 417:Drivers/STM32F3xx_HAL_Driver/Src/stm32f3xx_hal_gpio.c ****   *            @arg GPIO_PIN_SET: to set the port pin
 418:Drivers/STM32F3xx_HAL_Driver/Src/stm32f3xx_hal_gpio.c ****   * @retval None
 419:Drivers/STM32F3xx_HAL_Driver/Src/stm32f3xx_hal_gpio.c ****   */
 420:Drivers/STM32F3xx_HAL_Driver/Src/stm32f3xx_hal_gpio.c **** void HAL_GPIO_WritePin(GPIO_TypeDef* GPIOx, uint16_t GPIO_Pin, GPIO_PinState PinState)
 421:Drivers/STM32F3xx_HAL_Driver/Src/stm32f3xx_hal_gpio.c **** {
 800              		.loc 1 421 0
 801              		.cfi_startproc
 802              		@ args = 0, pretend = 0, frame = 8
 803              		@ frame_needed = 1, uses_anonymous_args = 0
 804              		@ link register save eliminated.
 805 0000 80B4     		push	{r7}
 806              	.LCFI18:
 807              		.cfi_def_cfa_offset 4
 808              		.cfi_offset 7, -4
 809 0002 83B0     		sub	sp, sp, #12
 810              	.LCFI19:
 811              		.cfi_def_cfa_offset 16
 812 0004 00AF     		add	r7, sp, #0
 813              	.LCFI20:
 814              		.cfi_def_cfa_register 7
 815 0006 7860     		str	r0, [r7, #4]
 816 0008 0B46     		mov	r3, r1
 817 000a 7B80     		strh	r3, [r7, #2]	@ movhi
 818 000c 1346     		mov	r3, r2
 819 000e 7B70     		strb	r3, [r7, #1]
 422:Drivers/STM32F3xx_HAL_Driver/Src/stm32f3xx_hal_gpio.c ****   /* Check the parameters */
 423:Drivers/STM32F3xx_HAL_Driver/Src/stm32f3xx_hal_gpio.c ****   assert_param(IS_GPIO_PIN(GPIO_Pin));
 424:Drivers/STM32F3xx_HAL_Driver/Src/stm32f3xx_hal_gpio.c ****   assert_param(IS_GPIO_PIN_ACTION(PinState));
 425:Drivers/STM32F3xx_HAL_Driver/Src/stm32f3xx_hal_gpio.c **** 
 426:Drivers/STM32F3xx_HAL_Driver/Src/stm32f3xx_hal_gpio.c ****   if(PinState != GPIO_PIN_RESET)
 820              		.loc 1 426 0
 821 0010 7B78     		ldrb	r3, [r7, #1]	@ zero_extendqisi2
 822 0012 002B     		cmp	r3, #0
 823 0014 03D0     		beq	.L43
 427:Drivers/STM32F3xx_HAL_Driver/Src/stm32f3xx_hal_gpio.c ****   {
 428:Drivers/STM32F3xx_HAL_Driver/Src/stm32f3xx_hal_gpio.c ****     GPIOx->BSRR = (uint32_t)GPIO_Pin;
 824              		.loc 1 428 0
 825 0016 7A88     		ldrh	r2, [r7, #2]
 826 0018 7B68     		ldr	r3, [r7, #4]
 827 001a 9A61     		str	r2, [r3, #24]
 429:Drivers/STM32F3xx_HAL_Driver/Src/stm32f3xx_hal_gpio.c ****   }
 430:Drivers/STM32F3xx_HAL_Driver/Src/stm32f3xx_hal_gpio.c ****   else
 431:Drivers/STM32F3xx_HAL_Driver/Src/stm32f3xx_hal_gpio.c ****   {
ARM GAS  /tmp/ccg0GetW.s 			page 23


 432:Drivers/STM32F3xx_HAL_Driver/Src/stm32f3xx_hal_gpio.c ****     GPIOx->BRR = (uint32_t)GPIO_Pin;
 433:Drivers/STM32F3xx_HAL_Driver/Src/stm32f3xx_hal_gpio.c ****   }
 434:Drivers/STM32F3xx_HAL_Driver/Src/stm32f3xx_hal_gpio.c **** }
 828              		.loc 1 434 0
 829 001c 02E0     		b	.L45
 830              	.L43:
 432:Drivers/STM32F3xx_HAL_Driver/Src/stm32f3xx_hal_gpio.c ****   }
 831              		.loc 1 432 0
 832 001e 7A88     		ldrh	r2, [r7, #2]
 833 0020 7B68     		ldr	r3, [r7, #4]
 834 0022 9A62     		str	r2, [r3, #40]
 835              	.L45:
 836              		.loc 1 434 0
 837 0024 00BF     		nop
 838 0026 0C37     		adds	r7, r7, #12
 839              	.LCFI21:
 840              		.cfi_def_cfa_offset 4
 841 0028 BD46     		mov	sp, r7
 842              	.LCFI22:
 843              		.cfi_def_cfa_register 13
 844              		@ sp needed
 845 002a 5DF8047B 		ldr	r7, [sp], #4
 846              	.LCFI23:
 847              		.cfi_restore 7
 848              		.cfi_def_cfa_offset 0
 849 002e 7047     		bx	lr
 850              		.cfi_endproc
 851              	.LFE126:
 853              		.section	.text.HAL_GPIO_TogglePin,"ax",%progbits
 854              		.align	1
 855              		.global	HAL_GPIO_TogglePin
 856              		.syntax unified
 857              		.thumb
 858              		.thumb_func
 859              		.fpu fpv4-sp-d16
 861              	HAL_GPIO_TogglePin:
 862              	.LFB127:
 435:Drivers/STM32F3xx_HAL_Driver/Src/stm32f3xx_hal_gpio.c **** 
 436:Drivers/STM32F3xx_HAL_Driver/Src/stm32f3xx_hal_gpio.c **** /**
 437:Drivers/STM32F3xx_HAL_Driver/Src/stm32f3xx_hal_gpio.c ****   * @brief  Toggle the specified GPIO pin.
 438:Drivers/STM32F3xx_HAL_Driver/Src/stm32f3xx_hal_gpio.c ****   * @param  GPIOx where x can be (A..F) to select the GPIO peripheral for STM32F3 family
 439:Drivers/STM32F3xx_HAL_Driver/Src/stm32f3xx_hal_gpio.c ****   * @param  GPIO_Pin specifies the pin to be toggled.
 440:Drivers/STM32F3xx_HAL_Driver/Src/stm32f3xx_hal_gpio.c ****   * @retval None
 441:Drivers/STM32F3xx_HAL_Driver/Src/stm32f3xx_hal_gpio.c ****   */
 442:Drivers/STM32F3xx_HAL_Driver/Src/stm32f3xx_hal_gpio.c **** void HAL_GPIO_TogglePin(GPIO_TypeDef* GPIOx, uint16_t GPIO_Pin)
 443:Drivers/STM32F3xx_HAL_Driver/Src/stm32f3xx_hal_gpio.c **** {
 863              		.loc 1 443 0
 864              		.cfi_startproc
 865              		@ args = 0, pretend = 0, frame = 8
 866              		@ frame_needed = 1, uses_anonymous_args = 0
 867              		@ link register save eliminated.
 868 0000 80B4     		push	{r7}
 869              	.LCFI24:
 870              		.cfi_def_cfa_offset 4
 871              		.cfi_offset 7, -4
 872 0002 83B0     		sub	sp, sp, #12
 873              	.LCFI25:
ARM GAS  /tmp/ccg0GetW.s 			page 24


 874              		.cfi_def_cfa_offset 16
 875 0004 00AF     		add	r7, sp, #0
 876              	.LCFI26:
 877              		.cfi_def_cfa_register 7
 878 0006 7860     		str	r0, [r7, #4]
 879 0008 0B46     		mov	r3, r1
 880 000a 7B80     		strh	r3, [r7, #2]	@ movhi
 444:Drivers/STM32F3xx_HAL_Driver/Src/stm32f3xx_hal_gpio.c ****   /* Check the parameters */
 445:Drivers/STM32F3xx_HAL_Driver/Src/stm32f3xx_hal_gpio.c ****   assert_param(IS_GPIO_PIN(GPIO_Pin));
 446:Drivers/STM32F3xx_HAL_Driver/Src/stm32f3xx_hal_gpio.c **** 
 447:Drivers/STM32F3xx_HAL_Driver/Src/stm32f3xx_hal_gpio.c ****   if ((GPIOx->ODR & GPIO_Pin) != 0X00u)
 881              		.loc 1 447 0
 882 000c 7B68     		ldr	r3, [r7, #4]
 883 000e 5A69     		ldr	r2, [r3, #20]
 884 0010 7B88     		ldrh	r3, [r7, #2]
 885 0012 1340     		ands	r3, r3, r2
 886 0014 002B     		cmp	r3, #0
 887 0016 04D0     		beq	.L47
 448:Drivers/STM32F3xx_HAL_Driver/Src/stm32f3xx_hal_gpio.c ****   {
 449:Drivers/STM32F3xx_HAL_Driver/Src/stm32f3xx_hal_gpio.c ****     GPIOx->BSRR = (uint32_t)GPIO_Pin << GPIO_NUMBER;
 888              		.loc 1 449 0
 889 0018 7B88     		ldrh	r3, [r7, #2]
 890 001a 1A04     		lsls	r2, r3, #16
 891 001c 7B68     		ldr	r3, [r7, #4]
 892 001e 9A61     		str	r2, [r3, #24]
 450:Drivers/STM32F3xx_HAL_Driver/Src/stm32f3xx_hal_gpio.c ****   }
 451:Drivers/STM32F3xx_HAL_Driver/Src/stm32f3xx_hal_gpio.c ****   else
 452:Drivers/STM32F3xx_HAL_Driver/Src/stm32f3xx_hal_gpio.c ****   {
 453:Drivers/STM32F3xx_HAL_Driver/Src/stm32f3xx_hal_gpio.c ****     GPIOx->BSRR = (uint32_t)GPIO_Pin;
 454:Drivers/STM32F3xx_HAL_Driver/Src/stm32f3xx_hal_gpio.c ****   }
 455:Drivers/STM32F3xx_HAL_Driver/Src/stm32f3xx_hal_gpio.c **** }
 893              		.loc 1 455 0
 894 0020 02E0     		b	.L49
 895              	.L47:
 453:Drivers/STM32F3xx_HAL_Driver/Src/stm32f3xx_hal_gpio.c ****   }
 896              		.loc 1 453 0
 897 0022 7A88     		ldrh	r2, [r7, #2]
 898 0024 7B68     		ldr	r3, [r7, #4]
 899 0026 9A61     		str	r2, [r3, #24]
 900              	.L49:
 901              		.loc 1 455 0
 902 0028 00BF     		nop
 903 002a 0C37     		adds	r7, r7, #12
 904              	.LCFI27:
 905              		.cfi_def_cfa_offset 4
 906 002c BD46     		mov	sp, r7
 907              	.LCFI28:
 908              		.cfi_def_cfa_register 13
 909              		@ sp needed
 910 002e 5DF8047B 		ldr	r7, [sp], #4
 911              	.LCFI29:
 912              		.cfi_restore 7
 913              		.cfi_def_cfa_offset 0
 914 0032 7047     		bx	lr
 915              		.cfi_endproc
 916              	.LFE127:
 918              		.section	.text.HAL_GPIO_LockPin,"ax",%progbits
ARM GAS  /tmp/ccg0GetW.s 			page 25


 919              		.align	1
 920              		.global	HAL_GPIO_LockPin
 921              		.syntax unified
 922              		.thumb
 923              		.thumb_func
 924              		.fpu fpv4-sp-d16
 926              	HAL_GPIO_LockPin:
 927              	.LFB128:
 456:Drivers/STM32F3xx_HAL_Driver/Src/stm32f3xx_hal_gpio.c **** 
 457:Drivers/STM32F3xx_HAL_Driver/Src/stm32f3xx_hal_gpio.c **** /**
 458:Drivers/STM32F3xx_HAL_Driver/Src/stm32f3xx_hal_gpio.c **** * @brief  Lock GPIO Pins configuration registers.
 459:Drivers/STM32F3xx_HAL_Driver/Src/stm32f3xx_hal_gpio.c ****   * @note   The locked registers are GPIOx_MODER, GPIOx_OTYPER, GPIOx_OSPEEDR,
 460:Drivers/STM32F3xx_HAL_Driver/Src/stm32f3xx_hal_gpio.c ****   *         GPIOx_PUPDR, GPIOx_AFRL and GPIOx_AFRH.
 461:Drivers/STM32F3xx_HAL_Driver/Src/stm32f3xx_hal_gpio.c ****   * @note   The configuration of the locked GPIO pins can no longer be modified
 462:Drivers/STM32F3xx_HAL_Driver/Src/stm32f3xx_hal_gpio.c ****   *         until the next reset.
 463:Drivers/STM32F3xx_HAL_Driver/Src/stm32f3xx_hal_gpio.c ****   * @param  GPIOx where x can be (A..F) to select the GPIO peripheral for STM32F3 family
 464:Drivers/STM32F3xx_HAL_Driver/Src/stm32f3xx_hal_gpio.c ****   * @param  GPIO_Pin specifies the port bits to be locked.
 465:Drivers/STM32F3xx_HAL_Driver/Src/stm32f3xx_hal_gpio.c ****   *         This parameter can be any combination of GPIO_Pin_x where x can be (0..15).
 466:Drivers/STM32F3xx_HAL_Driver/Src/stm32f3xx_hal_gpio.c ****   * @retval None
 467:Drivers/STM32F3xx_HAL_Driver/Src/stm32f3xx_hal_gpio.c ****   */
 468:Drivers/STM32F3xx_HAL_Driver/Src/stm32f3xx_hal_gpio.c **** HAL_StatusTypeDef HAL_GPIO_LockPin(GPIO_TypeDef* GPIOx, uint16_t GPIO_Pin)
 469:Drivers/STM32F3xx_HAL_Driver/Src/stm32f3xx_hal_gpio.c **** {
 928              		.loc 1 469 0
 929              		.cfi_startproc
 930              		@ args = 0, pretend = 0, frame = 16
 931              		@ frame_needed = 1, uses_anonymous_args = 0
 932              		@ link register save eliminated.
 933 0000 80B4     		push	{r7}
 934              	.LCFI30:
 935              		.cfi_def_cfa_offset 4
 936              		.cfi_offset 7, -4
 937 0002 85B0     		sub	sp, sp, #20
 938              	.LCFI31:
 939              		.cfi_def_cfa_offset 24
 940 0004 00AF     		add	r7, sp, #0
 941              	.LCFI32:
 942              		.cfi_def_cfa_register 7
 943 0006 7860     		str	r0, [r7, #4]
 944 0008 0B46     		mov	r3, r1
 945 000a 7B80     		strh	r3, [r7, #2]	@ movhi
 470:Drivers/STM32F3xx_HAL_Driver/Src/stm32f3xx_hal_gpio.c ****   __IO uint32_t tmp = GPIO_LCKR_LCKK;
 946              		.loc 1 470 0
 947 000c 4FF48033 		mov	r3, #65536
 948 0010 FB60     		str	r3, [r7, #12]
 471:Drivers/STM32F3xx_HAL_Driver/Src/stm32f3xx_hal_gpio.c **** 
 472:Drivers/STM32F3xx_HAL_Driver/Src/stm32f3xx_hal_gpio.c ****   /* Check the parameters */
 473:Drivers/STM32F3xx_HAL_Driver/Src/stm32f3xx_hal_gpio.c ****   assert_param(IS_GPIO_LOCK_INSTANCE(GPIOx));
 474:Drivers/STM32F3xx_HAL_Driver/Src/stm32f3xx_hal_gpio.c ****   assert_param(IS_GPIO_PIN(GPIO_Pin));
 475:Drivers/STM32F3xx_HAL_Driver/Src/stm32f3xx_hal_gpio.c **** 
 476:Drivers/STM32F3xx_HAL_Driver/Src/stm32f3xx_hal_gpio.c ****   /* Apply lock key write sequence */
 477:Drivers/STM32F3xx_HAL_Driver/Src/stm32f3xx_hal_gpio.c ****   tmp |= GPIO_Pin;
 949              		.loc 1 477 0
 950 0012 7A88     		ldrh	r2, [r7, #2]
 951 0014 FB68     		ldr	r3, [r7, #12]
 952 0016 1343     		orrs	r3, r3, r2
 953 0018 FB60     		str	r3, [r7, #12]
 478:Drivers/STM32F3xx_HAL_Driver/Src/stm32f3xx_hal_gpio.c ****   /* Set LCKx bit(s): LCKK='1' + LCK[15U-0] */
ARM GAS  /tmp/ccg0GetW.s 			page 26


 479:Drivers/STM32F3xx_HAL_Driver/Src/stm32f3xx_hal_gpio.c ****   GPIOx->LCKR = tmp;
 954              		.loc 1 479 0
 955 001a FA68     		ldr	r2, [r7, #12]
 956 001c 7B68     		ldr	r3, [r7, #4]
 957 001e DA61     		str	r2, [r3, #28]
 480:Drivers/STM32F3xx_HAL_Driver/Src/stm32f3xx_hal_gpio.c ****   /* Reset LCKx bit(s): LCKK='0' + LCK[15U-0] */
 481:Drivers/STM32F3xx_HAL_Driver/Src/stm32f3xx_hal_gpio.c ****   GPIOx->LCKR = GPIO_Pin;
 958              		.loc 1 481 0
 959 0020 7A88     		ldrh	r2, [r7, #2]
 960 0022 7B68     		ldr	r3, [r7, #4]
 961 0024 DA61     		str	r2, [r3, #28]
 482:Drivers/STM32F3xx_HAL_Driver/Src/stm32f3xx_hal_gpio.c ****   /* Set LCKx bit(s): LCKK='1' + LCK[15U-0] */
 483:Drivers/STM32F3xx_HAL_Driver/Src/stm32f3xx_hal_gpio.c ****   GPIOx->LCKR = tmp;
 962              		.loc 1 483 0
 963 0026 FA68     		ldr	r2, [r7, #12]
 964 0028 7B68     		ldr	r3, [r7, #4]
 965 002a DA61     		str	r2, [r3, #28]
 484:Drivers/STM32F3xx_HAL_Driver/Src/stm32f3xx_hal_gpio.c ****   /* Read LCKK register. This read is mandatory to complete key lock sequence */
 485:Drivers/STM32F3xx_HAL_Driver/Src/stm32f3xx_hal_gpio.c ****   tmp = GPIOx->LCKR;
 966              		.loc 1 485 0
 967 002c 7B68     		ldr	r3, [r7, #4]
 968 002e DB69     		ldr	r3, [r3, #28]
 969 0030 FB60     		str	r3, [r7, #12]
 486:Drivers/STM32F3xx_HAL_Driver/Src/stm32f3xx_hal_gpio.c **** 
 487:Drivers/STM32F3xx_HAL_Driver/Src/stm32f3xx_hal_gpio.c ****   /* read again in order to confirm lock is active */
 488:Drivers/STM32F3xx_HAL_Driver/Src/stm32f3xx_hal_gpio.c ****  if((GPIOx->LCKR & GPIO_LCKR_LCKK) != 0x00u)
 970              		.loc 1 488 0
 971 0032 7B68     		ldr	r3, [r7, #4]
 972 0034 DB69     		ldr	r3, [r3, #28]
 973 0036 03F48033 		and	r3, r3, #65536
 974 003a 002B     		cmp	r3, #0
 975 003c 01D0     		beq	.L51
 489:Drivers/STM32F3xx_HAL_Driver/Src/stm32f3xx_hal_gpio.c ****   {
 490:Drivers/STM32F3xx_HAL_Driver/Src/stm32f3xx_hal_gpio.c ****     return HAL_OK;
 976              		.loc 1 490 0
 977 003e 0023     		movs	r3, #0
 978 0040 00E0     		b	.L52
 979              	.L51:
 491:Drivers/STM32F3xx_HAL_Driver/Src/stm32f3xx_hal_gpio.c ****   }
 492:Drivers/STM32F3xx_HAL_Driver/Src/stm32f3xx_hal_gpio.c ****   else
 493:Drivers/STM32F3xx_HAL_Driver/Src/stm32f3xx_hal_gpio.c ****   {
 494:Drivers/STM32F3xx_HAL_Driver/Src/stm32f3xx_hal_gpio.c ****     return HAL_ERROR;
 980              		.loc 1 494 0
 981 0042 0123     		movs	r3, #1
 982              	.L52:
 495:Drivers/STM32F3xx_HAL_Driver/Src/stm32f3xx_hal_gpio.c ****   }
 496:Drivers/STM32F3xx_HAL_Driver/Src/stm32f3xx_hal_gpio.c **** }
 983              		.loc 1 496 0
 984 0044 1846     		mov	r0, r3
 985 0046 1437     		adds	r7, r7, #20
 986              	.LCFI33:
 987              		.cfi_def_cfa_offset 4
 988 0048 BD46     		mov	sp, r7
 989              	.LCFI34:
 990              		.cfi_def_cfa_register 13
 991              		@ sp needed
 992 004a 5DF8047B 		ldr	r7, [sp], #4
ARM GAS  /tmp/ccg0GetW.s 			page 27


 993              	.LCFI35:
 994              		.cfi_restore 7
 995              		.cfi_def_cfa_offset 0
 996 004e 7047     		bx	lr
 997              		.cfi_endproc
 998              	.LFE128:
 1000              		.section	.text.HAL_GPIO_EXTI_IRQHandler,"ax",%progbits
 1001              		.align	1
 1002              		.global	HAL_GPIO_EXTI_IRQHandler
 1003              		.syntax unified
 1004              		.thumb
 1005              		.thumb_func
 1006              		.fpu fpv4-sp-d16
 1008              	HAL_GPIO_EXTI_IRQHandler:
 1009              	.LFB129:
 497:Drivers/STM32F3xx_HAL_Driver/Src/stm32f3xx_hal_gpio.c **** 
 498:Drivers/STM32F3xx_HAL_Driver/Src/stm32f3xx_hal_gpio.c **** /**
 499:Drivers/STM32F3xx_HAL_Driver/Src/stm32f3xx_hal_gpio.c ****   * @brief  Handle EXTI interrupt request.
 500:Drivers/STM32F3xx_HAL_Driver/Src/stm32f3xx_hal_gpio.c ****   * @param  GPIO_Pin Specifies the port pin connected to corresponding EXTI line.
 501:Drivers/STM32F3xx_HAL_Driver/Src/stm32f3xx_hal_gpio.c ****   * @retval None
 502:Drivers/STM32F3xx_HAL_Driver/Src/stm32f3xx_hal_gpio.c ****   */
 503:Drivers/STM32F3xx_HAL_Driver/Src/stm32f3xx_hal_gpio.c **** void HAL_GPIO_EXTI_IRQHandler(uint16_t GPIO_Pin)
 504:Drivers/STM32F3xx_HAL_Driver/Src/stm32f3xx_hal_gpio.c **** {
 1010              		.loc 1 504 0
 1011              		.cfi_startproc
 1012              		@ args = 0, pretend = 0, frame = 8
 1013              		@ frame_needed = 1, uses_anonymous_args = 0
 1014 0000 80B5     		push	{r7, lr}
 1015              	.LCFI36:
 1016              		.cfi_def_cfa_offset 8
 1017              		.cfi_offset 7, -8
 1018              		.cfi_offset 14, -4
 1019 0002 82B0     		sub	sp, sp, #8
 1020              	.LCFI37:
 1021              		.cfi_def_cfa_offset 16
 1022 0004 00AF     		add	r7, sp, #0
 1023              	.LCFI38:
 1024              		.cfi_def_cfa_register 7
 1025 0006 0346     		mov	r3, r0
 1026 0008 FB80     		strh	r3, [r7, #6]	@ movhi
 505:Drivers/STM32F3xx_HAL_Driver/Src/stm32f3xx_hal_gpio.c ****   /* EXTI line interrupt detected */
 506:Drivers/STM32F3xx_HAL_Driver/Src/stm32f3xx_hal_gpio.c ****   if(__HAL_GPIO_EXTI_GET_IT(GPIO_Pin) != 0x00u)
 1027              		.loc 1 506 0
 1028 000a 084B     		ldr	r3, .L56
 1029 000c 5A69     		ldr	r2, [r3, #20]
 1030 000e FB88     		ldrh	r3, [r7, #6]
 1031 0010 1340     		ands	r3, r3, r2
 1032 0012 002B     		cmp	r3, #0
 1033 0014 06D0     		beq	.L55
 507:Drivers/STM32F3xx_HAL_Driver/Src/stm32f3xx_hal_gpio.c ****   {
 508:Drivers/STM32F3xx_HAL_Driver/Src/stm32f3xx_hal_gpio.c ****     __HAL_GPIO_EXTI_CLEAR_IT(GPIO_Pin);
 1034              		.loc 1 508 0
 1035 0016 054A     		ldr	r2, .L56
 1036 0018 FB88     		ldrh	r3, [r7, #6]
 1037 001a 5361     		str	r3, [r2, #20]
 509:Drivers/STM32F3xx_HAL_Driver/Src/stm32f3xx_hal_gpio.c ****     HAL_GPIO_EXTI_Callback(GPIO_Pin);
 1038              		.loc 1 509 0
ARM GAS  /tmp/ccg0GetW.s 			page 28


 1039 001c FB88     		ldrh	r3, [r7, #6]
 1040 001e 1846     		mov	r0, r3
 1041 0020 FFF7FEFF 		bl	HAL_GPIO_EXTI_Callback
 1042              	.L55:
 510:Drivers/STM32F3xx_HAL_Driver/Src/stm32f3xx_hal_gpio.c ****   }
 511:Drivers/STM32F3xx_HAL_Driver/Src/stm32f3xx_hal_gpio.c **** }
 1043              		.loc 1 511 0
 1044 0024 00BF     		nop
 1045 0026 0837     		adds	r7, r7, #8
 1046              	.LCFI39:
 1047              		.cfi_def_cfa_offset 8
 1048 0028 BD46     		mov	sp, r7
 1049              	.LCFI40:
 1050              		.cfi_def_cfa_register 13
 1051              		@ sp needed
 1052 002a 80BD     		pop	{r7, pc}
 1053              	.L57:
 1054              		.align	2
 1055              	.L56:
 1056 002c 00040140 		.word	1073808384
 1057              		.cfi_endproc
 1058              	.LFE129:
 1060              		.section	.text.HAL_GPIO_EXTI_Callback,"ax",%progbits
 1061              		.align	1
 1062              		.weak	HAL_GPIO_EXTI_Callback
 1063              		.syntax unified
 1064              		.thumb
 1065              		.thumb_func
 1066              		.fpu fpv4-sp-d16
 1068              	HAL_GPIO_EXTI_Callback:
 1069              	.LFB130:
 512:Drivers/STM32F3xx_HAL_Driver/Src/stm32f3xx_hal_gpio.c **** 
 513:Drivers/STM32F3xx_HAL_Driver/Src/stm32f3xx_hal_gpio.c **** /**
 514:Drivers/STM32F3xx_HAL_Driver/Src/stm32f3xx_hal_gpio.c ****   * @brief  EXTI line detection callback.
 515:Drivers/STM32F3xx_HAL_Driver/Src/stm32f3xx_hal_gpio.c ****   * @param  GPIO_Pin Specifies the port pin connected to corresponding EXTI line.
 516:Drivers/STM32F3xx_HAL_Driver/Src/stm32f3xx_hal_gpio.c ****   * @retval None
 517:Drivers/STM32F3xx_HAL_Driver/Src/stm32f3xx_hal_gpio.c ****   */
 518:Drivers/STM32F3xx_HAL_Driver/Src/stm32f3xx_hal_gpio.c **** __weak void HAL_GPIO_EXTI_Callback(uint16_t GPIO_Pin)
 519:Drivers/STM32F3xx_HAL_Driver/Src/stm32f3xx_hal_gpio.c **** {
 1070              		.loc 1 519 0
 1071              		.cfi_startproc
 1072              		@ args = 0, pretend = 0, frame = 8
 1073              		@ frame_needed = 1, uses_anonymous_args = 0
 1074              		@ link register save eliminated.
 1075 0000 80B4     		push	{r7}
 1076              	.LCFI41:
 1077              		.cfi_def_cfa_offset 4
 1078              		.cfi_offset 7, -4
 1079 0002 83B0     		sub	sp, sp, #12
 1080              	.LCFI42:
 1081              		.cfi_def_cfa_offset 16
 1082 0004 00AF     		add	r7, sp, #0
 1083              	.LCFI43:
 1084              		.cfi_def_cfa_register 7
 1085 0006 0346     		mov	r3, r0
 1086 0008 FB80     		strh	r3, [r7, #6]	@ movhi
 520:Drivers/STM32F3xx_HAL_Driver/Src/stm32f3xx_hal_gpio.c ****   /* Prevent unused argument(s) compilation warning */
ARM GAS  /tmp/ccg0GetW.s 			page 29


 521:Drivers/STM32F3xx_HAL_Driver/Src/stm32f3xx_hal_gpio.c ****   UNUSED(GPIO_Pin);
 522:Drivers/STM32F3xx_HAL_Driver/Src/stm32f3xx_hal_gpio.c **** 
 523:Drivers/STM32F3xx_HAL_Driver/Src/stm32f3xx_hal_gpio.c ****   /* NOTE: This function should not be modified, when the callback is needed,
 524:Drivers/STM32F3xx_HAL_Driver/Src/stm32f3xx_hal_gpio.c ****            the HAL_GPIO_EXTI_Callback could be implemented in the user file
 525:Drivers/STM32F3xx_HAL_Driver/Src/stm32f3xx_hal_gpio.c ****    */
 526:Drivers/STM32F3xx_HAL_Driver/Src/stm32f3xx_hal_gpio.c **** }
 1087              		.loc 1 526 0
 1088 000a 00BF     		nop
 1089 000c 0C37     		adds	r7, r7, #12
 1090              	.LCFI44:
 1091              		.cfi_def_cfa_offset 4
 1092 000e BD46     		mov	sp, r7
 1093              	.LCFI45:
 1094              		.cfi_def_cfa_register 13
 1095              		@ sp needed
 1096 0010 5DF8047B 		ldr	r7, [sp], #4
 1097              	.LCFI46:
 1098              		.cfi_restore 7
 1099              		.cfi_def_cfa_offset 0
 1100 0014 7047     		bx	lr
 1101              		.cfi_endproc
 1102              	.LFE130:
 1104              		.text
 1105              	.Letext0:
 1106              		.file 2 "/opt/st/stm32cubeide_1.3.0/plugins/com.st.stm32cube.ide.mcu.externaltools.gnu-tools-for-s
 1107              		.file 3 "/opt/st/stm32cubeide_1.3.0/plugins/com.st.stm32cube.ide.mcu.externaltools.gnu-tools-for-s
 1108              		.file 4 "Drivers/CMSIS/Include/core_cm4.h"
 1109              		.file 5 "Drivers/CMSIS/Device/ST/STM32F3xx/Include/system_stm32f3xx.h"
 1110              		.file 6 "Drivers/CMSIS/Device/ST/STM32F3xx/Include/stm32f303x8.h"
 1111              		.file 7 "Drivers/STM32F3xx_HAL_Driver/Inc/stm32f3xx_hal_def.h"
 1112              		.file 8 "Drivers/STM32F3xx_HAL_Driver/Inc/stm32f3xx_hal_gpio.h"
 1113              		.file 9 "Drivers/STM32F3xx_HAL_Driver/Inc/stm32f3xx_hal.h"
ARM GAS  /tmp/ccg0GetW.s 			page 30

