ARM GAS  /tmp/cc7eKD0K.s 			page 1


   1              		.cpu cortex-m4
   2              		.eabi_attribute 27, 1
   3              		.eabi_attribute 28, 1
   4              		.eabi_attribute 20, 1
   5              		.eabi_attribute 21, 1
   6              		.eabi_attribute 23, 3
   7              		.eabi_attribute 24, 1
   8              		.eabi_attribute 25, 1
   9              		.eabi_attribute 26, 1
  10              		.eabi_attribute 30, 6
  11              		.eabi_attribute 34, 1
  12              		.eabi_attribute 18, 4
  13              		.file	"stm32f3xx_hal_i2c.c"
  14              		.text
  15              	.Ltext0:
  16              		.cfi_sections	.debug_frame
  17              		.section	.text.HAL_I2C_Init,"ax",%progbits
  18              		.align	1
  19              		.global	HAL_I2C_Init
  20              		.syntax unified
  21              		.thumb
  22              		.thumb_func
  23              		.fpu fpv4-sp-d16
  25              	HAL_I2C_Init:
  26              	.LFB123:
  27              		.file 1 "Drivers/STM32F3xx_HAL_Driver/Src/stm32f3xx_hal_i2c.c"
   1:Drivers/STM32F3xx_HAL_Driver/Src/stm32f3xx_hal_i2c.c **** /**
   2:Drivers/STM32F3xx_HAL_Driver/Src/stm32f3xx_hal_i2c.c ****   ******************************************************************************
   3:Drivers/STM32F3xx_HAL_Driver/Src/stm32f3xx_hal_i2c.c ****   * @file    stm32f3xx_hal_i2c.c
   4:Drivers/STM32F3xx_HAL_Driver/Src/stm32f3xx_hal_i2c.c ****   * @author  MCD Application Team
   5:Drivers/STM32F3xx_HAL_Driver/Src/stm32f3xx_hal_i2c.c ****   * @brief   I2C HAL module driver.
   6:Drivers/STM32F3xx_HAL_Driver/Src/stm32f3xx_hal_i2c.c ****   *          This file provides firmware functions to manage the following
   7:Drivers/STM32F3xx_HAL_Driver/Src/stm32f3xx_hal_i2c.c ****   *          functionalities of the Inter Integrated Circuit (I2C) peripheral:
   8:Drivers/STM32F3xx_HAL_Driver/Src/stm32f3xx_hal_i2c.c ****   *           + Initialization and de-initialization functions
   9:Drivers/STM32F3xx_HAL_Driver/Src/stm32f3xx_hal_i2c.c ****   *           + IO operation functions
  10:Drivers/STM32F3xx_HAL_Driver/Src/stm32f3xx_hal_i2c.c ****   *           + Peripheral State and Errors functions
  11:Drivers/STM32F3xx_HAL_Driver/Src/stm32f3xx_hal_i2c.c ****   *
  12:Drivers/STM32F3xx_HAL_Driver/Src/stm32f3xx_hal_i2c.c ****   @verbatim
  13:Drivers/STM32F3xx_HAL_Driver/Src/stm32f3xx_hal_i2c.c ****   ==============================================================================
  14:Drivers/STM32F3xx_HAL_Driver/Src/stm32f3xx_hal_i2c.c ****                         ##### How to use this driver #####
  15:Drivers/STM32F3xx_HAL_Driver/Src/stm32f3xx_hal_i2c.c ****   ==============================================================================
  16:Drivers/STM32F3xx_HAL_Driver/Src/stm32f3xx_hal_i2c.c ****     [..]
  17:Drivers/STM32F3xx_HAL_Driver/Src/stm32f3xx_hal_i2c.c ****     The I2C HAL driver can be used as follows:
  18:Drivers/STM32F3xx_HAL_Driver/Src/stm32f3xx_hal_i2c.c **** 
  19:Drivers/STM32F3xx_HAL_Driver/Src/stm32f3xx_hal_i2c.c ****     (#) Declare a I2C_HandleTypeDef handle structure, for example:
  20:Drivers/STM32F3xx_HAL_Driver/Src/stm32f3xx_hal_i2c.c ****         I2C_HandleTypeDef  hi2c;
  21:Drivers/STM32F3xx_HAL_Driver/Src/stm32f3xx_hal_i2c.c **** 
  22:Drivers/STM32F3xx_HAL_Driver/Src/stm32f3xx_hal_i2c.c ****     (#)Initialize the I2C low level resources by implementing the @ref HAL_I2C_MspInit() API:
  23:Drivers/STM32F3xx_HAL_Driver/Src/stm32f3xx_hal_i2c.c ****         (##) Enable the I2Cx interface clock
  24:Drivers/STM32F3xx_HAL_Driver/Src/stm32f3xx_hal_i2c.c ****         (##) I2C pins configuration
  25:Drivers/STM32F3xx_HAL_Driver/Src/stm32f3xx_hal_i2c.c ****             (+++) Enable the clock for the I2C GPIOs
  26:Drivers/STM32F3xx_HAL_Driver/Src/stm32f3xx_hal_i2c.c ****             (+++) Configure I2C pins as alternate function open-drain
  27:Drivers/STM32F3xx_HAL_Driver/Src/stm32f3xx_hal_i2c.c ****         (##) NVIC configuration if you need to use interrupt process
  28:Drivers/STM32F3xx_HAL_Driver/Src/stm32f3xx_hal_i2c.c ****             (+++) Configure the I2Cx interrupt priority
  29:Drivers/STM32F3xx_HAL_Driver/Src/stm32f3xx_hal_i2c.c ****             (+++) Enable the NVIC I2C IRQ Channel
  30:Drivers/STM32F3xx_HAL_Driver/Src/stm32f3xx_hal_i2c.c ****         (##) DMA Configuration if you need to use DMA process
  31:Drivers/STM32F3xx_HAL_Driver/Src/stm32f3xx_hal_i2c.c ****             (+++) Declare a DMA_HandleTypeDef handle structure for the transmit or receive channel
ARM GAS  /tmp/cc7eKD0K.s 			page 2


  32:Drivers/STM32F3xx_HAL_Driver/Src/stm32f3xx_hal_i2c.c ****             (+++) Enable the DMAx interface clock using
  33:Drivers/STM32F3xx_HAL_Driver/Src/stm32f3xx_hal_i2c.c ****             (+++) Configure the DMA handle parameters
  34:Drivers/STM32F3xx_HAL_Driver/Src/stm32f3xx_hal_i2c.c ****             (+++) Configure the DMA Tx or Rx channel
  35:Drivers/STM32F3xx_HAL_Driver/Src/stm32f3xx_hal_i2c.c ****             (+++) Associate the initialized DMA handle to the hi2c DMA Tx or Rx handle
  36:Drivers/STM32F3xx_HAL_Driver/Src/stm32f3xx_hal_i2c.c ****             (+++) Configure the priority and enable the NVIC for the transfer complete interrupt on
  37:Drivers/STM32F3xx_HAL_Driver/Src/stm32f3xx_hal_i2c.c ****                   the DMA Tx or Rx channel
  38:Drivers/STM32F3xx_HAL_Driver/Src/stm32f3xx_hal_i2c.c **** 
  39:Drivers/STM32F3xx_HAL_Driver/Src/stm32f3xx_hal_i2c.c ****     (#) Configure the Communication Clock Timing, Own Address1, Master Addressing mode, Dual Addres
  40:Drivers/STM32F3xx_HAL_Driver/Src/stm32f3xx_hal_i2c.c ****         Own Address2, Own Address2 Mask, General call and Nostretch mode in the hi2c Init structure
  41:Drivers/STM32F3xx_HAL_Driver/Src/stm32f3xx_hal_i2c.c **** 
  42:Drivers/STM32F3xx_HAL_Driver/Src/stm32f3xx_hal_i2c.c ****     (#) Initialize the I2C registers by calling the @ref HAL_I2C_Init(), configures also the low le
  43:Drivers/STM32F3xx_HAL_Driver/Src/stm32f3xx_hal_i2c.c ****         (GPIO, CLOCK, NVIC...etc) by calling the customized @ref HAL_I2C_MspInit(&hi2c) API.
  44:Drivers/STM32F3xx_HAL_Driver/Src/stm32f3xx_hal_i2c.c **** 
  45:Drivers/STM32F3xx_HAL_Driver/Src/stm32f3xx_hal_i2c.c ****     (#) To check if target device is ready for communication, use the function @ref HAL_I2C_IsDevic
  46:Drivers/STM32F3xx_HAL_Driver/Src/stm32f3xx_hal_i2c.c **** 
  47:Drivers/STM32F3xx_HAL_Driver/Src/stm32f3xx_hal_i2c.c ****     (#) For I2C IO and IO MEM operations, three operation modes are available within this driver :
  48:Drivers/STM32F3xx_HAL_Driver/Src/stm32f3xx_hal_i2c.c **** 
  49:Drivers/STM32F3xx_HAL_Driver/Src/stm32f3xx_hal_i2c.c ****     *** Polling mode IO operation ***
  50:Drivers/STM32F3xx_HAL_Driver/Src/stm32f3xx_hal_i2c.c ****     =================================
  51:Drivers/STM32F3xx_HAL_Driver/Src/stm32f3xx_hal_i2c.c ****     [..]
  52:Drivers/STM32F3xx_HAL_Driver/Src/stm32f3xx_hal_i2c.c ****       (+) Transmit in master mode an amount of data in blocking mode using @ref HAL_I2C_Master_Tran
  53:Drivers/STM32F3xx_HAL_Driver/Src/stm32f3xx_hal_i2c.c ****       (+) Receive in master mode an amount of data in blocking mode using @ref HAL_I2C_Master_Recei
  54:Drivers/STM32F3xx_HAL_Driver/Src/stm32f3xx_hal_i2c.c ****       (+) Transmit in slave mode an amount of data in blocking mode using @ref HAL_I2C_Slave_Transm
  55:Drivers/STM32F3xx_HAL_Driver/Src/stm32f3xx_hal_i2c.c ****       (+) Receive in slave mode an amount of data in blocking mode using @ref HAL_I2C_Slave_Receive
  56:Drivers/STM32F3xx_HAL_Driver/Src/stm32f3xx_hal_i2c.c **** 
  57:Drivers/STM32F3xx_HAL_Driver/Src/stm32f3xx_hal_i2c.c ****     *** Polling mode IO MEM operation ***
  58:Drivers/STM32F3xx_HAL_Driver/Src/stm32f3xx_hal_i2c.c ****     =====================================
  59:Drivers/STM32F3xx_HAL_Driver/Src/stm32f3xx_hal_i2c.c ****     [..]
  60:Drivers/STM32F3xx_HAL_Driver/Src/stm32f3xx_hal_i2c.c ****       (+) Write an amount of data in blocking mode to a specific memory address using @ref HAL_I2C_
  61:Drivers/STM32F3xx_HAL_Driver/Src/stm32f3xx_hal_i2c.c ****       (+) Read an amount of data in blocking mode from a specific memory address using @ref HAL_I2C
  62:Drivers/STM32F3xx_HAL_Driver/Src/stm32f3xx_hal_i2c.c **** 
  63:Drivers/STM32F3xx_HAL_Driver/Src/stm32f3xx_hal_i2c.c **** 
  64:Drivers/STM32F3xx_HAL_Driver/Src/stm32f3xx_hal_i2c.c ****     *** Interrupt mode IO operation ***
  65:Drivers/STM32F3xx_HAL_Driver/Src/stm32f3xx_hal_i2c.c ****     ===================================
  66:Drivers/STM32F3xx_HAL_Driver/Src/stm32f3xx_hal_i2c.c ****     [..]
  67:Drivers/STM32F3xx_HAL_Driver/Src/stm32f3xx_hal_i2c.c ****       (+) Transmit in master mode an amount of data in non-blocking mode using @ref HAL_I2C_Master_
  68:Drivers/STM32F3xx_HAL_Driver/Src/stm32f3xx_hal_i2c.c ****       (+) At transmission end of transfer, @ref HAL_I2C_MasterTxCpltCallback() is executed and user
  69:Drivers/STM32F3xx_HAL_Driver/Src/stm32f3xx_hal_i2c.c ****            add his own code by customization of function pointer @ref HAL_I2C_MasterTxCpltCallback(
  70:Drivers/STM32F3xx_HAL_Driver/Src/stm32f3xx_hal_i2c.c ****       (+) Receive in master mode an amount of data in non-blocking mode using @ref HAL_I2C_Master_R
  71:Drivers/STM32F3xx_HAL_Driver/Src/stm32f3xx_hal_i2c.c ****       (+) At reception end of transfer, @ref HAL_I2C_MasterRxCpltCallback() is executed and user ca
  72:Drivers/STM32F3xx_HAL_Driver/Src/stm32f3xx_hal_i2c.c ****            add his own code by customization of function pointer @ref HAL_I2C_MasterRxCpltCallback(
  73:Drivers/STM32F3xx_HAL_Driver/Src/stm32f3xx_hal_i2c.c ****       (+) Transmit in slave mode an amount of data in non-blocking mode using @ref HAL_I2C_Slave_Tr
  74:Drivers/STM32F3xx_HAL_Driver/Src/stm32f3xx_hal_i2c.c ****       (+) At transmission end of transfer, @ref HAL_I2C_SlaveTxCpltCallback() is executed and user 
  75:Drivers/STM32F3xx_HAL_Driver/Src/stm32f3xx_hal_i2c.c ****            add his own code by customization of function pointer @ref HAL_I2C_SlaveTxCpltCallback()
  76:Drivers/STM32F3xx_HAL_Driver/Src/stm32f3xx_hal_i2c.c ****       (+) Receive in slave mode an amount of data in non-blocking mode using @ref HAL_I2C_Slave_Rec
  77:Drivers/STM32F3xx_HAL_Driver/Src/stm32f3xx_hal_i2c.c ****       (+) At reception end of transfer, @ref HAL_I2C_SlaveRxCpltCallback() is executed and user can
  78:Drivers/STM32F3xx_HAL_Driver/Src/stm32f3xx_hal_i2c.c ****            add his own code by customization of function pointer @ref HAL_I2C_SlaveRxCpltCallback()
  79:Drivers/STM32F3xx_HAL_Driver/Src/stm32f3xx_hal_i2c.c ****       (+) In case of transfer Error, @ref HAL_I2C_ErrorCallback() function is executed and user can
  80:Drivers/STM32F3xx_HAL_Driver/Src/stm32f3xx_hal_i2c.c ****            add his own code by customization of function pointer @ref HAL_I2C_ErrorCallback()
  81:Drivers/STM32F3xx_HAL_Driver/Src/stm32f3xx_hal_i2c.c ****       (+) Abort a master I2C process communication with Interrupt using @ref HAL_I2C_Master_Abort_I
  82:Drivers/STM32F3xx_HAL_Driver/Src/stm32f3xx_hal_i2c.c ****       (+) End of abort process, @ref HAL_I2C_AbortCpltCallback() is executed and user can
  83:Drivers/STM32F3xx_HAL_Driver/Src/stm32f3xx_hal_i2c.c ****            add his own code by customization of function pointer @ref HAL_I2C_AbortCpltCallback()
  84:Drivers/STM32F3xx_HAL_Driver/Src/stm32f3xx_hal_i2c.c ****       (+) Discard a slave I2C process communication using @ref __HAL_I2C_GENERATE_NACK() macro.
  85:Drivers/STM32F3xx_HAL_Driver/Src/stm32f3xx_hal_i2c.c ****            This action will inform Master to generate a Stop condition to discard the communication
  86:Drivers/STM32F3xx_HAL_Driver/Src/stm32f3xx_hal_i2c.c **** 
  87:Drivers/STM32F3xx_HAL_Driver/Src/stm32f3xx_hal_i2c.c **** 
  88:Drivers/STM32F3xx_HAL_Driver/Src/stm32f3xx_hal_i2c.c ****     *** Interrupt mode or DMA mode IO sequential operation ***
ARM GAS  /tmp/cc7eKD0K.s 			page 3


  89:Drivers/STM32F3xx_HAL_Driver/Src/stm32f3xx_hal_i2c.c ****     ==========================================================
  90:Drivers/STM32F3xx_HAL_Driver/Src/stm32f3xx_hal_i2c.c ****     [..]
  91:Drivers/STM32F3xx_HAL_Driver/Src/stm32f3xx_hal_i2c.c ****       (@) These interfaces allow to manage a sequential transfer with a repeated start condition
  92:Drivers/STM32F3xx_HAL_Driver/Src/stm32f3xx_hal_i2c.c ****           when a direction change during transfer
  93:Drivers/STM32F3xx_HAL_Driver/Src/stm32f3xx_hal_i2c.c ****     [..]
  94:Drivers/STM32F3xx_HAL_Driver/Src/stm32f3xx_hal_i2c.c ****       (+) A specific option field manage the different steps of a sequential transfer
  95:Drivers/STM32F3xx_HAL_Driver/Src/stm32f3xx_hal_i2c.c ****       (+) Option field values are defined through @ref I2C_XFEROPTIONS and are listed below:
  96:Drivers/STM32F3xx_HAL_Driver/Src/stm32f3xx_hal_i2c.c ****       (++) I2C_FIRST_AND_LAST_FRAME: No sequential usage, functionnal is same as associated interfa
  97:Drivers/STM32F3xx_HAL_Driver/Src/stm32f3xx_hal_i2c.c ****       (++) I2C_FIRST_FRAME: Sequential usage, this option allow to manage a sequence with start con
  98:Drivers/STM32F3xx_HAL_Driver/Src/stm32f3xx_hal_i2c.c ****                             and data to transfer without a final stop condition
  99:Drivers/STM32F3xx_HAL_Driver/Src/stm32f3xx_hal_i2c.c ****       (++) I2C_FIRST_AND_NEXT_FRAME: Sequential usage (Master only), this option allow to manage a 
 100:Drivers/STM32F3xx_HAL_Driver/Src/stm32f3xx_hal_i2c.c ****                             and data to transfer without a final stop condition, an then permit a c
 101:Drivers/STM32F3xx_HAL_Driver/Src/stm32f3xx_hal_i2c.c ****                             several times (like @ref HAL_I2C_Master_Seq_Transmit_IT() then @ref HAL
 102:Drivers/STM32F3xx_HAL_Driver/Src/stm32f3xx_hal_i2c.c ****                             or @ref HAL_I2C_Master_Seq_Transmit_DMA() then @ref HAL_I2C_Master_Seq_
 103:Drivers/STM32F3xx_HAL_Driver/Src/stm32f3xx_hal_i2c.c ****       (++) I2C_NEXT_FRAME: Sequential usage, this option allow to manage a sequence with a restart 
 104:Drivers/STM32F3xx_HAL_Driver/Src/stm32f3xx_hal_i2c.c ****                             and with new data to transfer if the direction change or manage only th
 105:Drivers/STM32F3xx_HAL_Driver/Src/stm32f3xx_hal_i2c.c ****                             if no direction change and without a final stop condition in both cases
 106:Drivers/STM32F3xx_HAL_Driver/Src/stm32f3xx_hal_i2c.c ****       (++) I2C_LAST_FRAME: Sequential usage, this option allow to manage a sequance with a restart 
 107:Drivers/STM32F3xx_HAL_Driver/Src/stm32f3xx_hal_i2c.c ****                             and with new data to transfer if the direction change or manage only th
 108:Drivers/STM32F3xx_HAL_Driver/Src/stm32f3xx_hal_i2c.c ****                             if no direction change and with a final stop condition in both cases
 109:Drivers/STM32F3xx_HAL_Driver/Src/stm32f3xx_hal_i2c.c ****       (++) I2C_LAST_FRAME_NO_STOP: Sequential usage (Master only), this option allow to manage a re
 110:Drivers/STM32F3xx_HAL_Driver/Src/stm32f3xx_hal_i2c.c ****                             interface several times (link with option I2C_FIRST_AND_NEXT_FRAME).
 111:Drivers/STM32F3xx_HAL_Driver/Src/stm32f3xx_hal_i2c.c ****                             Usage can, transfer several bytes one by one using HAL_I2C_Master_Seq_T
 112:Drivers/STM32F3xx_HAL_Driver/Src/stm32f3xx_hal_i2c.c ****                               or HAL_I2C_Master_Seq_Receive_IT(option I2C_FIRST_AND_NEXT_FRAME then
 113:Drivers/STM32F3xx_HAL_Driver/Src/stm32f3xx_hal_i2c.c ****                               or HAL_I2C_Master_Seq_Transmit_DMA(option I2C_FIRST_AND_NEXT_FRAME th
 114:Drivers/STM32F3xx_HAL_Driver/Src/stm32f3xx_hal_i2c.c ****                               or HAL_I2C_Master_Seq_Receive_DMA(option I2C_FIRST_AND_NEXT_FRAME the
 115:Drivers/STM32F3xx_HAL_Driver/Src/stm32f3xx_hal_i2c.c ****                             Then usage of this option I2C_LAST_FRAME_NO_STOP at the last Transmit o
 116:Drivers/STM32F3xx_HAL_Driver/Src/stm32f3xx_hal_i2c.c ****                               without stopping the communication and so generate a restart conditio
 117:Drivers/STM32F3xx_HAL_Driver/Src/stm32f3xx_hal_i2c.c ****       (++) I2C_OTHER_FRAME: Sequential usage (Master only), this option allow to manage a restart c
 118:Drivers/STM32F3xx_HAL_Driver/Src/stm32f3xx_hal_i2c.c ****                             interface.
 119:Drivers/STM32F3xx_HAL_Driver/Src/stm32f3xx_hal_i2c.c ****                             Usage can, transfer several bytes one by one with a restart with slave 
 120:Drivers/STM32F3xx_HAL_Driver/Src/stm32f3xx_hal_i2c.c ****                               or HAL_I2C_Master_Seq_Receive_IT(option I2C_FIRST_FRAME then I2C_OTHE
 121:Drivers/STM32F3xx_HAL_Driver/Src/stm32f3xx_hal_i2c.c ****                               or HAL_I2C_Master_Seq_Transmit_DMA(option I2C_FIRST_FRAME then I2C_OT
 122:Drivers/STM32F3xx_HAL_Driver/Src/stm32f3xx_hal_i2c.c ****                               or HAL_I2C_Master_Seq_Receive_DMA(option I2C_FIRST_FRAME then I2C_OTH
 123:Drivers/STM32F3xx_HAL_Driver/Src/stm32f3xx_hal_i2c.c ****                             Then usage of this option I2C_OTHER_AND_LAST_FRAME at the last frame to
 124:Drivers/STM32F3xx_HAL_Driver/Src/stm32f3xx_hal_i2c.c **** 
 125:Drivers/STM32F3xx_HAL_Driver/Src/stm32f3xx_hal_i2c.c ****       (+) Differents sequential I2C interfaces are listed below:
 126:Drivers/STM32F3xx_HAL_Driver/Src/stm32f3xx_hal_i2c.c ****       (++) Sequential transmit in master I2C mode an amount of data in non-blocking mode using @ref
 127:Drivers/STM32F3xx_HAL_Driver/Src/stm32f3xx_hal_i2c.c ****             or using @ref HAL_I2C_Master_Seq_Transmit_DMA()
 128:Drivers/STM32F3xx_HAL_Driver/Src/stm32f3xx_hal_i2c.c ****       (+++) At transmission end of current frame transfer, @ref HAL_I2C_MasterTxCpltCallback() is e
 129:Drivers/STM32F3xx_HAL_Driver/Src/stm32f3xx_hal_i2c.c ****            add his own code by customization of function pointer @ref HAL_I2C_MasterTxCpltCallback(
 130:Drivers/STM32F3xx_HAL_Driver/Src/stm32f3xx_hal_i2c.c ****       (++) Sequential receive in master I2C mode an amount of data in non-blocking mode using @ref 
 131:Drivers/STM32F3xx_HAL_Driver/Src/stm32f3xx_hal_i2c.c ****             or using @ref HAL_I2C_Master_Seq_Receive_DMA()
 132:Drivers/STM32F3xx_HAL_Driver/Src/stm32f3xx_hal_i2c.c ****       (+++) At reception end of current frame transfer, @ref HAL_I2C_MasterRxCpltCallback() is exec
 133:Drivers/STM32F3xx_HAL_Driver/Src/stm32f3xx_hal_i2c.c ****            add his own code by customization of function pointer @ref HAL_I2C_MasterRxCpltCallback(
 134:Drivers/STM32F3xx_HAL_Driver/Src/stm32f3xx_hal_i2c.c ****       (++) Abort a master IT or DMA I2C process communication with Interrupt using @ref HAL_I2C_Mas
 135:Drivers/STM32F3xx_HAL_Driver/Src/stm32f3xx_hal_i2c.c ****       (+++) End of abort process, @ref HAL_I2C_AbortCpltCallback() is executed and user can
 136:Drivers/STM32F3xx_HAL_Driver/Src/stm32f3xx_hal_i2c.c ****            add his own code by customization of function pointer @ref HAL_I2C_AbortCpltCallback()
 137:Drivers/STM32F3xx_HAL_Driver/Src/stm32f3xx_hal_i2c.c ****       (++) Enable/disable the Address listen mode in slave I2C mode using @ref HAL_I2C_EnableListen
 138:Drivers/STM32F3xx_HAL_Driver/Src/stm32f3xx_hal_i2c.c ****       (+++) When address slave I2C match, @ref HAL_I2C_AddrCallback() is executed and user can
 139:Drivers/STM32F3xx_HAL_Driver/Src/stm32f3xx_hal_i2c.c ****            add his own code to check the Address Match Code and the transmission direction request 
 140:Drivers/STM32F3xx_HAL_Driver/Src/stm32f3xx_hal_i2c.c ****       (+++) At Listen mode end @ref HAL_I2C_ListenCpltCallback() is executed and user can
 141:Drivers/STM32F3xx_HAL_Driver/Src/stm32f3xx_hal_i2c.c ****            add his own code by customization of function pointer @ref HAL_I2C_ListenCpltCallback()
 142:Drivers/STM32F3xx_HAL_Driver/Src/stm32f3xx_hal_i2c.c ****       (++) Sequential transmit in slave I2C mode an amount of data in non-blocking mode using @ref 
 143:Drivers/STM32F3xx_HAL_Driver/Src/stm32f3xx_hal_i2c.c ****             or using @ref HAL_I2C_Slave_Seq_Transmit_DMA()
 144:Drivers/STM32F3xx_HAL_Driver/Src/stm32f3xx_hal_i2c.c ****       (+++) At transmission end of current frame transfer, @ref HAL_I2C_SlaveTxCpltCallback() is ex
 145:Drivers/STM32F3xx_HAL_Driver/Src/stm32f3xx_hal_i2c.c ****            add his own code by customization of function pointer @ref HAL_I2C_SlaveTxCpltCallback()
ARM GAS  /tmp/cc7eKD0K.s 			page 4


 146:Drivers/STM32F3xx_HAL_Driver/Src/stm32f3xx_hal_i2c.c ****       (++) Sequential receive in slave I2C mode an amount of data in non-blocking mode using @ref H
 147:Drivers/STM32F3xx_HAL_Driver/Src/stm32f3xx_hal_i2c.c ****             or using @ref HAL_I2C_Slave_Seq_Receive_DMA()
 148:Drivers/STM32F3xx_HAL_Driver/Src/stm32f3xx_hal_i2c.c ****       (+++) At reception end of current frame transfer, @ref HAL_I2C_SlaveRxCpltCallback() is execu
 149:Drivers/STM32F3xx_HAL_Driver/Src/stm32f3xx_hal_i2c.c ****            add his own code by customization of function pointer @ref HAL_I2C_SlaveRxCpltCallback()
 150:Drivers/STM32F3xx_HAL_Driver/Src/stm32f3xx_hal_i2c.c ****       (++) In case of transfer Error, @ref HAL_I2C_ErrorCallback() function is executed and user ca
 151:Drivers/STM32F3xx_HAL_Driver/Src/stm32f3xx_hal_i2c.c ****            add his own code by customization of function pointer @ref HAL_I2C_ErrorCallback()
 152:Drivers/STM32F3xx_HAL_Driver/Src/stm32f3xx_hal_i2c.c ****       (++) Discard a slave I2C process communication using @ref __HAL_I2C_GENERATE_NACK() macro.
 153:Drivers/STM32F3xx_HAL_Driver/Src/stm32f3xx_hal_i2c.c ****            This action will inform Master to generate a Stop condition to discard the communication
 154:Drivers/STM32F3xx_HAL_Driver/Src/stm32f3xx_hal_i2c.c **** 
 155:Drivers/STM32F3xx_HAL_Driver/Src/stm32f3xx_hal_i2c.c ****     *** Interrupt mode IO MEM operation ***
 156:Drivers/STM32F3xx_HAL_Driver/Src/stm32f3xx_hal_i2c.c ****     =======================================
 157:Drivers/STM32F3xx_HAL_Driver/Src/stm32f3xx_hal_i2c.c ****     [..]
 158:Drivers/STM32F3xx_HAL_Driver/Src/stm32f3xx_hal_i2c.c ****       (+) Write an amount of data in non-blocking mode with Interrupt to a specific memory address 
 159:Drivers/STM32F3xx_HAL_Driver/Src/stm32f3xx_hal_i2c.c ****           @ref HAL_I2C_Mem_Write_IT()
 160:Drivers/STM32F3xx_HAL_Driver/Src/stm32f3xx_hal_i2c.c ****       (+) At Memory end of write transfer, @ref HAL_I2C_MemTxCpltCallback() is executed and user ca
 161:Drivers/STM32F3xx_HAL_Driver/Src/stm32f3xx_hal_i2c.c ****            add his own code by customization of function pointer @ref HAL_I2C_MemTxCpltCallback()
 162:Drivers/STM32F3xx_HAL_Driver/Src/stm32f3xx_hal_i2c.c ****       (+) Read an amount of data in non-blocking mode with Interrupt from a specific memory address
 163:Drivers/STM32F3xx_HAL_Driver/Src/stm32f3xx_hal_i2c.c ****           @ref HAL_I2C_Mem_Read_IT()
 164:Drivers/STM32F3xx_HAL_Driver/Src/stm32f3xx_hal_i2c.c ****       (+) At Memory end of read transfer, @ref HAL_I2C_MemRxCpltCallback() is executed and user can
 165:Drivers/STM32F3xx_HAL_Driver/Src/stm32f3xx_hal_i2c.c ****            add his own code by customization of function pointer @ref HAL_I2C_MemRxCpltCallback()
 166:Drivers/STM32F3xx_HAL_Driver/Src/stm32f3xx_hal_i2c.c ****       (+) In case of transfer Error, @ref HAL_I2C_ErrorCallback() function is executed and user can
 167:Drivers/STM32F3xx_HAL_Driver/Src/stm32f3xx_hal_i2c.c ****            add his own code by customization of function pointer @ref HAL_I2C_ErrorCallback()
 168:Drivers/STM32F3xx_HAL_Driver/Src/stm32f3xx_hal_i2c.c **** 
 169:Drivers/STM32F3xx_HAL_Driver/Src/stm32f3xx_hal_i2c.c ****     *** DMA mode IO operation ***
 170:Drivers/STM32F3xx_HAL_Driver/Src/stm32f3xx_hal_i2c.c ****     ==============================
 171:Drivers/STM32F3xx_HAL_Driver/Src/stm32f3xx_hal_i2c.c ****     [..]
 172:Drivers/STM32F3xx_HAL_Driver/Src/stm32f3xx_hal_i2c.c ****       (+) Transmit in master mode an amount of data in non-blocking mode (DMA) using
 173:Drivers/STM32F3xx_HAL_Driver/Src/stm32f3xx_hal_i2c.c ****           @ref HAL_I2C_Master_Transmit_DMA()
 174:Drivers/STM32F3xx_HAL_Driver/Src/stm32f3xx_hal_i2c.c ****       (+) At transmission end of transfer, @ref HAL_I2C_MasterTxCpltCallback() is executed and user
 175:Drivers/STM32F3xx_HAL_Driver/Src/stm32f3xx_hal_i2c.c ****            add his own code by customization of function pointer @ref HAL_I2C_MasterTxCpltCallback(
 176:Drivers/STM32F3xx_HAL_Driver/Src/stm32f3xx_hal_i2c.c ****       (+) Receive in master mode an amount of data in non-blocking mode (DMA) using
 177:Drivers/STM32F3xx_HAL_Driver/Src/stm32f3xx_hal_i2c.c ****           @ref HAL_I2C_Master_Receive_DMA()
 178:Drivers/STM32F3xx_HAL_Driver/Src/stm32f3xx_hal_i2c.c ****       (+) At reception end of transfer, @ref HAL_I2C_MasterRxCpltCallback() is executed and user ca
 179:Drivers/STM32F3xx_HAL_Driver/Src/stm32f3xx_hal_i2c.c ****            add his own code by customization of function pointer @ref HAL_I2C_MasterRxCpltCallback(
 180:Drivers/STM32F3xx_HAL_Driver/Src/stm32f3xx_hal_i2c.c ****       (+) Transmit in slave mode an amount of data in non-blocking mode (DMA) using
 181:Drivers/STM32F3xx_HAL_Driver/Src/stm32f3xx_hal_i2c.c ****           @ref HAL_I2C_Slave_Transmit_DMA()
 182:Drivers/STM32F3xx_HAL_Driver/Src/stm32f3xx_hal_i2c.c ****       (+) At transmission end of transfer, @ref HAL_I2C_SlaveTxCpltCallback() is executed and user 
 183:Drivers/STM32F3xx_HAL_Driver/Src/stm32f3xx_hal_i2c.c ****            add his own code by customization of function pointer @ref HAL_I2C_SlaveTxCpltCallback()
 184:Drivers/STM32F3xx_HAL_Driver/Src/stm32f3xx_hal_i2c.c ****       (+) Receive in slave mode an amount of data in non-blocking mode (DMA) using
 185:Drivers/STM32F3xx_HAL_Driver/Src/stm32f3xx_hal_i2c.c ****           @ref HAL_I2C_Slave_Receive_DMA()
 186:Drivers/STM32F3xx_HAL_Driver/Src/stm32f3xx_hal_i2c.c ****       (+) At reception end of transfer, @ref HAL_I2C_SlaveRxCpltCallback() is executed and user can
 187:Drivers/STM32F3xx_HAL_Driver/Src/stm32f3xx_hal_i2c.c ****            add his own code by customization of function pointer @ref HAL_I2C_SlaveRxCpltCallback()
 188:Drivers/STM32F3xx_HAL_Driver/Src/stm32f3xx_hal_i2c.c ****       (+) In case of transfer Error, @ref HAL_I2C_ErrorCallback() function is executed and user can
 189:Drivers/STM32F3xx_HAL_Driver/Src/stm32f3xx_hal_i2c.c ****            add his own code by customization of function pointer @ref HAL_I2C_ErrorCallback()
 190:Drivers/STM32F3xx_HAL_Driver/Src/stm32f3xx_hal_i2c.c ****       (+) Abort a master I2C process communication with Interrupt using @ref HAL_I2C_Master_Abort_I
 191:Drivers/STM32F3xx_HAL_Driver/Src/stm32f3xx_hal_i2c.c ****       (+) End of abort process, @ref HAL_I2C_AbortCpltCallback() is executed and user can
 192:Drivers/STM32F3xx_HAL_Driver/Src/stm32f3xx_hal_i2c.c ****            add his own code by customization of function pointer @ref HAL_I2C_AbortCpltCallback()
 193:Drivers/STM32F3xx_HAL_Driver/Src/stm32f3xx_hal_i2c.c ****       (+) Discard a slave I2C process communication using @ref __HAL_I2C_GENERATE_NACK() macro.
 194:Drivers/STM32F3xx_HAL_Driver/Src/stm32f3xx_hal_i2c.c ****            This action will inform Master to generate a Stop condition to discard the communication
 195:Drivers/STM32F3xx_HAL_Driver/Src/stm32f3xx_hal_i2c.c **** 
 196:Drivers/STM32F3xx_HAL_Driver/Src/stm32f3xx_hal_i2c.c ****     *** DMA mode IO MEM operation ***
 197:Drivers/STM32F3xx_HAL_Driver/Src/stm32f3xx_hal_i2c.c ****     =================================
 198:Drivers/STM32F3xx_HAL_Driver/Src/stm32f3xx_hal_i2c.c ****     [..]
 199:Drivers/STM32F3xx_HAL_Driver/Src/stm32f3xx_hal_i2c.c ****       (+) Write an amount of data in non-blocking mode with DMA to a specific memory address using
 200:Drivers/STM32F3xx_HAL_Driver/Src/stm32f3xx_hal_i2c.c ****           @ref HAL_I2C_Mem_Write_DMA()
 201:Drivers/STM32F3xx_HAL_Driver/Src/stm32f3xx_hal_i2c.c ****       (+) At Memory end of write transfer, @ref HAL_I2C_MemTxCpltCallback() is executed and user ca
 202:Drivers/STM32F3xx_HAL_Driver/Src/stm32f3xx_hal_i2c.c ****            add his own code by customization of function pointer @ref HAL_I2C_MemTxCpltCallback()
ARM GAS  /tmp/cc7eKD0K.s 			page 5


 203:Drivers/STM32F3xx_HAL_Driver/Src/stm32f3xx_hal_i2c.c ****       (+) Read an amount of data in non-blocking mode with DMA from a specific memory address using
 204:Drivers/STM32F3xx_HAL_Driver/Src/stm32f3xx_hal_i2c.c ****           @ref HAL_I2C_Mem_Read_DMA()
 205:Drivers/STM32F3xx_HAL_Driver/Src/stm32f3xx_hal_i2c.c ****       (+) At Memory end of read transfer, @ref HAL_I2C_MemRxCpltCallback() is executed and user can
 206:Drivers/STM32F3xx_HAL_Driver/Src/stm32f3xx_hal_i2c.c ****            add his own code by customization of function pointer @ref HAL_I2C_MemRxCpltCallback()
 207:Drivers/STM32F3xx_HAL_Driver/Src/stm32f3xx_hal_i2c.c ****       (+) In case of transfer Error, @ref HAL_I2C_ErrorCallback() function is executed and user can
 208:Drivers/STM32F3xx_HAL_Driver/Src/stm32f3xx_hal_i2c.c ****            add his own code by customization of function pointer @ref HAL_I2C_ErrorCallback()
 209:Drivers/STM32F3xx_HAL_Driver/Src/stm32f3xx_hal_i2c.c **** 
 210:Drivers/STM32F3xx_HAL_Driver/Src/stm32f3xx_hal_i2c.c **** 
 211:Drivers/STM32F3xx_HAL_Driver/Src/stm32f3xx_hal_i2c.c ****      *** I2C HAL driver macros list ***
 212:Drivers/STM32F3xx_HAL_Driver/Src/stm32f3xx_hal_i2c.c ****      ==================================
 213:Drivers/STM32F3xx_HAL_Driver/Src/stm32f3xx_hal_i2c.c ****      [..]
 214:Drivers/STM32F3xx_HAL_Driver/Src/stm32f3xx_hal_i2c.c ****        Below the list of most used macros in I2C HAL driver.
 215:Drivers/STM32F3xx_HAL_Driver/Src/stm32f3xx_hal_i2c.c **** 
 216:Drivers/STM32F3xx_HAL_Driver/Src/stm32f3xx_hal_i2c.c ****       (+) @ref __HAL_I2C_ENABLE: Enable the I2C peripheral
 217:Drivers/STM32F3xx_HAL_Driver/Src/stm32f3xx_hal_i2c.c ****       (+) @ref __HAL_I2C_DISABLE: Disable the I2C peripheral
 218:Drivers/STM32F3xx_HAL_Driver/Src/stm32f3xx_hal_i2c.c ****       (+) @ref __HAL_I2C_GENERATE_NACK: Generate a Non-Acknowledge I2C peripheral in Slave mode
 219:Drivers/STM32F3xx_HAL_Driver/Src/stm32f3xx_hal_i2c.c ****       (+) @ref __HAL_I2C_GET_FLAG: Check whether the specified I2C flag is set or not
 220:Drivers/STM32F3xx_HAL_Driver/Src/stm32f3xx_hal_i2c.c ****       (+) @ref __HAL_I2C_CLEAR_FLAG: Clear the specified I2C pending flag
 221:Drivers/STM32F3xx_HAL_Driver/Src/stm32f3xx_hal_i2c.c ****       (+) @ref __HAL_I2C_ENABLE_IT: Enable the specified I2C interrupt
 222:Drivers/STM32F3xx_HAL_Driver/Src/stm32f3xx_hal_i2c.c ****       (+) @ref __HAL_I2C_DISABLE_IT: Disable the specified I2C interrupt
 223:Drivers/STM32F3xx_HAL_Driver/Src/stm32f3xx_hal_i2c.c **** 
 224:Drivers/STM32F3xx_HAL_Driver/Src/stm32f3xx_hal_i2c.c ****      *** Callback registration ***
 225:Drivers/STM32F3xx_HAL_Driver/Src/stm32f3xx_hal_i2c.c ****      =============================================
 226:Drivers/STM32F3xx_HAL_Driver/Src/stm32f3xx_hal_i2c.c ****     [..]
 227:Drivers/STM32F3xx_HAL_Driver/Src/stm32f3xx_hal_i2c.c ****      The compilation flag USE_HAL_I2C_REGISTER_CALLBACKS when set to 1
 228:Drivers/STM32F3xx_HAL_Driver/Src/stm32f3xx_hal_i2c.c ****      allows the user to configure dynamically the driver callbacks.
 229:Drivers/STM32F3xx_HAL_Driver/Src/stm32f3xx_hal_i2c.c ****      Use Functions @ref HAL_I2C_RegisterCallback() or @ref HAL_I2C_RegisterAddrCallback()
 230:Drivers/STM32F3xx_HAL_Driver/Src/stm32f3xx_hal_i2c.c ****      to register an interrupt callback.
 231:Drivers/STM32F3xx_HAL_Driver/Src/stm32f3xx_hal_i2c.c ****     [..]
 232:Drivers/STM32F3xx_HAL_Driver/Src/stm32f3xx_hal_i2c.c ****      Function @ref HAL_I2C_RegisterCallback() allows to register following callbacks:
 233:Drivers/STM32F3xx_HAL_Driver/Src/stm32f3xx_hal_i2c.c ****        (+) MasterTxCpltCallback : callback for Master transmission end of transfer.
 234:Drivers/STM32F3xx_HAL_Driver/Src/stm32f3xx_hal_i2c.c ****        (+) MasterRxCpltCallback : callback for Master reception end of transfer.
 235:Drivers/STM32F3xx_HAL_Driver/Src/stm32f3xx_hal_i2c.c ****        (+) SlaveTxCpltCallback  : callback for Slave transmission end of transfer.
 236:Drivers/STM32F3xx_HAL_Driver/Src/stm32f3xx_hal_i2c.c ****        (+) SlaveRxCpltCallback  : callback for Slave reception end of transfer.
 237:Drivers/STM32F3xx_HAL_Driver/Src/stm32f3xx_hal_i2c.c ****        (+) ListenCpltCallback   : callback for end of listen mode.
 238:Drivers/STM32F3xx_HAL_Driver/Src/stm32f3xx_hal_i2c.c ****        (+) MemTxCpltCallback    : callback for Memory transmission end of transfer.
 239:Drivers/STM32F3xx_HAL_Driver/Src/stm32f3xx_hal_i2c.c ****        (+) MemRxCpltCallback    : callback for Memory reception end of transfer.
 240:Drivers/STM32F3xx_HAL_Driver/Src/stm32f3xx_hal_i2c.c ****        (+) ErrorCallback        : callback for error detection.
 241:Drivers/STM32F3xx_HAL_Driver/Src/stm32f3xx_hal_i2c.c ****        (+) AbortCpltCallback    : callback for abort completion process.
 242:Drivers/STM32F3xx_HAL_Driver/Src/stm32f3xx_hal_i2c.c ****        (+) MspInitCallback      : callback for Msp Init.
 243:Drivers/STM32F3xx_HAL_Driver/Src/stm32f3xx_hal_i2c.c ****        (+) MspDeInitCallback    : callback for Msp DeInit.
 244:Drivers/STM32F3xx_HAL_Driver/Src/stm32f3xx_hal_i2c.c ****      This function takes as parameters the HAL peripheral handle, the Callback ID
 245:Drivers/STM32F3xx_HAL_Driver/Src/stm32f3xx_hal_i2c.c ****      and a pointer to the user callback function.
 246:Drivers/STM32F3xx_HAL_Driver/Src/stm32f3xx_hal_i2c.c ****     [..]
 247:Drivers/STM32F3xx_HAL_Driver/Src/stm32f3xx_hal_i2c.c ****      For specific callback AddrCallback use dedicated register callbacks : @ref HAL_I2C_RegisterAdd
 248:Drivers/STM32F3xx_HAL_Driver/Src/stm32f3xx_hal_i2c.c ****     [..]
 249:Drivers/STM32F3xx_HAL_Driver/Src/stm32f3xx_hal_i2c.c ****      Use function @ref HAL_I2C_UnRegisterCallback to reset a callback to the default
 250:Drivers/STM32F3xx_HAL_Driver/Src/stm32f3xx_hal_i2c.c ****      weak function.
 251:Drivers/STM32F3xx_HAL_Driver/Src/stm32f3xx_hal_i2c.c ****      @ref HAL_I2C_UnRegisterCallback takes as parameters the HAL peripheral handle,
 252:Drivers/STM32F3xx_HAL_Driver/Src/stm32f3xx_hal_i2c.c ****      and the Callback ID.
 253:Drivers/STM32F3xx_HAL_Driver/Src/stm32f3xx_hal_i2c.c ****      This function allows to reset following callbacks:
 254:Drivers/STM32F3xx_HAL_Driver/Src/stm32f3xx_hal_i2c.c ****        (+) MasterTxCpltCallback : callback for Master transmission end of transfer.
 255:Drivers/STM32F3xx_HAL_Driver/Src/stm32f3xx_hal_i2c.c ****        (+) MasterRxCpltCallback : callback for Master reception end of transfer.
 256:Drivers/STM32F3xx_HAL_Driver/Src/stm32f3xx_hal_i2c.c ****        (+) SlaveTxCpltCallback  : callback for Slave transmission end of transfer.
 257:Drivers/STM32F3xx_HAL_Driver/Src/stm32f3xx_hal_i2c.c ****        (+) SlaveRxCpltCallback  : callback for Slave reception end of transfer.
 258:Drivers/STM32F3xx_HAL_Driver/Src/stm32f3xx_hal_i2c.c ****        (+) ListenCpltCallback   : callback for end of listen mode.
 259:Drivers/STM32F3xx_HAL_Driver/Src/stm32f3xx_hal_i2c.c ****        (+) MemTxCpltCallback    : callback for Memory transmission end of transfer.
ARM GAS  /tmp/cc7eKD0K.s 			page 6


 260:Drivers/STM32F3xx_HAL_Driver/Src/stm32f3xx_hal_i2c.c ****        (+) MemRxCpltCallback    : callback for Memory reception end of transfer.
 261:Drivers/STM32F3xx_HAL_Driver/Src/stm32f3xx_hal_i2c.c ****        (+) ErrorCallback        : callback for error detection.
 262:Drivers/STM32F3xx_HAL_Driver/Src/stm32f3xx_hal_i2c.c ****        (+) AbortCpltCallback    : callback for abort completion process.
 263:Drivers/STM32F3xx_HAL_Driver/Src/stm32f3xx_hal_i2c.c ****        (+) MspInitCallback      : callback for Msp Init.
 264:Drivers/STM32F3xx_HAL_Driver/Src/stm32f3xx_hal_i2c.c ****        (+) MspDeInitCallback    : callback for Msp DeInit.
 265:Drivers/STM32F3xx_HAL_Driver/Src/stm32f3xx_hal_i2c.c ****     [..]
 266:Drivers/STM32F3xx_HAL_Driver/Src/stm32f3xx_hal_i2c.c ****      For callback AddrCallback use dedicated register callbacks : @ref HAL_I2C_UnRegisterAddrCallba
 267:Drivers/STM32F3xx_HAL_Driver/Src/stm32f3xx_hal_i2c.c ****     [..]
 268:Drivers/STM32F3xx_HAL_Driver/Src/stm32f3xx_hal_i2c.c ****      By default, after the @ref HAL_I2C_Init() and when the state is @ref HAL_I2C_STATE_RESET
 269:Drivers/STM32F3xx_HAL_Driver/Src/stm32f3xx_hal_i2c.c ****      all callbacks are set to the corresponding weak functions:
 270:Drivers/STM32F3xx_HAL_Driver/Src/stm32f3xx_hal_i2c.c ****      examples @ref HAL_I2C_MasterTxCpltCallback(), @ref HAL_I2C_MasterRxCpltCallback().
 271:Drivers/STM32F3xx_HAL_Driver/Src/stm32f3xx_hal_i2c.c ****      Exception done for MspInit and MspDeInit functions that are
 272:Drivers/STM32F3xx_HAL_Driver/Src/stm32f3xx_hal_i2c.c ****      reset to the legacy weak functions in the @ref HAL_I2C_Init()/ @ref HAL_I2C_DeInit() only when
 273:Drivers/STM32F3xx_HAL_Driver/Src/stm32f3xx_hal_i2c.c ****      these callbacks are null (not registered beforehand).
 274:Drivers/STM32F3xx_HAL_Driver/Src/stm32f3xx_hal_i2c.c ****      If MspInit or MspDeInit are not null, the @ref HAL_I2C_Init()/ @ref HAL_I2C_DeInit()
 275:Drivers/STM32F3xx_HAL_Driver/Src/stm32f3xx_hal_i2c.c ****      keep and use the user MspInit/MspDeInit callbacks (registered beforehand) whatever the state.
 276:Drivers/STM32F3xx_HAL_Driver/Src/stm32f3xx_hal_i2c.c ****     [..]
 277:Drivers/STM32F3xx_HAL_Driver/Src/stm32f3xx_hal_i2c.c ****      Callbacks can be registered/unregistered in @ref HAL_I2C_STATE_READY state only.
 278:Drivers/STM32F3xx_HAL_Driver/Src/stm32f3xx_hal_i2c.c ****      Exception done MspInit/MspDeInit functions that can be registered/unregistered
 279:Drivers/STM32F3xx_HAL_Driver/Src/stm32f3xx_hal_i2c.c ****      in @ref HAL_I2C_STATE_READY or @ref HAL_I2C_STATE_RESET state,
 280:Drivers/STM32F3xx_HAL_Driver/Src/stm32f3xx_hal_i2c.c ****      thus registered (user) MspInit/DeInit callbacks can be used during the Init/DeInit.
 281:Drivers/STM32F3xx_HAL_Driver/Src/stm32f3xx_hal_i2c.c ****      Then, the user first registers the MspInit/MspDeInit user callbacks
 282:Drivers/STM32F3xx_HAL_Driver/Src/stm32f3xx_hal_i2c.c ****      using @ref HAL_I2C_RegisterCallback() before calling @ref HAL_I2C_DeInit()
 283:Drivers/STM32F3xx_HAL_Driver/Src/stm32f3xx_hal_i2c.c ****      or @ref HAL_I2C_Init() function.
 284:Drivers/STM32F3xx_HAL_Driver/Src/stm32f3xx_hal_i2c.c ****     [..]
 285:Drivers/STM32F3xx_HAL_Driver/Src/stm32f3xx_hal_i2c.c ****      When the compilation flag USE_HAL_I2C_REGISTER_CALLBACKS is set to 0 or
 286:Drivers/STM32F3xx_HAL_Driver/Src/stm32f3xx_hal_i2c.c ****      not defined, the callback registration feature is not available and all callbacks
 287:Drivers/STM32F3xx_HAL_Driver/Src/stm32f3xx_hal_i2c.c ****      are set to the corresponding weak functions.
 288:Drivers/STM32F3xx_HAL_Driver/Src/stm32f3xx_hal_i2c.c **** 
 289:Drivers/STM32F3xx_HAL_Driver/Src/stm32f3xx_hal_i2c.c ****      [..]
 290:Drivers/STM32F3xx_HAL_Driver/Src/stm32f3xx_hal_i2c.c ****        (@) You can refer to the I2C HAL driver header file for more useful macros
 291:Drivers/STM32F3xx_HAL_Driver/Src/stm32f3xx_hal_i2c.c **** 
 292:Drivers/STM32F3xx_HAL_Driver/Src/stm32f3xx_hal_i2c.c ****   @endverbatim
 293:Drivers/STM32F3xx_HAL_Driver/Src/stm32f3xx_hal_i2c.c ****   ******************************************************************************
 294:Drivers/STM32F3xx_HAL_Driver/Src/stm32f3xx_hal_i2c.c ****   * @attention
 295:Drivers/STM32F3xx_HAL_Driver/Src/stm32f3xx_hal_i2c.c ****   *
 296:Drivers/STM32F3xx_HAL_Driver/Src/stm32f3xx_hal_i2c.c ****   * <h2><center>&copy; Copyright (c) 2016 STMicroelectronics.
 297:Drivers/STM32F3xx_HAL_Driver/Src/stm32f3xx_hal_i2c.c ****   * All rights reserved.</center></h2>
 298:Drivers/STM32F3xx_HAL_Driver/Src/stm32f3xx_hal_i2c.c ****   *
 299:Drivers/STM32F3xx_HAL_Driver/Src/stm32f3xx_hal_i2c.c ****   * This software component is licensed by ST under BSD 3-Clause license,
 300:Drivers/STM32F3xx_HAL_Driver/Src/stm32f3xx_hal_i2c.c ****   * the "License"; You may not use this file except in compliance with the
 301:Drivers/STM32F3xx_HAL_Driver/Src/stm32f3xx_hal_i2c.c ****   * License. You may obtain a copy of the License at:
 302:Drivers/STM32F3xx_HAL_Driver/Src/stm32f3xx_hal_i2c.c ****   *                        opensource.org/licenses/BSD-3-Clause
 303:Drivers/STM32F3xx_HAL_Driver/Src/stm32f3xx_hal_i2c.c ****   *
 304:Drivers/STM32F3xx_HAL_Driver/Src/stm32f3xx_hal_i2c.c ****   ******************************************************************************
 305:Drivers/STM32F3xx_HAL_Driver/Src/stm32f3xx_hal_i2c.c ****   */
 306:Drivers/STM32F3xx_HAL_Driver/Src/stm32f3xx_hal_i2c.c **** 
 307:Drivers/STM32F3xx_HAL_Driver/Src/stm32f3xx_hal_i2c.c **** /* Includes ------------------------------------------------------------------*/
 308:Drivers/STM32F3xx_HAL_Driver/Src/stm32f3xx_hal_i2c.c **** #include "stm32f3xx_hal.h"
 309:Drivers/STM32F3xx_HAL_Driver/Src/stm32f3xx_hal_i2c.c **** 
 310:Drivers/STM32F3xx_HAL_Driver/Src/stm32f3xx_hal_i2c.c **** /** @addtogroup STM32F3xx_HAL_Driver
 311:Drivers/STM32F3xx_HAL_Driver/Src/stm32f3xx_hal_i2c.c ****   * @{
 312:Drivers/STM32F3xx_HAL_Driver/Src/stm32f3xx_hal_i2c.c ****   */
 313:Drivers/STM32F3xx_HAL_Driver/Src/stm32f3xx_hal_i2c.c **** 
 314:Drivers/STM32F3xx_HAL_Driver/Src/stm32f3xx_hal_i2c.c **** /** @defgroup I2C I2C
 315:Drivers/STM32F3xx_HAL_Driver/Src/stm32f3xx_hal_i2c.c ****   * @brief I2C HAL module driver
 316:Drivers/STM32F3xx_HAL_Driver/Src/stm32f3xx_hal_i2c.c ****   * @{
ARM GAS  /tmp/cc7eKD0K.s 			page 7


 317:Drivers/STM32F3xx_HAL_Driver/Src/stm32f3xx_hal_i2c.c ****   */
 318:Drivers/STM32F3xx_HAL_Driver/Src/stm32f3xx_hal_i2c.c **** 
 319:Drivers/STM32F3xx_HAL_Driver/Src/stm32f3xx_hal_i2c.c **** #ifdef HAL_I2C_MODULE_ENABLED
 320:Drivers/STM32F3xx_HAL_Driver/Src/stm32f3xx_hal_i2c.c **** 
 321:Drivers/STM32F3xx_HAL_Driver/Src/stm32f3xx_hal_i2c.c **** /* Private typedef -----------------------------------------------------------*/
 322:Drivers/STM32F3xx_HAL_Driver/Src/stm32f3xx_hal_i2c.c **** /* Private define ------------------------------------------------------------*/
 323:Drivers/STM32F3xx_HAL_Driver/Src/stm32f3xx_hal_i2c.c **** 
 324:Drivers/STM32F3xx_HAL_Driver/Src/stm32f3xx_hal_i2c.c **** /** @defgroup I2C_Private_Define I2C Private Define
 325:Drivers/STM32F3xx_HAL_Driver/Src/stm32f3xx_hal_i2c.c ****   * @{
 326:Drivers/STM32F3xx_HAL_Driver/Src/stm32f3xx_hal_i2c.c ****   */
 327:Drivers/STM32F3xx_HAL_Driver/Src/stm32f3xx_hal_i2c.c **** #define TIMING_CLEAR_MASK   (0xF0FFFFFFU)  /*!< I2C TIMING clear register Mask */
 328:Drivers/STM32F3xx_HAL_Driver/Src/stm32f3xx_hal_i2c.c **** #define I2C_TIMEOUT_ADDR    (10000U)       /*!< 10 s  */
 329:Drivers/STM32F3xx_HAL_Driver/Src/stm32f3xx_hal_i2c.c **** #define I2C_TIMEOUT_BUSY    (25U)          /*!< 25 ms */
 330:Drivers/STM32F3xx_HAL_Driver/Src/stm32f3xx_hal_i2c.c **** #define I2C_TIMEOUT_DIR     (25U)          /*!< 25 ms */
 331:Drivers/STM32F3xx_HAL_Driver/Src/stm32f3xx_hal_i2c.c **** #define I2C_TIMEOUT_RXNE    (25U)          /*!< 25 ms */
 332:Drivers/STM32F3xx_HAL_Driver/Src/stm32f3xx_hal_i2c.c **** #define I2C_TIMEOUT_STOPF   (25U)          /*!< 25 ms */
 333:Drivers/STM32F3xx_HAL_Driver/Src/stm32f3xx_hal_i2c.c **** #define I2C_TIMEOUT_TC      (25U)          /*!< 25 ms */
 334:Drivers/STM32F3xx_HAL_Driver/Src/stm32f3xx_hal_i2c.c **** #define I2C_TIMEOUT_TCR     (25U)          /*!< 25 ms */
 335:Drivers/STM32F3xx_HAL_Driver/Src/stm32f3xx_hal_i2c.c **** #define I2C_TIMEOUT_TXIS    (25U)          /*!< 25 ms */
 336:Drivers/STM32F3xx_HAL_Driver/Src/stm32f3xx_hal_i2c.c **** #define I2C_TIMEOUT_FLAG    (25U)          /*!< 25 ms */
 337:Drivers/STM32F3xx_HAL_Driver/Src/stm32f3xx_hal_i2c.c **** 
 338:Drivers/STM32F3xx_HAL_Driver/Src/stm32f3xx_hal_i2c.c **** #define MAX_NBYTE_SIZE      255U
 339:Drivers/STM32F3xx_HAL_Driver/Src/stm32f3xx_hal_i2c.c **** #define SlaveAddr_SHIFT     7U
 340:Drivers/STM32F3xx_HAL_Driver/Src/stm32f3xx_hal_i2c.c **** #define SlaveAddr_MSK       0x06U
 341:Drivers/STM32F3xx_HAL_Driver/Src/stm32f3xx_hal_i2c.c **** 
 342:Drivers/STM32F3xx_HAL_Driver/Src/stm32f3xx_hal_i2c.c **** /* Private define for @ref PreviousState usage */
 343:Drivers/STM32F3xx_HAL_Driver/Src/stm32f3xx_hal_i2c.c **** #define I2C_STATE_MSK             ((uint32_t)((uint32_t)((uint32_t)HAL_I2C_STATE_BUSY_TX | (uint32_
 344:Drivers/STM32F3xx_HAL_Driver/Src/stm32f3xx_hal_i2c.c **** #define I2C_STATE_NONE            ((uint32_t)(HAL_I2C_MODE_NONE))                                  
 345:Drivers/STM32F3xx_HAL_Driver/Src/stm32f3xx_hal_i2c.c **** #define I2C_STATE_MASTER_BUSY_TX  ((uint32_t)(((uint32_t)HAL_I2C_STATE_BUSY_TX & I2C_STATE_MSK) | (
 346:Drivers/STM32F3xx_HAL_Driver/Src/stm32f3xx_hal_i2c.c **** #define I2C_STATE_MASTER_BUSY_RX  ((uint32_t)(((uint32_t)HAL_I2C_STATE_BUSY_RX & I2C_STATE_MSK) | (
 347:Drivers/STM32F3xx_HAL_Driver/Src/stm32f3xx_hal_i2c.c **** #define I2C_STATE_SLAVE_BUSY_TX   ((uint32_t)(((uint32_t)HAL_I2C_STATE_BUSY_TX & I2C_STATE_MSK) | (
 348:Drivers/STM32F3xx_HAL_Driver/Src/stm32f3xx_hal_i2c.c **** #define I2C_STATE_SLAVE_BUSY_RX   ((uint32_t)(((uint32_t)HAL_I2C_STATE_BUSY_RX & I2C_STATE_MSK) | (
 349:Drivers/STM32F3xx_HAL_Driver/Src/stm32f3xx_hal_i2c.c **** #define I2C_STATE_MEM_BUSY_TX     ((uint32_t)(((uint32_t)HAL_I2C_STATE_BUSY_TX & I2C_STATE_MSK) | (
 350:Drivers/STM32F3xx_HAL_Driver/Src/stm32f3xx_hal_i2c.c **** #define I2C_STATE_MEM_BUSY_RX     ((uint32_t)(((uint32_t)HAL_I2C_STATE_BUSY_RX & I2C_STATE_MSK) | (
 351:Drivers/STM32F3xx_HAL_Driver/Src/stm32f3xx_hal_i2c.c **** 
 352:Drivers/STM32F3xx_HAL_Driver/Src/stm32f3xx_hal_i2c.c **** 
 353:Drivers/STM32F3xx_HAL_Driver/Src/stm32f3xx_hal_i2c.c **** /* Private define to centralize the enable/disable of Interrupts */
 354:Drivers/STM32F3xx_HAL_Driver/Src/stm32f3xx_hal_i2c.c **** #define I2C_XFER_TX_IT          (0x00000001U)
 355:Drivers/STM32F3xx_HAL_Driver/Src/stm32f3xx_hal_i2c.c **** #define I2C_XFER_RX_IT          (0x00000002U)
 356:Drivers/STM32F3xx_HAL_Driver/Src/stm32f3xx_hal_i2c.c **** #define I2C_XFER_LISTEN_IT      (0x00000004U)
 357:Drivers/STM32F3xx_HAL_Driver/Src/stm32f3xx_hal_i2c.c **** 
 358:Drivers/STM32F3xx_HAL_Driver/Src/stm32f3xx_hal_i2c.c **** #define I2C_XFER_ERROR_IT       (0x00000011U)
 359:Drivers/STM32F3xx_HAL_Driver/Src/stm32f3xx_hal_i2c.c **** #define I2C_XFER_CPLT_IT        (0x00000012U)
 360:Drivers/STM32F3xx_HAL_Driver/Src/stm32f3xx_hal_i2c.c **** #define I2C_XFER_RELOAD_IT      (0x00000012U)
 361:Drivers/STM32F3xx_HAL_Driver/Src/stm32f3xx_hal_i2c.c **** 
 362:Drivers/STM32F3xx_HAL_Driver/Src/stm32f3xx_hal_i2c.c **** /* Private define Sequential Transfer Options default/reset value */
 363:Drivers/STM32F3xx_HAL_Driver/Src/stm32f3xx_hal_i2c.c **** #define I2C_NO_OPTION_FRAME     (0xFFFF0000U)
 364:Drivers/STM32F3xx_HAL_Driver/Src/stm32f3xx_hal_i2c.c **** /**
 365:Drivers/STM32F3xx_HAL_Driver/Src/stm32f3xx_hal_i2c.c ****   * @}
 366:Drivers/STM32F3xx_HAL_Driver/Src/stm32f3xx_hal_i2c.c ****   */
 367:Drivers/STM32F3xx_HAL_Driver/Src/stm32f3xx_hal_i2c.c **** 
 368:Drivers/STM32F3xx_HAL_Driver/Src/stm32f3xx_hal_i2c.c **** /* Private macro -------------------------------------------------------------*/
 369:Drivers/STM32F3xx_HAL_Driver/Src/stm32f3xx_hal_i2c.c **** /* Private variables ---------------------------------------------------------*/
 370:Drivers/STM32F3xx_HAL_Driver/Src/stm32f3xx_hal_i2c.c **** /* Private function prototypes -----------------------------------------------*/
 371:Drivers/STM32F3xx_HAL_Driver/Src/stm32f3xx_hal_i2c.c **** 
 372:Drivers/STM32F3xx_HAL_Driver/Src/stm32f3xx_hal_i2c.c **** /** @defgroup I2C_Private_Functions I2C Private Functions
 373:Drivers/STM32F3xx_HAL_Driver/Src/stm32f3xx_hal_i2c.c ****   * @{
ARM GAS  /tmp/cc7eKD0K.s 			page 8


 374:Drivers/STM32F3xx_HAL_Driver/Src/stm32f3xx_hal_i2c.c ****   */
 375:Drivers/STM32F3xx_HAL_Driver/Src/stm32f3xx_hal_i2c.c **** /* Private functions to handle DMA transfer */
 376:Drivers/STM32F3xx_HAL_Driver/Src/stm32f3xx_hal_i2c.c **** static void I2C_DMAMasterTransmitCplt(DMA_HandleTypeDef *hdma);
 377:Drivers/STM32F3xx_HAL_Driver/Src/stm32f3xx_hal_i2c.c **** static void I2C_DMAMasterReceiveCplt(DMA_HandleTypeDef *hdma);
 378:Drivers/STM32F3xx_HAL_Driver/Src/stm32f3xx_hal_i2c.c **** static void I2C_DMASlaveTransmitCplt(DMA_HandleTypeDef *hdma);
 379:Drivers/STM32F3xx_HAL_Driver/Src/stm32f3xx_hal_i2c.c **** static void I2C_DMASlaveReceiveCplt(DMA_HandleTypeDef *hdma);
 380:Drivers/STM32F3xx_HAL_Driver/Src/stm32f3xx_hal_i2c.c **** static void I2C_DMAError(DMA_HandleTypeDef *hdma);
 381:Drivers/STM32F3xx_HAL_Driver/Src/stm32f3xx_hal_i2c.c **** static void I2C_DMAAbort(DMA_HandleTypeDef *hdma);
 382:Drivers/STM32F3xx_HAL_Driver/Src/stm32f3xx_hal_i2c.c **** 
 383:Drivers/STM32F3xx_HAL_Driver/Src/stm32f3xx_hal_i2c.c **** /* Private functions to handle IT transfer */
 384:Drivers/STM32F3xx_HAL_Driver/Src/stm32f3xx_hal_i2c.c **** static void I2C_ITAddrCplt(I2C_HandleTypeDef *hi2c, uint32_t ITFlags);
 385:Drivers/STM32F3xx_HAL_Driver/Src/stm32f3xx_hal_i2c.c **** static void I2C_ITMasterSeqCplt(I2C_HandleTypeDef *hi2c);
 386:Drivers/STM32F3xx_HAL_Driver/Src/stm32f3xx_hal_i2c.c **** static void I2C_ITSlaveSeqCplt(I2C_HandleTypeDef *hi2c);
 387:Drivers/STM32F3xx_HAL_Driver/Src/stm32f3xx_hal_i2c.c **** static void I2C_ITMasterCplt(I2C_HandleTypeDef *hi2c, uint32_t ITFlags);
 388:Drivers/STM32F3xx_HAL_Driver/Src/stm32f3xx_hal_i2c.c **** static void I2C_ITSlaveCplt(I2C_HandleTypeDef *hi2c, uint32_t ITFlags);
 389:Drivers/STM32F3xx_HAL_Driver/Src/stm32f3xx_hal_i2c.c **** static void I2C_ITListenCplt(I2C_HandleTypeDef *hi2c, uint32_t ITFlags);
 390:Drivers/STM32F3xx_HAL_Driver/Src/stm32f3xx_hal_i2c.c **** static void I2C_ITError(I2C_HandleTypeDef *hi2c, uint32_t ErrorCode);
 391:Drivers/STM32F3xx_HAL_Driver/Src/stm32f3xx_hal_i2c.c **** 
 392:Drivers/STM32F3xx_HAL_Driver/Src/stm32f3xx_hal_i2c.c **** /* Private functions to handle IT transfer */
 393:Drivers/STM32F3xx_HAL_Driver/Src/stm32f3xx_hal_i2c.c **** static HAL_StatusTypeDef I2C_RequestMemoryWrite(I2C_HandleTypeDef *hi2c, uint16_t DevAddress, uint1
 394:Drivers/STM32F3xx_HAL_Driver/Src/stm32f3xx_hal_i2c.c **** static HAL_StatusTypeDef I2C_RequestMemoryRead(I2C_HandleTypeDef *hi2c, uint16_t DevAddress, uint16
 395:Drivers/STM32F3xx_HAL_Driver/Src/stm32f3xx_hal_i2c.c **** 
 396:Drivers/STM32F3xx_HAL_Driver/Src/stm32f3xx_hal_i2c.c **** /* Private functions for I2C transfer IRQ handler */
 397:Drivers/STM32F3xx_HAL_Driver/Src/stm32f3xx_hal_i2c.c **** static HAL_StatusTypeDef I2C_Master_ISR_IT(struct __I2C_HandleTypeDef *hi2c, uint32_t ITFlags, uint
 398:Drivers/STM32F3xx_HAL_Driver/Src/stm32f3xx_hal_i2c.c **** static HAL_StatusTypeDef I2C_Slave_ISR_IT(struct __I2C_HandleTypeDef *hi2c, uint32_t ITFlags, uint3
 399:Drivers/STM32F3xx_HAL_Driver/Src/stm32f3xx_hal_i2c.c **** static HAL_StatusTypeDef I2C_Master_ISR_DMA(struct __I2C_HandleTypeDef *hi2c, uint32_t ITFlags, uin
 400:Drivers/STM32F3xx_HAL_Driver/Src/stm32f3xx_hal_i2c.c **** static HAL_StatusTypeDef I2C_Slave_ISR_DMA(struct __I2C_HandleTypeDef *hi2c, uint32_t ITFlags, uint
 401:Drivers/STM32F3xx_HAL_Driver/Src/stm32f3xx_hal_i2c.c **** 
 402:Drivers/STM32F3xx_HAL_Driver/Src/stm32f3xx_hal_i2c.c **** /* Private functions to handle flags during polling transfer */
 403:Drivers/STM32F3xx_HAL_Driver/Src/stm32f3xx_hal_i2c.c **** static HAL_StatusTypeDef I2C_WaitOnFlagUntilTimeout(I2C_HandleTypeDef *hi2c, uint32_t Flag, FlagSta
 404:Drivers/STM32F3xx_HAL_Driver/Src/stm32f3xx_hal_i2c.c **** static HAL_StatusTypeDef I2C_WaitOnTXISFlagUntilTimeout(I2C_HandleTypeDef *hi2c, uint32_t Timeout, 
 405:Drivers/STM32F3xx_HAL_Driver/Src/stm32f3xx_hal_i2c.c **** static HAL_StatusTypeDef I2C_WaitOnRXNEFlagUntilTimeout(I2C_HandleTypeDef *hi2c, uint32_t Timeout, 
 406:Drivers/STM32F3xx_HAL_Driver/Src/stm32f3xx_hal_i2c.c **** static HAL_StatusTypeDef I2C_WaitOnSTOPFlagUntilTimeout(I2C_HandleTypeDef *hi2c, uint32_t Timeout, 
 407:Drivers/STM32F3xx_HAL_Driver/Src/stm32f3xx_hal_i2c.c **** static HAL_StatusTypeDef I2C_IsAcknowledgeFailed(I2C_HandleTypeDef *hi2c, uint32_t Timeout, uint32_
 408:Drivers/STM32F3xx_HAL_Driver/Src/stm32f3xx_hal_i2c.c **** 
 409:Drivers/STM32F3xx_HAL_Driver/Src/stm32f3xx_hal_i2c.c **** /* Private functions to centralize the enable/disable of Interrupts */
 410:Drivers/STM32F3xx_HAL_Driver/Src/stm32f3xx_hal_i2c.c **** static void I2C_Enable_IRQ(I2C_HandleTypeDef *hi2c, uint16_t InterruptRequest);
 411:Drivers/STM32F3xx_HAL_Driver/Src/stm32f3xx_hal_i2c.c **** static void I2C_Disable_IRQ(I2C_HandleTypeDef *hi2c, uint16_t InterruptRequest);
 412:Drivers/STM32F3xx_HAL_Driver/Src/stm32f3xx_hal_i2c.c **** 
 413:Drivers/STM32F3xx_HAL_Driver/Src/stm32f3xx_hal_i2c.c **** /* Private function to flush TXDR register */
 414:Drivers/STM32F3xx_HAL_Driver/Src/stm32f3xx_hal_i2c.c **** static void I2C_Flush_TXDR(I2C_HandleTypeDef *hi2c);
 415:Drivers/STM32F3xx_HAL_Driver/Src/stm32f3xx_hal_i2c.c **** 
 416:Drivers/STM32F3xx_HAL_Driver/Src/stm32f3xx_hal_i2c.c **** /* Private function to handle  start, restart or stop a transfer */
 417:Drivers/STM32F3xx_HAL_Driver/Src/stm32f3xx_hal_i2c.c **** static void I2C_TransferConfig(I2C_HandleTypeDef *hi2c, uint16_t DevAddress, uint8_t Size, uint32_t
 418:Drivers/STM32F3xx_HAL_Driver/Src/stm32f3xx_hal_i2c.c **** 
 419:Drivers/STM32F3xx_HAL_Driver/Src/stm32f3xx_hal_i2c.c **** /* Private function to Convert Specific options */
 420:Drivers/STM32F3xx_HAL_Driver/Src/stm32f3xx_hal_i2c.c **** static void I2C_ConvertOtherXferOptions(I2C_HandleTypeDef *hi2c);
 421:Drivers/STM32F3xx_HAL_Driver/Src/stm32f3xx_hal_i2c.c **** /**
 422:Drivers/STM32F3xx_HAL_Driver/Src/stm32f3xx_hal_i2c.c ****   * @}
 423:Drivers/STM32F3xx_HAL_Driver/Src/stm32f3xx_hal_i2c.c ****   */
 424:Drivers/STM32F3xx_HAL_Driver/Src/stm32f3xx_hal_i2c.c **** 
 425:Drivers/STM32F3xx_HAL_Driver/Src/stm32f3xx_hal_i2c.c **** /* Exported functions --------------------------------------------------------*/
 426:Drivers/STM32F3xx_HAL_Driver/Src/stm32f3xx_hal_i2c.c **** 
 427:Drivers/STM32F3xx_HAL_Driver/Src/stm32f3xx_hal_i2c.c **** /** @defgroup I2C_Exported_Functions I2C Exported Functions
 428:Drivers/STM32F3xx_HAL_Driver/Src/stm32f3xx_hal_i2c.c ****   * @{
 429:Drivers/STM32F3xx_HAL_Driver/Src/stm32f3xx_hal_i2c.c ****   */
 430:Drivers/STM32F3xx_HAL_Driver/Src/stm32f3xx_hal_i2c.c **** 
ARM GAS  /tmp/cc7eKD0K.s 			page 9


 431:Drivers/STM32F3xx_HAL_Driver/Src/stm32f3xx_hal_i2c.c **** /** @defgroup I2C_Exported_Functions_Group1 Initialization and de-initialization functions
 432:Drivers/STM32F3xx_HAL_Driver/Src/stm32f3xx_hal_i2c.c ****  *  @brief    Initialization and Configuration functions
 433:Drivers/STM32F3xx_HAL_Driver/Src/stm32f3xx_hal_i2c.c ****  *
 434:Drivers/STM32F3xx_HAL_Driver/Src/stm32f3xx_hal_i2c.c **** @verbatim
 435:Drivers/STM32F3xx_HAL_Driver/Src/stm32f3xx_hal_i2c.c ****  ===============================================================================
 436:Drivers/STM32F3xx_HAL_Driver/Src/stm32f3xx_hal_i2c.c ****               ##### Initialization and de-initialization functions #####
 437:Drivers/STM32F3xx_HAL_Driver/Src/stm32f3xx_hal_i2c.c ****  ===============================================================================
 438:Drivers/STM32F3xx_HAL_Driver/Src/stm32f3xx_hal_i2c.c ****     [..]  This subsection provides a set of functions allowing to initialize and
 439:Drivers/STM32F3xx_HAL_Driver/Src/stm32f3xx_hal_i2c.c ****           deinitialize the I2Cx peripheral:
 440:Drivers/STM32F3xx_HAL_Driver/Src/stm32f3xx_hal_i2c.c **** 
 441:Drivers/STM32F3xx_HAL_Driver/Src/stm32f3xx_hal_i2c.c ****       (+) User must Implement HAL_I2C_MspInit() function in which he configures
 442:Drivers/STM32F3xx_HAL_Driver/Src/stm32f3xx_hal_i2c.c ****           all related peripherals resources (CLOCK, GPIO, DMA, IT and NVIC ).
 443:Drivers/STM32F3xx_HAL_Driver/Src/stm32f3xx_hal_i2c.c **** 
 444:Drivers/STM32F3xx_HAL_Driver/Src/stm32f3xx_hal_i2c.c ****       (+) Call the function HAL_I2C_Init() to configure the selected device with
 445:Drivers/STM32F3xx_HAL_Driver/Src/stm32f3xx_hal_i2c.c ****           the selected configuration:
 446:Drivers/STM32F3xx_HAL_Driver/Src/stm32f3xx_hal_i2c.c ****         (++) Clock Timing
 447:Drivers/STM32F3xx_HAL_Driver/Src/stm32f3xx_hal_i2c.c ****         (++) Own Address 1
 448:Drivers/STM32F3xx_HAL_Driver/Src/stm32f3xx_hal_i2c.c ****         (++) Addressing mode (Master, Slave)
 449:Drivers/STM32F3xx_HAL_Driver/Src/stm32f3xx_hal_i2c.c ****         (++) Dual Addressing mode
 450:Drivers/STM32F3xx_HAL_Driver/Src/stm32f3xx_hal_i2c.c ****         (++) Own Address 2
 451:Drivers/STM32F3xx_HAL_Driver/Src/stm32f3xx_hal_i2c.c ****         (++) Own Address 2 Mask
 452:Drivers/STM32F3xx_HAL_Driver/Src/stm32f3xx_hal_i2c.c ****         (++) General call mode
 453:Drivers/STM32F3xx_HAL_Driver/Src/stm32f3xx_hal_i2c.c ****         (++) Nostretch mode
 454:Drivers/STM32F3xx_HAL_Driver/Src/stm32f3xx_hal_i2c.c **** 
 455:Drivers/STM32F3xx_HAL_Driver/Src/stm32f3xx_hal_i2c.c ****       (+) Call the function HAL_I2C_DeInit() to restore the default configuration
 456:Drivers/STM32F3xx_HAL_Driver/Src/stm32f3xx_hal_i2c.c ****           of the selected I2Cx peripheral.
 457:Drivers/STM32F3xx_HAL_Driver/Src/stm32f3xx_hal_i2c.c **** 
 458:Drivers/STM32F3xx_HAL_Driver/Src/stm32f3xx_hal_i2c.c **** @endverbatim
 459:Drivers/STM32F3xx_HAL_Driver/Src/stm32f3xx_hal_i2c.c ****   * @{
 460:Drivers/STM32F3xx_HAL_Driver/Src/stm32f3xx_hal_i2c.c ****   */
 461:Drivers/STM32F3xx_HAL_Driver/Src/stm32f3xx_hal_i2c.c **** 
 462:Drivers/STM32F3xx_HAL_Driver/Src/stm32f3xx_hal_i2c.c **** /**
 463:Drivers/STM32F3xx_HAL_Driver/Src/stm32f3xx_hal_i2c.c ****   * @brief  Initializes the I2C according to the specified parameters
 464:Drivers/STM32F3xx_HAL_Driver/Src/stm32f3xx_hal_i2c.c ****   *         in the I2C_InitTypeDef and initialize the associated handle.
 465:Drivers/STM32F3xx_HAL_Driver/Src/stm32f3xx_hal_i2c.c ****   * @param  hi2c Pointer to a I2C_HandleTypeDef structure that contains
 466:Drivers/STM32F3xx_HAL_Driver/Src/stm32f3xx_hal_i2c.c ****   *                the configuration information for the specified I2C.
 467:Drivers/STM32F3xx_HAL_Driver/Src/stm32f3xx_hal_i2c.c ****   * @retval HAL status
 468:Drivers/STM32F3xx_HAL_Driver/Src/stm32f3xx_hal_i2c.c ****   */
 469:Drivers/STM32F3xx_HAL_Driver/Src/stm32f3xx_hal_i2c.c **** HAL_StatusTypeDef HAL_I2C_Init(I2C_HandleTypeDef *hi2c)
 470:Drivers/STM32F3xx_HAL_Driver/Src/stm32f3xx_hal_i2c.c **** {
  28              		.loc 1 470 0
  29              		.cfi_startproc
  30              		@ args = 0, pretend = 0, frame = 8
  31              		@ frame_needed = 1, uses_anonymous_args = 0
  32 0000 80B5     		push	{r7, lr}
  33              	.LCFI0:
  34              		.cfi_def_cfa_offset 8
  35              		.cfi_offset 7, -8
  36              		.cfi_offset 14, -4
  37 0002 82B0     		sub	sp, sp, #8
  38              	.LCFI1:
  39              		.cfi_def_cfa_offset 16
  40 0004 00AF     		add	r7, sp, #0
  41              	.LCFI2:
  42              		.cfi_def_cfa_register 7
  43 0006 7860     		str	r0, [r7, #4]
 471:Drivers/STM32F3xx_HAL_Driver/Src/stm32f3xx_hal_i2c.c ****   /* Check the I2C handle allocation */
ARM GAS  /tmp/cc7eKD0K.s 			page 10


 472:Drivers/STM32F3xx_HAL_Driver/Src/stm32f3xx_hal_i2c.c ****   if (hi2c == NULL)
  44              		.loc 1 472 0
  45 0008 7B68     		ldr	r3, [r7, #4]
  46 000a 002B     		cmp	r3, #0
  47 000c 01D1     		bne	.L2
 473:Drivers/STM32F3xx_HAL_Driver/Src/stm32f3xx_hal_i2c.c ****   {
 474:Drivers/STM32F3xx_HAL_Driver/Src/stm32f3xx_hal_i2c.c ****     return HAL_ERROR;
  48              		.loc 1 474 0
  49 000e 0123     		movs	r3, #1
  50 0010 81E0     		b	.L3
  51              	.L2:
 475:Drivers/STM32F3xx_HAL_Driver/Src/stm32f3xx_hal_i2c.c ****   }
 476:Drivers/STM32F3xx_HAL_Driver/Src/stm32f3xx_hal_i2c.c **** 
 477:Drivers/STM32F3xx_HAL_Driver/Src/stm32f3xx_hal_i2c.c ****   /* Check the parameters */
 478:Drivers/STM32F3xx_HAL_Driver/Src/stm32f3xx_hal_i2c.c ****   assert_param(IS_I2C_ALL_INSTANCE(hi2c->Instance));
 479:Drivers/STM32F3xx_HAL_Driver/Src/stm32f3xx_hal_i2c.c ****   assert_param(IS_I2C_OWN_ADDRESS1(hi2c->Init.OwnAddress1));
 480:Drivers/STM32F3xx_HAL_Driver/Src/stm32f3xx_hal_i2c.c ****   assert_param(IS_I2C_ADDRESSING_MODE(hi2c->Init.AddressingMode));
 481:Drivers/STM32F3xx_HAL_Driver/Src/stm32f3xx_hal_i2c.c ****   assert_param(IS_I2C_DUAL_ADDRESS(hi2c->Init.DualAddressMode));
 482:Drivers/STM32F3xx_HAL_Driver/Src/stm32f3xx_hal_i2c.c ****   assert_param(IS_I2C_OWN_ADDRESS2(hi2c->Init.OwnAddress2));
 483:Drivers/STM32F3xx_HAL_Driver/Src/stm32f3xx_hal_i2c.c ****   assert_param(IS_I2C_OWN_ADDRESS2_MASK(hi2c->Init.OwnAddress2Masks));
 484:Drivers/STM32F3xx_HAL_Driver/Src/stm32f3xx_hal_i2c.c ****   assert_param(IS_I2C_GENERAL_CALL(hi2c->Init.GeneralCallMode));
 485:Drivers/STM32F3xx_HAL_Driver/Src/stm32f3xx_hal_i2c.c ****   assert_param(IS_I2C_NO_STRETCH(hi2c->Init.NoStretchMode));
 486:Drivers/STM32F3xx_HAL_Driver/Src/stm32f3xx_hal_i2c.c **** 
 487:Drivers/STM32F3xx_HAL_Driver/Src/stm32f3xx_hal_i2c.c ****   if (hi2c->State == HAL_I2C_STATE_RESET)
  52              		.loc 1 487 0
  53 0012 7B68     		ldr	r3, [r7, #4]
  54 0014 93F84130 		ldrb	r3, [r3, #65]
  55 0018 DBB2     		uxtb	r3, r3
  56 001a 002B     		cmp	r3, #0
  57 001c 06D1     		bne	.L4
 488:Drivers/STM32F3xx_HAL_Driver/Src/stm32f3xx_hal_i2c.c ****   {
 489:Drivers/STM32F3xx_HAL_Driver/Src/stm32f3xx_hal_i2c.c ****     /* Allocate lock resource and initialize it */
 490:Drivers/STM32F3xx_HAL_Driver/Src/stm32f3xx_hal_i2c.c ****     hi2c->Lock = HAL_UNLOCKED;
  58              		.loc 1 490 0
  59 001e 7B68     		ldr	r3, [r7, #4]
  60 0020 0022     		movs	r2, #0
  61 0022 83F84020 		strb	r2, [r3, #64]
 491:Drivers/STM32F3xx_HAL_Driver/Src/stm32f3xx_hal_i2c.c **** 
 492:Drivers/STM32F3xx_HAL_Driver/Src/stm32f3xx_hal_i2c.c **** #if (USE_HAL_I2C_REGISTER_CALLBACKS == 1)
 493:Drivers/STM32F3xx_HAL_Driver/Src/stm32f3xx_hal_i2c.c ****     /* Init the I2C Callback settings */
 494:Drivers/STM32F3xx_HAL_Driver/Src/stm32f3xx_hal_i2c.c ****     hi2c->MasterTxCpltCallback = HAL_I2C_MasterTxCpltCallback; /* Legacy weak MasterTxCpltCallback 
 495:Drivers/STM32F3xx_HAL_Driver/Src/stm32f3xx_hal_i2c.c ****     hi2c->MasterRxCpltCallback = HAL_I2C_MasterRxCpltCallback; /* Legacy weak MasterRxCpltCallback 
 496:Drivers/STM32F3xx_HAL_Driver/Src/stm32f3xx_hal_i2c.c ****     hi2c->SlaveTxCpltCallback  = HAL_I2C_SlaveTxCpltCallback;  /* Legacy weak SlaveTxCpltCallback  
 497:Drivers/STM32F3xx_HAL_Driver/Src/stm32f3xx_hal_i2c.c ****     hi2c->SlaveRxCpltCallback  = HAL_I2C_SlaveRxCpltCallback;  /* Legacy weak SlaveRxCpltCallback  
 498:Drivers/STM32F3xx_HAL_Driver/Src/stm32f3xx_hal_i2c.c ****     hi2c->ListenCpltCallback   = HAL_I2C_ListenCpltCallback;   /* Legacy weak ListenCpltCallback   
 499:Drivers/STM32F3xx_HAL_Driver/Src/stm32f3xx_hal_i2c.c ****     hi2c->MemTxCpltCallback    = HAL_I2C_MemTxCpltCallback;    /* Legacy weak MemTxCpltCallback    
 500:Drivers/STM32F3xx_HAL_Driver/Src/stm32f3xx_hal_i2c.c ****     hi2c->MemRxCpltCallback    = HAL_I2C_MemRxCpltCallback;    /* Legacy weak MemRxCpltCallback    
 501:Drivers/STM32F3xx_HAL_Driver/Src/stm32f3xx_hal_i2c.c ****     hi2c->ErrorCallback        = HAL_I2C_ErrorCallback;        /* Legacy weak ErrorCallback        
 502:Drivers/STM32F3xx_HAL_Driver/Src/stm32f3xx_hal_i2c.c ****     hi2c->AbortCpltCallback    = HAL_I2C_AbortCpltCallback;    /* Legacy weak AbortCpltCallback    
 503:Drivers/STM32F3xx_HAL_Driver/Src/stm32f3xx_hal_i2c.c ****     hi2c->AddrCallback         = HAL_I2C_AddrCallback;         /* Legacy weak AddrCallback         
 504:Drivers/STM32F3xx_HAL_Driver/Src/stm32f3xx_hal_i2c.c **** 
 505:Drivers/STM32F3xx_HAL_Driver/Src/stm32f3xx_hal_i2c.c ****     if (hi2c->MspInitCallback == NULL)
 506:Drivers/STM32F3xx_HAL_Driver/Src/stm32f3xx_hal_i2c.c ****     {
 507:Drivers/STM32F3xx_HAL_Driver/Src/stm32f3xx_hal_i2c.c ****       hi2c->MspInitCallback = HAL_I2C_MspInit; /* Legacy weak MspInit  */
 508:Drivers/STM32F3xx_HAL_Driver/Src/stm32f3xx_hal_i2c.c ****     }
 509:Drivers/STM32F3xx_HAL_Driver/Src/stm32f3xx_hal_i2c.c **** 
 510:Drivers/STM32F3xx_HAL_Driver/Src/stm32f3xx_hal_i2c.c ****     /* Init the low level hardware : GPIO, CLOCK, CORTEX...etc */
ARM GAS  /tmp/cc7eKD0K.s 			page 11


 511:Drivers/STM32F3xx_HAL_Driver/Src/stm32f3xx_hal_i2c.c ****     hi2c->MspInitCallback(hi2c);
 512:Drivers/STM32F3xx_HAL_Driver/Src/stm32f3xx_hal_i2c.c **** #else
 513:Drivers/STM32F3xx_HAL_Driver/Src/stm32f3xx_hal_i2c.c ****     /* Init the low level hardware : GPIO, CLOCK, CORTEX...etc */
 514:Drivers/STM32F3xx_HAL_Driver/Src/stm32f3xx_hal_i2c.c ****     HAL_I2C_MspInit(hi2c);
  62              		.loc 1 514 0
  63 0026 7868     		ldr	r0, [r7, #4]
  64 0028 FFF7FEFF 		bl	HAL_I2C_MspInit
  65              	.L4:
 515:Drivers/STM32F3xx_HAL_Driver/Src/stm32f3xx_hal_i2c.c **** #endif /* USE_HAL_I2C_REGISTER_CALLBACKS */
 516:Drivers/STM32F3xx_HAL_Driver/Src/stm32f3xx_hal_i2c.c ****   }
 517:Drivers/STM32F3xx_HAL_Driver/Src/stm32f3xx_hal_i2c.c **** 
 518:Drivers/STM32F3xx_HAL_Driver/Src/stm32f3xx_hal_i2c.c ****   hi2c->State = HAL_I2C_STATE_BUSY;
  66              		.loc 1 518 0
  67 002c 7B68     		ldr	r3, [r7, #4]
  68 002e 2422     		movs	r2, #36
  69 0030 83F84120 		strb	r2, [r3, #65]
 519:Drivers/STM32F3xx_HAL_Driver/Src/stm32f3xx_hal_i2c.c **** 
 520:Drivers/STM32F3xx_HAL_Driver/Src/stm32f3xx_hal_i2c.c ****   /* Disable the selected I2C peripheral */
 521:Drivers/STM32F3xx_HAL_Driver/Src/stm32f3xx_hal_i2c.c ****   __HAL_I2C_DISABLE(hi2c);
  70              		.loc 1 521 0
  71 0034 7B68     		ldr	r3, [r7, #4]
  72 0036 1B68     		ldr	r3, [r3]
  73 0038 1A68     		ldr	r2, [r3]
  74 003a 7B68     		ldr	r3, [r7, #4]
  75 003c 1B68     		ldr	r3, [r3]
  76 003e 22F00102 		bic	r2, r2, #1
  77 0042 1A60     		str	r2, [r3]
 522:Drivers/STM32F3xx_HAL_Driver/Src/stm32f3xx_hal_i2c.c **** 
 523:Drivers/STM32F3xx_HAL_Driver/Src/stm32f3xx_hal_i2c.c ****   /*---------------------------- I2Cx TIMINGR Configuration ------------------*/
 524:Drivers/STM32F3xx_HAL_Driver/Src/stm32f3xx_hal_i2c.c ****   /* Configure I2Cx: Frequency range */
 525:Drivers/STM32F3xx_HAL_Driver/Src/stm32f3xx_hal_i2c.c ****   hi2c->Instance->TIMINGR = hi2c->Init.Timing & TIMING_CLEAR_MASK;
  78              		.loc 1 525 0
  79 0044 7B68     		ldr	r3, [r7, #4]
  80 0046 5A68     		ldr	r2, [r3, #4]
  81 0048 7B68     		ldr	r3, [r7, #4]
  82 004a 1B68     		ldr	r3, [r3]
  83 004c 22F07062 		bic	r2, r2, #251658240
  84 0050 1A61     		str	r2, [r3, #16]
 526:Drivers/STM32F3xx_HAL_Driver/Src/stm32f3xx_hal_i2c.c **** 
 527:Drivers/STM32F3xx_HAL_Driver/Src/stm32f3xx_hal_i2c.c ****   /*---------------------------- I2Cx OAR1 Configuration ---------------------*/
 528:Drivers/STM32F3xx_HAL_Driver/Src/stm32f3xx_hal_i2c.c ****   /* Disable Own Address1 before set the Own Address1 configuration */
 529:Drivers/STM32F3xx_HAL_Driver/Src/stm32f3xx_hal_i2c.c ****   hi2c->Instance->OAR1 &= ~I2C_OAR1_OA1EN;
  85              		.loc 1 529 0
  86 0052 7B68     		ldr	r3, [r7, #4]
  87 0054 1B68     		ldr	r3, [r3]
  88 0056 9A68     		ldr	r2, [r3, #8]
  89 0058 7B68     		ldr	r3, [r7, #4]
  90 005a 1B68     		ldr	r3, [r3]
  91 005c 22F40042 		bic	r2, r2, #32768
  92 0060 9A60     		str	r2, [r3, #8]
 530:Drivers/STM32F3xx_HAL_Driver/Src/stm32f3xx_hal_i2c.c **** 
 531:Drivers/STM32F3xx_HAL_Driver/Src/stm32f3xx_hal_i2c.c ****   /* Configure I2Cx: Own Address1 and ack own address1 mode */
 532:Drivers/STM32F3xx_HAL_Driver/Src/stm32f3xx_hal_i2c.c ****   if (hi2c->Init.AddressingMode == I2C_ADDRESSINGMODE_7BIT)
  93              		.loc 1 532 0
  94 0062 7B68     		ldr	r3, [r7, #4]
  95 0064 DB68     		ldr	r3, [r3, #12]
  96 0066 012B     		cmp	r3, #1
ARM GAS  /tmp/cc7eKD0K.s 			page 12


  97 0068 07D1     		bne	.L5
 533:Drivers/STM32F3xx_HAL_Driver/Src/stm32f3xx_hal_i2c.c ****   {
 534:Drivers/STM32F3xx_HAL_Driver/Src/stm32f3xx_hal_i2c.c ****     hi2c->Instance->OAR1 = (I2C_OAR1_OA1EN | hi2c->Init.OwnAddress1);
  98              		.loc 1 534 0
  99 006a 7B68     		ldr	r3, [r7, #4]
 100 006c 9A68     		ldr	r2, [r3, #8]
 101 006e 7B68     		ldr	r3, [r7, #4]
 102 0070 1B68     		ldr	r3, [r3]
 103 0072 42F40042 		orr	r2, r2, #32768
 104 0076 9A60     		str	r2, [r3, #8]
 105 0078 06E0     		b	.L6
 106              	.L5:
 535:Drivers/STM32F3xx_HAL_Driver/Src/stm32f3xx_hal_i2c.c ****   }
 536:Drivers/STM32F3xx_HAL_Driver/Src/stm32f3xx_hal_i2c.c ****   else /* I2C_ADDRESSINGMODE_10BIT */
 537:Drivers/STM32F3xx_HAL_Driver/Src/stm32f3xx_hal_i2c.c ****   {
 538:Drivers/STM32F3xx_HAL_Driver/Src/stm32f3xx_hal_i2c.c ****     hi2c->Instance->OAR1 = (I2C_OAR1_OA1EN | I2C_OAR1_OA1MODE | hi2c->Init.OwnAddress1);
 107              		.loc 1 538 0
 108 007a 7B68     		ldr	r3, [r7, #4]
 109 007c 9A68     		ldr	r2, [r3, #8]
 110 007e 7B68     		ldr	r3, [r7, #4]
 111 0080 1B68     		ldr	r3, [r3]
 112 0082 42F40442 		orr	r2, r2, #33792
 113 0086 9A60     		str	r2, [r3, #8]
 114              	.L6:
 539:Drivers/STM32F3xx_HAL_Driver/Src/stm32f3xx_hal_i2c.c ****   }
 540:Drivers/STM32F3xx_HAL_Driver/Src/stm32f3xx_hal_i2c.c **** 
 541:Drivers/STM32F3xx_HAL_Driver/Src/stm32f3xx_hal_i2c.c ****   /*---------------------------- I2Cx CR2 Configuration ----------------------*/
 542:Drivers/STM32F3xx_HAL_Driver/Src/stm32f3xx_hal_i2c.c ****   /* Configure I2Cx: Addressing Master mode */
 543:Drivers/STM32F3xx_HAL_Driver/Src/stm32f3xx_hal_i2c.c ****   if (hi2c->Init.AddressingMode == I2C_ADDRESSINGMODE_10BIT)
 115              		.loc 1 543 0
 116 0088 7B68     		ldr	r3, [r7, #4]
 117 008a DB68     		ldr	r3, [r3, #12]
 118 008c 022B     		cmp	r3, #2
 119 008e 04D1     		bne	.L7
 544:Drivers/STM32F3xx_HAL_Driver/Src/stm32f3xx_hal_i2c.c ****   {
 545:Drivers/STM32F3xx_HAL_Driver/Src/stm32f3xx_hal_i2c.c ****     hi2c->Instance->CR2 = (I2C_CR2_ADD10);
 120              		.loc 1 545 0
 121 0090 7B68     		ldr	r3, [r7, #4]
 122 0092 1B68     		ldr	r3, [r3]
 123 0094 4FF40062 		mov	r2, #2048
 124 0098 5A60     		str	r2, [r3, #4]
 125              	.L7:
 546:Drivers/STM32F3xx_HAL_Driver/Src/stm32f3xx_hal_i2c.c ****   }
 547:Drivers/STM32F3xx_HAL_Driver/Src/stm32f3xx_hal_i2c.c ****   /* Enable the AUTOEND by default, and enable NACK (should be disable only during Slave process */
 548:Drivers/STM32F3xx_HAL_Driver/Src/stm32f3xx_hal_i2c.c ****   hi2c->Instance->CR2 |= (I2C_CR2_AUTOEND | I2C_CR2_NACK);
 126              		.loc 1 548 0
 127 009a 7B68     		ldr	r3, [r7, #4]
 128 009c 1B68     		ldr	r3, [r3]
 129 009e 5B68     		ldr	r3, [r3, #4]
 130 00a0 7A68     		ldr	r2, [r7, #4]
 131 00a2 1268     		ldr	r2, [r2]
 132 00a4 43F00073 		orr	r3, r3, #33554432
 133 00a8 43F40043 		orr	r3, r3, #32768
 134 00ac 5360     		str	r3, [r2, #4]
 549:Drivers/STM32F3xx_HAL_Driver/Src/stm32f3xx_hal_i2c.c **** 
 550:Drivers/STM32F3xx_HAL_Driver/Src/stm32f3xx_hal_i2c.c ****   /*---------------------------- I2Cx OAR2 Configuration ---------------------*/
 551:Drivers/STM32F3xx_HAL_Driver/Src/stm32f3xx_hal_i2c.c ****   /* Disable Own Address2 before set the Own Address2 configuration */
ARM GAS  /tmp/cc7eKD0K.s 			page 13


 552:Drivers/STM32F3xx_HAL_Driver/Src/stm32f3xx_hal_i2c.c ****   hi2c->Instance->OAR2 &= ~I2C_DUALADDRESS_ENABLE;
 135              		.loc 1 552 0
 136 00ae 7B68     		ldr	r3, [r7, #4]
 137 00b0 1B68     		ldr	r3, [r3]
 138 00b2 DA68     		ldr	r2, [r3, #12]
 139 00b4 7B68     		ldr	r3, [r7, #4]
 140 00b6 1B68     		ldr	r3, [r3]
 141 00b8 22F40042 		bic	r2, r2, #32768
 142 00bc DA60     		str	r2, [r3, #12]
 553:Drivers/STM32F3xx_HAL_Driver/Src/stm32f3xx_hal_i2c.c **** 
 554:Drivers/STM32F3xx_HAL_Driver/Src/stm32f3xx_hal_i2c.c ****   /* Configure I2Cx: Dual mode and Own Address2 */
 555:Drivers/STM32F3xx_HAL_Driver/Src/stm32f3xx_hal_i2c.c ****   hi2c->Instance->OAR2 = (hi2c->Init.DualAddressMode | hi2c->Init.OwnAddress2 | (hi2c->Init.OwnAddr
 143              		.loc 1 555 0
 144 00be 7B68     		ldr	r3, [r7, #4]
 145 00c0 1A69     		ldr	r2, [r3, #16]
 146 00c2 7B68     		ldr	r3, [r7, #4]
 147 00c4 5B69     		ldr	r3, [r3, #20]
 148 00c6 42EA0301 		orr	r1, r2, r3
 149 00ca 7B68     		ldr	r3, [r7, #4]
 150 00cc 9B69     		ldr	r3, [r3, #24]
 151 00ce 1A02     		lsls	r2, r3, #8
 152 00d0 7B68     		ldr	r3, [r7, #4]
 153 00d2 1B68     		ldr	r3, [r3]
 154 00d4 0A43     		orrs	r2, r2, r1
 155 00d6 DA60     		str	r2, [r3, #12]
 556:Drivers/STM32F3xx_HAL_Driver/Src/stm32f3xx_hal_i2c.c **** 
 557:Drivers/STM32F3xx_HAL_Driver/Src/stm32f3xx_hal_i2c.c ****   /*---------------------------- I2Cx CR1 Configuration ----------------------*/
 558:Drivers/STM32F3xx_HAL_Driver/Src/stm32f3xx_hal_i2c.c ****   /* Configure I2Cx: Generalcall and NoStretch mode */
 559:Drivers/STM32F3xx_HAL_Driver/Src/stm32f3xx_hal_i2c.c ****   hi2c->Instance->CR1 = (hi2c->Init.GeneralCallMode | hi2c->Init.NoStretchMode);
 156              		.loc 1 559 0
 157 00d8 7B68     		ldr	r3, [r7, #4]
 158 00da D969     		ldr	r1, [r3, #28]
 159 00dc 7B68     		ldr	r3, [r7, #4]
 160 00de 1A6A     		ldr	r2, [r3, #32]
 161 00e0 7B68     		ldr	r3, [r7, #4]
 162 00e2 1B68     		ldr	r3, [r3]
 163 00e4 0A43     		orrs	r2, r2, r1
 164 00e6 1A60     		str	r2, [r3]
 560:Drivers/STM32F3xx_HAL_Driver/Src/stm32f3xx_hal_i2c.c **** 
 561:Drivers/STM32F3xx_HAL_Driver/Src/stm32f3xx_hal_i2c.c ****   /* Enable the selected I2C peripheral */
 562:Drivers/STM32F3xx_HAL_Driver/Src/stm32f3xx_hal_i2c.c ****   __HAL_I2C_ENABLE(hi2c);
 165              		.loc 1 562 0
 166 00e8 7B68     		ldr	r3, [r7, #4]
 167 00ea 1B68     		ldr	r3, [r3]
 168 00ec 1A68     		ldr	r2, [r3]
 169 00ee 7B68     		ldr	r3, [r7, #4]
 170 00f0 1B68     		ldr	r3, [r3]
 171 00f2 42F00102 		orr	r2, r2, #1
 172 00f6 1A60     		str	r2, [r3]
 563:Drivers/STM32F3xx_HAL_Driver/Src/stm32f3xx_hal_i2c.c **** 
 564:Drivers/STM32F3xx_HAL_Driver/Src/stm32f3xx_hal_i2c.c ****   hi2c->ErrorCode = HAL_I2C_ERROR_NONE;
 173              		.loc 1 564 0
 174 00f8 7B68     		ldr	r3, [r7, #4]
 175 00fa 0022     		movs	r2, #0
 176 00fc 5A64     		str	r2, [r3, #68]
 565:Drivers/STM32F3xx_HAL_Driver/Src/stm32f3xx_hal_i2c.c ****   hi2c->State = HAL_I2C_STATE_READY;
 177              		.loc 1 565 0
ARM GAS  /tmp/cc7eKD0K.s 			page 14


 178 00fe 7B68     		ldr	r3, [r7, #4]
 179 0100 2022     		movs	r2, #32
 180 0102 83F84120 		strb	r2, [r3, #65]
 566:Drivers/STM32F3xx_HAL_Driver/Src/stm32f3xx_hal_i2c.c ****   hi2c->PreviousState = I2C_STATE_NONE;
 181              		.loc 1 566 0
 182 0106 7B68     		ldr	r3, [r7, #4]
 183 0108 0022     		movs	r2, #0
 184 010a 1A63     		str	r2, [r3, #48]
 567:Drivers/STM32F3xx_HAL_Driver/Src/stm32f3xx_hal_i2c.c ****   hi2c->Mode = HAL_I2C_MODE_NONE;
 185              		.loc 1 567 0
 186 010c 7B68     		ldr	r3, [r7, #4]
 187 010e 0022     		movs	r2, #0
 188 0110 83F84220 		strb	r2, [r3, #66]
 568:Drivers/STM32F3xx_HAL_Driver/Src/stm32f3xx_hal_i2c.c **** 
 569:Drivers/STM32F3xx_HAL_Driver/Src/stm32f3xx_hal_i2c.c ****   return HAL_OK;
 189              		.loc 1 569 0
 190 0114 0023     		movs	r3, #0
 191              	.L3:
 570:Drivers/STM32F3xx_HAL_Driver/Src/stm32f3xx_hal_i2c.c **** }
 192              		.loc 1 570 0
 193 0116 1846     		mov	r0, r3
 194 0118 0837     		adds	r7, r7, #8
 195              	.LCFI3:
 196              		.cfi_def_cfa_offset 8
 197 011a BD46     		mov	sp, r7
 198              	.LCFI4:
 199              		.cfi_def_cfa_register 13
 200              		@ sp needed
 201 011c 80BD     		pop	{r7, pc}
 202              		.cfi_endproc
 203              	.LFE123:
 205              		.section	.text.HAL_I2C_DeInit,"ax",%progbits
 206              		.align	1
 207              		.global	HAL_I2C_DeInit
 208              		.syntax unified
 209              		.thumb
 210              		.thumb_func
 211              		.fpu fpv4-sp-d16
 213              	HAL_I2C_DeInit:
 214              	.LFB124:
 571:Drivers/STM32F3xx_HAL_Driver/Src/stm32f3xx_hal_i2c.c **** 
 572:Drivers/STM32F3xx_HAL_Driver/Src/stm32f3xx_hal_i2c.c **** /**
 573:Drivers/STM32F3xx_HAL_Driver/Src/stm32f3xx_hal_i2c.c ****   * @brief  DeInitialize the I2C peripheral.
 574:Drivers/STM32F3xx_HAL_Driver/Src/stm32f3xx_hal_i2c.c ****   * @param  hi2c Pointer to a I2C_HandleTypeDef structure that contains
 575:Drivers/STM32F3xx_HAL_Driver/Src/stm32f3xx_hal_i2c.c ****   *                the configuration information for the specified I2C.
 576:Drivers/STM32F3xx_HAL_Driver/Src/stm32f3xx_hal_i2c.c ****   * @retval HAL status
 577:Drivers/STM32F3xx_HAL_Driver/Src/stm32f3xx_hal_i2c.c ****   */
 578:Drivers/STM32F3xx_HAL_Driver/Src/stm32f3xx_hal_i2c.c **** HAL_StatusTypeDef HAL_I2C_DeInit(I2C_HandleTypeDef *hi2c)
 579:Drivers/STM32F3xx_HAL_Driver/Src/stm32f3xx_hal_i2c.c **** {
 215              		.loc 1 579 0
 216              		.cfi_startproc
 217              		@ args = 0, pretend = 0, frame = 8
 218              		@ frame_needed = 1, uses_anonymous_args = 0
 219 0000 80B5     		push	{r7, lr}
 220              	.LCFI5:
 221              		.cfi_def_cfa_offset 8
 222              		.cfi_offset 7, -8
ARM GAS  /tmp/cc7eKD0K.s 			page 15


 223              		.cfi_offset 14, -4
 224 0002 82B0     		sub	sp, sp, #8
 225              	.LCFI6:
 226              		.cfi_def_cfa_offset 16
 227 0004 00AF     		add	r7, sp, #0
 228              	.LCFI7:
 229              		.cfi_def_cfa_register 7
 230 0006 7860     		str	r0, [r7, #4]
 580:Drivers/STM32F3xx_HAL_Driver/Src/stm32f3xx_hal_i2c.c ****   /* Check the I2C handle allocation */
 581:Drivers/STM32F3xx_HAL_Driver/Src/stm32f3xx_hal_i2c.c ****   if (hi2c == NULL)
 231              		.loc 1 581 0
 232 0008 7B68     		ldr	r3, [r7, #4]
 233 000a 002B     		cmp	r3, #0
 234 000c 01D1     		bne	.L9
 582:Drivers/STM32F3xx_HAL_Driver/Src/stm32f3xx_hal_i2c.c ****   {
 583:Drivers/STM32F3xx_HAL_Driver/Src/stm32f3xx_hal_i2c.c ****     return HAL_ERROR;
 235              		.loc 1 583 0
 236 000e 0123     		movs	r3, #1
 237 0010 21E0     		b	.L10
 238              	.L9:
 584:Drivers/STM32F3xx_HAL_Driver/Src/stm32f3xx_hal_i2c.c ****   }
 585:Drivers/STM32F3xx_HAL_Driver/Src/stm32f3xx_hal_i2c.c **** 
 586:Drivers/STM32F3xx_HAL_Driver/Src/stm32f3xx_hal_i2c.c ****   /* Check the parameters */
 587:Drivers/STM32F3xx_HAL_Driver/Src/stm32f3xx_hal_i2c.c ****   assert_param(IS_I2C_ALL_INSTANCE(hi2c->Instance));
 588:Drivers/STM32F3xx_HAL_Driver/Src/stm32f3xx_hal_i2c.c **** 
 589:Drivers/STM32F3xx_HAL_Driver/Src/stm32f3xx_hal_i2c.c ****   hi2c->State = HAL_I2C_STATE_BUSY;
 239              		.loc 1 589 0
 240 0012 7B68     		ldr	r3, [r7, #4]
 241 0014 2422     		movs	r2, #36
 242 0016 83F84120 		strb	r2, [r3, #65]
 590:Drivers/STM32F3xx_HAL_Driver/Src/stm32f3xx_hal_i2c.c **** 
 591:Drivers/STM32F3xx_HAL_Driver/Src/stm32f3xx_hal_i2c.c ****   /* Disable the I2C Peripheral Clock */
 592:Drivers/STM32F3xx_HAL_Driver/Src/stm32f3xx_hal_i2c.c ****   __HAL_I2C_DISABLE(hi2c);
 243              		.loc 1 592 0
 244 001a 7B68     		ldr	r3, [r7, #4]
 245 001c 1B68     		ldr	r3, [r3]
 246 001e 1A68     		ldr	r2, [r3]
 247 0020 7B68     		ldr	r3, [r7, #4]
 248 0022 1B68     		ldr	r3, [r3]
 249 0024 22F00102 		bic	r2, r2, #1
 250 0028 1A60     		str	r2, [r3]
 593:Drivers/STM32F3xx_HAL_Driver/Src/stm32f3xx_hal_i2c.c **** 
 594:Drivers/STM32F3xx_HAL_Driver/Src/stm32f3xx_hal_i2c.c **** #if (USE_HAL_I2C_REGISTER_CALLBACKS == 1)
 595:Drivers/STM32F3xx_HAL_Driver/Src/stm32f3xx_hal_i2c.c ****   if (hi2c->MspDeInitCallback == NULL)
 596:Drivers/STM32F3xx_HAL_Driver/Src/stm32f3xx_hal_i2c.c ****   {
 597:Drivers/STM32F3xx_HAL_Driver/Src/stm32f3xx_hal_i2c.c ****     hi2c->MspDeInitCallback = HAL_I2C_MspDeInit; /* Legacy weak MspDeInit  */
 598:Drivers/STM32F3xx_HAL_Driver/Src/stm32f3xx_hal_i2c.c ****   }
 599:Drivers/STM32F3xx_HAL_Driver/Src/stm32f3xx_hal_i2c.c **** 
 600:Drivers/STM32F3xx_HAL_Driver/Src/stm32f3xx_hal_i2c.c ****   /* DeInit the low level hardware: GPIO, CLOCK, NVIC */
 601:Drivers/STM32F3xx_HAL_Driver/Src/stm32f3xx_hal_i2c.c ****   hi2c->MspDeInitCallback(hi2c);
 602:Drivers/STM32F3xx_HAL_Driver/Src/stm32f3xx_hal_i2c.c **** #else
 603:Drivers/STM32F3xx_HAL_Driver/Src/stm32f3xx_hal_i2c.c ****   /* DeInit the low level hardware: GPIO, CLOCK, NVIC */
 604:Drivers/STM32F3xx_HAL_Driver/Src/stm32f3xx_hal_i2c.c ****   HAL_I2C_MspDeInit(hi2c);
 251              		.loc 1 604 0
 252 002a 7868     		ldr	r0, [r7, #4]
 253 002c FFF7FEFF 		bl	HAL_I2C_MspDeInit
 605:Drivers/STM32F3xx_HAL_Driver/Src/stm32f3xx_hal_i2c.c **** #endif /* USE_HAL_I2C_REGISTER_CALLBACKS */
ARM GAS  /tmp/cc7eKD0K.s 			page 16


 606:Drivers/STM32F3xx_HAL_Driver/Src/stm32f3xx_hal_i2c.c **** 
 607:Drivers/STM32F3xx_HAL_Driver/Src/stm32f3xx_hal_i2c.c ****   hi2c->ErrorCode = HAL_I2C_ERROR_NONE;
 254              		.loc 1 607 0
 255 0030 7B68     		ldr	r3, [r7, #4]
 256 0032 0022     		movs	r2, #0
 257 0034 5A64     		str	r2, [r3, #68]
 608:Drivers/STM32F3xx_HAL_Driver/Src/stm32f3xx_hal_i2c.c ****   hi2c->State = HAL_I2C_STATE_RESET;
 258              		.loc 1 608 0
 259 0036 7B68     		ldr	r3, [r7, #4]
 260 0038 0022     		movs	r2, #0
 261 003a 83F84120 		strb	r2, [r3, #65]
 609:Drivers/STM32F3xx_HAL_Driver/Src/stm32f3xx_hal_i2c.c ****   hi2c->PreviousState = I2C_STATE_NONE;
 262              		.loc 1 609 0
 263 003e 7B68     		ldr	r3, [r7, #4]
 264 0040 0022     		movs	r2, #0
 265 0042 1A63     		str	r2, [r3, #48]
 610:Drivers/STM32F3xx_HAL_Driver/Src/stm32f3xx_hal_i2c.c ****   hi2c->Mode = HAL_I2C_MODE_NONE;
 266              		.loc 1 610 0
 267 0044 7B68     		ldr	r3, [r7, #4]
 268 0046 0022     		movs	r2, #0
 269 0048 83F84220 		strb	r2, [r3, #66]
 611:Drivers/STM32F3xx_HAL_Driver/Src/stm32f3xx_hal_i2c.c **** 
 612:Drivers/STM32F3xx_HAL_Driver/Src/stm32f3xx_hal_i2c.c ****   /* Release Lock */
 613:Drivers/STM32F3xx_HAL_Driver/Src/stm32f3xx_hal_i2c.c ****   __HAL_UNLOCK(hi2c);
 270              		.loc 1 613 0
 271 004c 7B68     		ldr	r3, [r7, #4]
 272 004e 0022     		movs	r2, #0
 273 0050 83F84020 		strb	r2, [r3, #64]
 614:Drivers/STM32F3xx_HAL_Driver/Src/stm32f3xx_hal_i2c.c **** 
 615:Drivers/STM32F3xx_HAL_Driver/Src/stm32f3xx_hal_i2c.c ****   return HAL_OK;
 274              		.loc 1 615 0
 275 0054 0023     		movs	r3, #0
 276              	.L10:
 616:Drivers/STM32F3xx_HAL_Driver/Src/stm32f3xx_hal_i2c.c **** }
 277              		.loc 1 616 0
 278 0056 1846     		mov	r0, r3
 279 0058 0837     		adds	r7, r7, #8
 280              	.LCFI8:
 281              		.cfi_def_cfa_offset 8
 282 005a BD46     		mov	sp, r7
 283              	.LCFI9:
 284              		.cfi_def_cfa_register 13
 285              		@ sp needed
 286 005c 80BD     		pop	{r7, pc}
 287              		.cfi_endproc
 288              	.LFE124:
 290              		.section	.text.HAL_I2C_MspInit,"ax",%progbits
 291              		.align	1
 292              		.weak	HAL_I2C_MspInit
 293              		.syntax unified
 294              		.thumb
 295              		.thumb_func
 296              		.fpu fpv4-sp-d16
 298              	HAL_I2C_MspInit:
 299              	.LFB125:
 617:Drivers/STM32F3xx_HAL_Driver/Src/stm32f3xx_hal_i2c.c **** 
 618:Drivers/STM32F3xx_HAL_Driver/Src/stm32f3xx_hal_i2c.c **** /**
ARM GAS  /tmp/cc7eKD0K.s 			page 17


 619:Drivers/STM32F3xx_HAL_Driver/Src/stm32f3xx_hal_i2c.c ****   * @brief Initialize the I2C MSP.
 620:Drivers/STM32F3xx_HAL_Driver/Src/stm32f3xx_hal_i2c.c ****   * @param  hi2c Pointer to a I2C_HandleTypeDef structure that contains
 621:Drivers/STM32F3xx_HAL_Driver/Src/stm32f3xx_hal_i2c.c ****   *                the configuration information for the specified I2C.
 622:Drivers/STM32F3xx_HAL_Driver/Src/stm32f3xx_hal_i2c.c ****   * @retval None
 623:Drivers/STM32F3xx_HAL_Driver/Src/stm32f3xx_hal_i2c.c ****   */
 624:Drivers/STM32F3xx_HAL_Driver/Src/stm32f3xx_hal_i2c.c **** __weak void HAL_I2C_MspInit(I2C_HandleTypeDef *hi2c)
 625:Drivers/STM32F3xx_HAL_Driver/Src/stm32f3xx_hal_i2c.c **** {
 300              		.loc 1 625 0
 301              		.cfi_startproc
 302              		@ args = 0, pretend = 0, frame = 8
 303              		@ frame_needed = 1, uses_anonymous_args = 0
 304              		@ link register save eliminated.
 305 0000 80B4     		push	{r7}
 306              	.LCFI10:
 307              		.cfi_def_cfa_offset 4
 308              		.cfi_offset 7, -4
 309 0002 83B0     		sub	sp, sp, #12
 310              	.LCFI11:
 311              		.cfi_def_cfa_offset 16
 312 0004 00AF     		add	r7, sp, #0
 313              	.LCFI12:
 314              		.cfi_def_cfa_register 7
 315 0006 7860     		str	r0, [r7, #4]
 626:Drivers/STM32F3xx_HAL_Driver/Src/stm32f3xx_hal_i2c.c ****   /* Prevent unused argument(s) compilation warning */
 627:Drivers/STM32F3xx_HAL_Driver/Src/stm32f3xx_hal_i2c.c ****   UNUSED(hi2c);
 628:Drivers/STM32F3xx_HAL_Driver/Src/stm32f3xx_hal_i2c.c **** 
 629:Drivers/STM32F3xx_HAL_Driver/Src/stm32f3xx_hal_i2c.c ****   /* NOTE : This function should not be modified, when the callback is needed,
 630:Drivers/STM32F3xx_HAL_Driver/Src/stm32f3xx_hal_i2c.c ****             the HAL_I2C_MspInit could be implemented in the user file
 631:Drivers/STM32F3xx_HAL_Driver/Src/stm32f3xx_hal_i2c.c ****    */
 632:Drivers/STM32F3xx_HAL_Driver/Src/stm32f3xx_hal_i2c.c **** }
 316              		.loc 1 632 0
 317 0008 00BF     		nop
 318 000a 0C37     		adds	r7, r7, #12
 319              	.LCFI13:
 320              		.cfi_def_cfa_offset 4
 321 000c BD46     		mov	sp, r7
 322              	.LCFI14:
 323              		.cfi_def_cfa_register 13
 324              		@ sp needed
 325 000e 5DF8047B 		ldr	r7, [sp], #4
 326              	.LCFI15:
 327              		.cfi_restore 7
 328              		.cfi_def_cfa_offset 0
 329 0012 7047     		bx	lr
 330              		.cfi_endproc
 331              	.LFE125:
 333              		.section	.text.HAL_I2C_MspDeInit,"ax",%progbits
 334              		.align	1
 335              		.weak	HAL_I2C_MspDeInit
 336              		.syntax unified
 337              		.thumb
 338              		.thumb_func
 339              		.fpu fpv4-sp-d16
 341              	HAL_I2C_MspDeInit:
 342              	.LFB126:
 633:Drivers/STM32F3xx_HAL_Driver/Src/stm32f3xx_hal_i2c.c **** 
 634:Drivers/STM32F3xx_HAL_Driver/Src/stm32f3xx_hal_i2c.c **** /**
ARM GAS  /tmp/cc7eKD0K.s 			page 18


 635:Drivers/STM32F3xx_HAL_Driver/Src/stm32f3xx_hal_i2c.c ****   * @brief DeInitialize the I2C MSP.
 636:Drivers/STM32F3xx_HAL_Driver/Src/stm32f3xx_hal_i2c.c ****   * @param  hi2c Pointer to a I2C_HandleTypeDef structure that contains
 637:Drivers/STM32F3xx_HAL_Driver/Src/stm32f3xx_hal_i2c.c ****   *                the configuration information for the specified I2C.
 638:Drivers/STM32F3xx_HAL_Driver/Src/stm32f3xx_hal_i2c.c ****   * @retval None
 639:Drivers/STM32F3xx_HAL_Driver/Src/stm32f3xx_hal_i2c.c ****   */
 640:Drivers/STM32F3xx_HAL_Driver/Src/stm32f3xx_hal_i2c.c **** __weak void HAL_I2C_MspDeInit(I2C_HandleTypeDef *hi2c)
 641:Drivers/STM32F3xx_HAL_Driver/Src/stm32f3xx_hal_i2c.c **** {
 343              		.loc 1 641 0
 344              		.cfi_startproc
 345              		@ args = 0, pretend = 0, frame = 8
 346              		@ frame_needed = 1, uses_anonymous_args = 0
 347              		@ link register save eliminated.
 348 0000 80B4     		push	{r7}
 349              	.LCFI16:
 350              		.cfi_def_cfa_offset 4
 351              		.cfi_offset 7, -4
 352 0002 83B0     		sub	sp, sp, #12
 353              	.LCFI17:
 354              		.cfi_def_cfa_offset 16
 355 0004 00AF     		add	r7, sp, #0
 356              	.LCFI18:
 357              		.cfi_def_cfa_register 7
 358 0006 7860     		str	r0, [r7, #4]
 642:Drivers/STM32F3xx_HAL_Driver/Src/stm32f3xx_hal_i2c.c ****   /* Prevent unused argument(s) compilation warning */
 643:Drivers/STM32F3xx_HAL_Driver/Src/stm32f3xx_hal_i2c.c ****   UNUSED(hi2c);
 644:Drivers/STM32F3xx_HAL_Driver/Src/stm32f3xx_hal_i2c.c **** 
 645:Drivers/STM32F3xx_HAL_Driver/Src/stm32f3xx_hal_i2c.c ****   /* NOTE : This function should not be modified, when the callback is needed,
 646:Drivers/STM32F3xx_HAL_Driver/Src/stm32f3xx_hal_i2c.c ****             the HAL_I2C_MspDeInit could be implemented in the user file
 647:Drivers/STM32F3xx_HAL_Driver/Src/stm32f3xx_hal_i2c.c ****    */
 648:Drivers/STM32F3xx_HAL_Driver/Src/stm32f3xx_hal_i2c.c **** }
 359              		.loc 1 648 0
 360 0008 00BF     		nop
 361 000a 0C37     		adds	r7, r7, #12
 362              	.LCFI19:
 363              		.cfi_def_cfa_offset 4
 364 000c BD46     		mov	sp, r7
 365              	.LCFI20:
 366              		.cfi_def_cfa_register 13
 367              		@ sp needed
 368 000e 5DF8047B 		ldr	r7, [sp], #4
 369              	.LCFI21:
 370              		.cfi_restore 7
 371              		.cfi_def_cfa_offset 0
 372 0012 7047     		bx	lr
 373              		.cfi_endproc
 374              	.LFE126:
 376              		.section	.text.HAL_I2C_Master_Transmit,"ax",%progbits
 377              		.align	1
 378              		.global	HAL_I2C_Master_Transmit
 379              		.syntax unified
 380              		.thumb
 381              		.thumb_func
 382              		.fpu fpv4-sp-d16
 384              	HAL_I2C_Master_Transmit:
 385              	.LFB127:
 649:Drivers/STM32F3xx_HAL_Driver/Src/stm32f3xx_hal_i2c.c **** 
 650:Drivers/STM32F3xx_HAL_Driver/Src/stm32f3xx_hal_i2c.c **** #if (USE_HAL_I2C_REGISTER_CALLBACKS == 1)
ARM GAS  /tmp/cc7eKD0K.s 			page 19


 651:Drivers/STM32F3xx_HAL_Driver/Src/stm32f3xx_hal_i2c.c **** /**
 652:Drivers/STM32F3xx_HAL_Driver/Src/stm32f3xx_hal_i2c.c ****   * @brief  Register a User I2C Callback
 653:Drivers/STM32F3xx_HAL_Driver/Src/stm32f3xx_hal_i2c.c ****   *         To be used instead of the weak predefined callback
 654:Drivers/STM32F3xx_HAL_Driver/Src/stm32f3xx_hal_i2c.c ****   * @param  hi2c Pointer to a I2C_HandleTypeDef structure that contains
 655:Drivers/STM32F3xx_HAL_Driver/Src/stm32f3xx_hal_i2c.c ****   *                the configuration information for the specified I2C.
 656:Drivers/STM32F3xx_HAL_Driver/Src/stm32f3xx_hal_i2c.c ****   * @param  CallbackID ID of the callback to be registered
 657:Drivers/STM32F3xx_HAL_Driver/Src/stm32f3xx_hal_i2c.c ****   *         This parameter can be one of the following values:
 658:Drivers/STM32F3xx_HAL_Driver/Src/stm32f3xx_hal_i2c.c ****   *          @arg @ref HAL_I2C_MASTER_TX_COMPLETE_CB_ID Master Tx Transfer completed callback ID
 659:Drivers/STM32F3xx_HAL_Driver/Src/stm32f3xx_hal_i2c.c ****   *          @arg @ref HAL_I2C_MASTER_RX_COMPLETE_CB_ID Master Rx Transfer completed callback ID
 660:Drivers/STM32F3xx_HAL_Driver/Src/stm32f3xx_hal_i2c.c ****   *          @arg @ref HAL_I2C_SLAVE_TX_COMPLETE_CB_ID Slave Tx Transfer completed callback ID
 661:Drivers/STM32F3xx_HAL_Driver/Src/stm32f3xx_hal_i2c.c ****   *          @arg @ref HAL_I2C_SLAVE_RX_COMPLETE_CB_ID Slave Rx Transfer completed callback ID
 662:Drivers/STM32F3xx_HAL_Driver/Src/stm32f3xx_hal_i2c.c ****   *          @arg @ref HAL_I2C_LISTEN_COMPLETE_CB_ID Listen Complete callback ID
 663:Drivers/STM32F3xx_HAL_Driver/Src/stm32f3xx_hal_i2c.c ****   *          @arg @ref HAL_I2C_MEM_TX_COMPLETE_CB_ID Memory Tx Transfer callback ID
 664:Drivers/STM32F3xx_HAL_Driver/Src/stm32f3xx_hal_i2c.c ****   *          @arg @ref HAL_I2C_MEM_RX_COMPLETE_CB_ID Memory Rx Transfer completed callback ID
 665:Drivers/STM32F3xx_HAL_Driver/Src/stm32f3xx_hal_i2c.c ****   *          @arg @ref HAL_I2C_ERROR_CB_ID Error callback ID
 666:Drivers/STM32F3xx_HAL_Driver/Src/stm32f3xx_hal_i2c.c ****   *          @arg @ref HAL_I2C_ABORT_CB_ID Abort callback ID
 667:Drivers/STM32F3xx_HAL_Driver/Src/stm32f3xx_hal_i2c.c ****   *          @arg @ref HAL_I2C_MSPINIT_CB_ID MspInit callback ID
 668:Drivers/STM32F3xx_HAL_Driver/Src/stm32f3xx_hal_i2c.c ****   *          @arg @ref HAL_I2C_MSPDEINIT_CB_ID MspDeInit callback ID
 669:Drivers/STM32F3xx_HAL_Driver/Src/stm32f3xx_hal_i2c.c ****   * @param  pCallback pointer to the Callback function
 670:Drivers/STM32F3xx_HAL_Driver/Src/stm32f3xx_hal_i2c.c ****   * @retval HAL status
 671:Drivers/STM32F3xx_HAL_Driver/Src/stm32f3xx_hal_i2c.c ****   */
 672:Drivers/STM32F3xx_HAL_Driver/Src/stm32f3xx_hal_i2c.c **** HAL_StatusTypeDef HAL_I2C_RegisterCallback(I2C_HandleTypeDef *hi2c, HAL_I2C_CallbackIDTypeDef Callb
 673:Drivers/STM32F3xx_HAL_Driver/Src/stm32f3xx_hal_i2c.c **** {
 674:Drivers/STM32F3xx_HAL_Driver/Src/stm32f3xx_hal_i2c.c ****   HAL_StatusTypeDef status = HAL_OK;
 675:Drivers/STM32F3xx_HAL_Driver/Src/stm32f3xx_hal_i2c.c **** 
 676:Drivers/STM32F3xx_HAL_Driver/Src/stm32f3xx_hal_i2c.c ****   if (pCallback == NULL)
 677:Drivers/STM32F3xx_HAL_Driver/Src/stm32f3xx_hal_i2c.c ****   {
 678:Drivers/STM32F3xx_HAL_Driver/Src/stm32f3xx_hal_i2c.c ****     /* Update the error code */
 679:Drivers/STM32F3xx_HAL_Driver/Src/stm32f3xx_hal_i2c.c ****     hi2c->ErrorCode |= HAL_I2C_ERROR_INVALID_CALLBACK;
 680:Drivers/STM32F3xx_HAL_Driver/Src/stm32f3xx_hal_i2c.c **** 
 681:Drivers/STM32F3xx_HAL_Driver/Src/stm32f3xx_hal_i2c.c ****     return HAL_ERROR;
 682:Drivers/STM32F3xx_HAL_Driver/Src/stm32f3xx_hal_i2c.c ****   }
 683:Drivers/STM32F3xx_HAL_Driver/Src/stm32f3xx_hal_i2c.c ****   /* Process locked */
 684:Drivers/STM32F3xx_HAL_Driver/Src/stm32f3xx_hal_i2c.c ****   __HAL_LOCK(hi2c);
 685:Drivers/STM32F3xx_HAL_Driver/Src/stm32f3xx_hal_i2c.c **** 
 686:Drivers/STM32F3xx_HAL_Driver/Src/stm32f3xx_hal_i2c.c ****   if (HAL_I2C_STATE_READY == hi2c->State)
 687:Drivers/STM32F3xx_HAL_Driver/Src/stm32f3xx_hal_i2c.c ****   {
 688:Drivers/STM32F3xx_HAL_Driver/Src/stm32f3xx_hal_i2c.c ****     switch (CallbackID)
 689:Drivers/STM32F3xx_HAL_Driver/Src/stm32f3xx_hal_i2c.c ****     {
 690:Drivers/STM32F3xx_HAL_Driver/Src/stm32f3xx_hal_i2c.c ****       case HAL_I2C_MASTER_TX_COMPLETE_CB_ID :
 691:Drivers/STM32F3xx_HAL_Driver/Src/stm32f3xx_hal_i2c.c ****         hi2c->MasterTxCpltCallback = pCallback;
 692:Drivers/STM32F3xx_HAL_Driver/Src/stm32f3xx_hal_i2c.c ****         break;
 693:Drivers/STM32F3xx_HAL_Driver/Src/stm32f3xx_hal_i2c.c **** 
 694:Drivers/STM32F3xx_HAL_Driver/Src/stm32f3xx_hal_i2c.c ****       case HAL_I2C_MASTER_RX_COMPLETE_CB_ID :
 695:Drivers/STM32F3xx_HAL_Driver/Src/stm32f3xx_hal_i2c.c ****         hi2c->MasterRxCpltCallback = pCallback;
 696:Drivers/STM32F3xx_HAL_Driver/Src/stm32f3xx_hal_i2c.c ****         break;
 697:Drivers/STM32F3xx_HAL_Driver/Src/stm32f3xx_hal_i2c.c **** 
 698:Drivers/STM32F3xx_HAL_Driver/Src/stm32f3xx_hal_i2c.c ****       case HAL_I2C_SLAVE_TX_COMPLETE_CB_ID :
 699:Drivers/STM32F3xx_HAL_Driver/Src/stm32f3xx_hal_i2c.c ****         hi2c->SlaveTxCpltCallback = pCallback;
 700:Drivers/STM32F3xx_HAL_Driver/Src/stm32f3xx_hal_i2c.c ****         break;
 701:Drivers/STM32F3xx_HAL_Driver/Src/stm32f3xx_hal_i2c.c **** 
 702:Drivers/STM32F3xx_HAL_Driver/Src/stm32f3xx_hal_i2c.c ****       case HAL_I2C_SLAVE_RX_COMPLETE_CB_ID :
 703:Drivers/STM32F3xx_HAL_Driver/Src/stm32f3xx_hal_i2c.c ****         hi2c->SlaveRxCpltCallback = pCallback;
 704:Drivers/STM32F3xx_HAL_Driver/Src/stm32f3xx_hal_i2c.c ****         break;
 705:Drivers/STM32F3xx_HAL_Driver/Src/stm32f3xx_hal_i2c.c **** 
 706:Drivers/STM32F3xx_HAL_Driver/Src/stm32f3xx_hal_i2c.c ****       case HAL_I2C_LISTEN_COMPLETE_CB_ID :
 707:Drivers/STM32F3xx_HAL_Driver/Src/stm32f3xx_hal_i2c.c ****         hi2c->ListenCpltCallback = pCallback;
ARM GAS  /tmp/cc7eKD0K.s 			page 20


 708:Drivers/STM32F3xx_HAL_Driver/Src/stm32f3xx_hal_i2c.c ****         break;
 709:Drivers/STM32F3xx_HAL_Driver/Src/stm32f3xx_hal_i2c.c **** 
 710:Drivers/STM32F3xx_HAL_Driver/Src/stm32f3xx_hal_i2c.c ****       case HAL_I2C_MEM_TX_COMPLETE_CB_ID :
 711:Drivers/STM32F3xx_HAL_Driver/Src/stm32f3xx_hal_i2c.c ****         hi2c->MemTxCpltCallback = pCallback;
 712:Drivers/STM32F3xx_HAL_Driver/Src/stm32f3xx_hal_i2c.c ****         break;
 713:Drivers/STM32F3xx_HAL_Driver/Src/stm32f3xx_hal_i2c.c **** 
 714:Drivers/STM32F3xx_HAL_Driver/Src/stm32f3xx_hal_i2c.c ****       case HAL_I2C_MEM_RX_COMPLETE_CB_ID :
 715:Drivers/STM32F3xx_HAL_Driver/Src/stm32f3xx_hal_i2c.c ****         hi2c->MemRxCpltCallback = pCallback;
 716:Drivers/STM32F3xx_HAL_Driver/Src/stm32f3xx_hal_i2c.c ****         break;
 717:Drivers/STM32F3xx_HAL_Driver/Src/stm32f3xx_hal_i2c.c **** 
 718:Drivers/STM32F3xx_HAL_Driver/Src/stm32f3xx_hal_i2c.c ****       case HAL_I2C_ERROR_CB_ID :
 719:Drivers/STM32F3xx_HAL_Driver/Src/stm32f3xx_hal_i2c.c ****         hi2c->ErrorCallback = pCallback;
 720:Drivers/STM32F3xx_HAL_Driver/Src/stm32f3xx_hal_i2c.c ****         break;
 721:Drivers/STM32F3xx_HAL_Driver/Src/stm32f3xx_hal_i2c.c **** 
 722:Drivers/STM32F3xx_HAL_Driver/Src/stm32f3xx_hal_i2c.c ****       case HAL_I2C_ABORT_CB_ID :
 723:Drivers/STM32F3xx_HAL_Driver/Src/stm32f3xx_hal_i2c.c ****         hi2c->AbortCpltCallback = pCallback;
 724:Drivers/STM32F3xx_HAL_Driver/Src/stm32f3xx_hal_i2c.c ****         break;
 725:Drivers/STM32F3xx_HAL_Driver/Src/stm32f3xx_hal_i2c.c **** 
 726:Drivers/STM32F3xx_HAL_Driver/Src/stm32f3xx_hal_i2c.c ****       case HAL_I2C_MSPINIT_CB_ID :
 727:Drivers/STM32F3xx_HAL_Driver/Src/stm32f3xx_hal_i2c.c ****         hi2c->MspInitCallback = pCallback;
 728:Drivers/STM32F3xx_HAL_Driver/Src/stm32f3xx_hal_i2c.c ****         break;
 729:Drivers/STM32F3xx_HAL_Driver/Src/stm32f3xx_hal_i2c.c **** 
 730:Drivers/STM32F3xx_HAL_Driver/Src/stm32f3xx_hal_i2c.c ****       case HAL_I2C_MSPDEINIT_CB_ID :
 731:Drivers/STM32F3xx_HAL_Driver/Src/stm32f3xx_hal_i2c.c ****         hi2c->MspDeInitCallback = pCallback;
 732:Drivers/STM32F3xx_HAL_Driver/Src/stm32f3xx_hal_i2c.c ****         break;
 733:Drivers/STM32F3xx_HAL_Driver/Src/stm32f3xx_hal_i2c.c **** 
 734:Drivers/STM32F3xx_HAL_Driver/Src/stm32f3xx_hal_i2c.c ****       default :
 735:Drivers/STM32F3xx_HAL_Driver/Src/stm32f3xx_hal_i2c.c ****         /* Update the error code */
 736:Drivers/STM32F3xx_HAL_Driver/Src/stm32f3xx_hal_i2c.c ****         hi2c->ErrorCode |= HAL_I2C_ERROR_INVALID_CALLBACK;
 737:Drivers/STM32F3xx_HAL_Driver/Src/stm32f3xx_hal_i2c.c **** 
 738:Drivers/STM32F3xx_HAL_Driver/Src/stm32f3xx_hal_i2c.c ****         /* Return error status */
 739:Drivers/STM32F3xx_HAL_Driver/Src/stm32f3xx_hal_i2c.c ****         status =  HAL_ERROR;
 740:Drivers/STM32F3xx_HAL_Driver/Src/stm32f3xx_hal_i2c.c ****         break;
 741:Drivers/STM32F3xx_HAL_Driver/Src/stm32f3xx_hal_i2c.c ****     }
 742:Drivers/STM32F3xx_HAL_Driver/Src/stm32f3xx_hal_i2c.c ****   }
 743:Drivers/STM32F3xx_HAL_Driver/Src/stm32f3xx_hal_i2c.c ****   else if (HAL_I2C_STATE_RESET == hi2c->State)
 744:Drivers/STM32F3xx_HAL_Driver/Src/stm32f3xx_hal_i2c.c ****   {
 745:Drivers/STM32F3xx_HAL_Driver/Src/stm32f3xx_hal_i2c.c ****     switch (CallbackID)
 746:Drivers/STM32F3xx_HAL_Driver/Src/stm32f3xx_hal_i2c.c ****     {
 747:Drivers/STM32F3xx_HAL_Driver/Src/stm32f3xx_hal_i2c.c ****       case HAL_I2C_MSPINIT_CB_ID :
 748:Drivers/STM32F3xx_HAL_Driver/Src/stm32f3xx_hal_i2c.c ****         hi2c->MspInitCallback = pCallback;
 749:Drivers/STM32F3xx_HAL_Driver/Src/stm32f3xx_hal_i2c.c ****         break;
 750:Drivers/STM32F3xx_HAL_Driver/Src/stm32f3xx_hal_i2c.c **** 
 751:Drivers/STM32F3xx_HAL_Driver/Src/stm32f3xx_hal_i2c.c ****       case HAL_I2C_MSPDEINIT_CB_ID :
 752:Drivers/STM32F3xx_HAL_Driver/Src/stm32f3xx_hal_i2c.c ****         hi2c->MspDeInitCallback = pCallback;
 753:Drivers/STM32F3xx_HAL_Driver/Src/stm32f3xx_hal_i2c.c ****         break;
 754:Drivers/STM32F3xx_HAL_Driver/Src/stm32f3xx_hal_i2c.c **** 
 755:Drivers/STM32F3xx_HAL_Driver/Src/stm32f3xx_hal_i2c.c ****       default :
 756:Drivers/STM32F3xx_HAL_Driver/Src/stm32f3xx_hal_i2c.c ****         /* Update the error code */
 757:Drivers/STM32F3xx_HAL_Driver/Src/stm32f3xx_hal_i2c.c ****         hi2c->ErrorCode |= HAL_I2C_ERROR_INVALID_CALLBACK;
 758:Drivers/STM32F3xx_HAL_Driver/Src/stm32f3xx_hal_i2c.c **** 
 759:Drivers/STM32F3xx_HAL_Driver/Src/stm32f3xx_hal_i2c.c ****         /* Return error status */
 760:Drivers/STM32F3xx_HAL_Driver/Src/stm32f3xx_hal_i2c.c ****         status =  HAL_ERROR;
 761:Drivers/STM32F3xx_HAL_Driver/Src/stm32f3xx_hal_i2c.c ****         break;
 762:Drivers/STM32F3xx_HAL_Driver/Src/stm32f3xx_hal_i2c.c ****     }
 763:Drivers/STM32F3xx_HAL_Driver/Src/stm32f3xx_hal_i2c.c ****   }
 764:Drivers/STM32F3xx_HAL_Driver/Src/stm32f3xx_hal_i2c.c ****   else
ARM GAS  /tmp/cc7eKD0K.s 			page 21


 765:Drivers/STM32F3xx_HAL_Driver/Src/stm32f3xx_hal_i2c.c ****   {
 766:Drivers/STM32F3xx_HAL_Driver/Src/stm32f3xx_hal_i2c.c ****     /* Update the error code */
 767:Drivers/STM32F3xx_HAL_Driver/Src/stm32f3xx_hal_i2c.c ****     hi2c->ErrorCode |= HAL_I2C_ERROR_INVALID_CALLBACK;
 768:Drivers/STM32F3xx_HAL_Driver/Src/stm32f3xx_hal_i2c.c **** 
 769:Drivers/STM32F3xx_HAL_Driver/Src/stm32f3xx_hal_i2c.c ****     /* Return error status */
 770:Drivers/STM32F3xx_HAL_Driver/Src/stm32f3xx_hal_i2c.c ****     status =  HAL_ERROR;
 771:Drivers/STM32F3xx_HAL_Driver/Src/stm32f3xx_hal_i2c.c ****   }
 772:Drivers/STM32F3xx_HAL_Driver/Src/stm32f3xx_hal_i2c.c **** 
 773:Drivers/STM32F3xx_HAL_Driver/Src/stm32f3xx_hal_i2c.c ****   /* Release Lock */
 774:Drivers/STM32F3xx_HAL_Driver/Src/stm32f3xx_hal_i2c.c ****   __HAL_UNLOCK(hi2c);
 775:Drivers/STM32F3xx_HAL_Driver/Src/stm32f3xx_hal_i2c.c ****   return status;
 776:Drivers/STM32F3xx_HAL_Driver/Src/stm32f3xx_hal_i2c.c **** }
 777:Drivers/STM32F3xx_HAL_Driver/Src/stm32f3xx_hal_i2c.c **** 
 778:Drivers/STM32F3xx_HAL_Driver/Src/stm32f3xx_hal_i2c.c **** /**
 779:Drivers/STM32F3xx_HAL_Driver/Src/stm32f3xx_hal_i2c.c ****   * @brief  Unregister an I2C Callback
 780:Drivers/STM32F3xx_HAL_Driver/Src/stm32f3xx_hal_i2c.c ****   *         I2C callback is redirected to the weak predefined callback
 781:Drivers/STM32F3xx_HAL_Driver/Src/stm32f3xx_hal_i2c.c ****   * @param  hi2c Pointer to a I2C_HandleTypeDef structure that contains
 782:Drivers/STM32F3xx_HAL_Driver/Src/stm32f3xx_hal_i2c.c ****   *                the configuration information for the specified I2C.
 783:Drivers/STM32F3xx_HAL_Driver/Src/stm32f3xx_hal_i2c.c ****   * @param  CallbackID ID of the callback to be unregistered
 784:Drivers/STM32F3xx_HAL_Driver/Src/stm32f3xx_hal_i2c.c ****   *         This parameter can be one of the following values:
 785:Drivers/STM32F3xx_HAL_Driver/Src/stm32f3xx_hal_i2c.c ****   *         This parameter can be one of the following values:
 786:Drivers/STM32F3xx_HAL_Driver/Src/stm32f3xx_hal_i2c.c ****   *          @arg @ref HAL_I2C_MASTER_TX_COMPLETE_CB_ID Master Tx Transfer completed callback ID
 787:Drivers/STM32F3xx_HAL_Driver/Src/stm32f3xx_hal_i2c.c ****   *          @arg @ref HAL_I2C_MASTER_RX_COMPLETE_CB_ID Master Rx Transfer completed callback ID
 788:Drivers/STM32F3xx_HAL_Driver/Src/stm32f3xx_hal_i2c.c ****   *          @arg @ref HAL_I2C_SLAVE_TX_COMPLETE_CB_ID Slave Tx Transfer completed callback ID
 789:Drivers/STM32F3xx_HAL_Driver/Src/stm32f3xx_hal_i2c.c ****   *          @arg @ref HAL_I2C_SLAVE_RX_COMPLETE_CB_ID Slave Rx Transfer completed callback ID
 790:Drivers/STM32F3xx_HAL_Driver/Src/stm32f3xx_hal_i2c.c ****   *          @arg @ref HAL_I2C_LISTEN_COMPLETE_CB_ID Listen Complete callback ID
 791:Drivers/STM32F3xx_HAL_Driver/Src/stm32f3xx_hal_i2c.c ****   *          @arg @ref HAL_I2C_MEM_TX_COMPLETE_CB_ID Memory Tx Transfer callback ID
 792:Drivers/STM32F3xx_HAL_Driver/Src/stm32f3xx_hal_i2c.c ****   *          @arg @ref HAL_I2C_MEM_RX_COMPLETE_CB_ID Memory Rx Transfer completed callback ID
 793:Drivers/STM32F3xx_HAL_Driver/Src/stm32f3xx_hal_i2c.c ****   *          @arg @ref HAL_I2C_ERROR_CB_ID Error callback ID
 794:Drivers/STM32F3xx_HAL_Driver/Src/stm32f3xx_hal_i2c.c ****   *          @arg @ref HAL_I2C_ABORT_CB_ID Abort callback ID
 795:Drivers/STM32F3xx_HAL_Driver/Src/stm32f3xx_hal_i2c.c ****   *          @arg @ref HAL_I2C_MSPINIT_CB_ID MspInit callback ID
 796:Drivers/STM32F3xx_HAL_Driver/Src/stm32f3xx_hal_i2c.c ****   *          @arg @ref HAL_I2C_MSPDEINIT_CB_ID MspDeInit callback ID
 797:Drivers/STM32F3xx_HAL_Driver/Src/stm32f3xx_hal_i2c.c ****   * @retval HAL status
 798:Drivers/STM32F3xx_HAL_Driver/Src/stm32f3xx_hal_i2c.c ****   */
 799:Drivers/STM32F3xx_HAL_Driver/Src/stm32f3xx_hal_i2c.c **** HAL_StatusTypeDef HAL_I2C_UnRegisterCallback(I2C_HandleTypeDef *hi2c, HAL_I2C_CallbackIDTypeDef Cal
 800:Drivers/STM32F3xx_HAL_Driver/Src/stm32f3xx_hal_i2c.c **** {
 801:Drivers/STM32F3xx_HAL_Driver/Src/stm32f3xx_hal_i2c.c ****   HAL_StatusTypeDef status = HAL_OK;
 802:Drivers/STM32F3xx_HAL_Driver/Src/stm32f3xx_hal_i2c.c **** 
 803:Drivers/STM32F3xx_HAL_Driver/Src/stm32f3xx_hal_i2c.c ****   /* Process locked */
 804:Drivers/STM32F3xx_HAL_Driver/Src/stm32f3xx_hal_i2c.c ****   __HAL_LOCK(hi2c);
 805:Drivers/STM32F3xx_HAL_Driver/Src/stm32f3xx_hal_i2c.c **** 
 806:Drivers/STM32F3xx_HAL_Driver/Src/stm32f3xx_hal_i2c.c ****   if (HAL_I2C_STATE_READY == hi2c->State)
 807:Drivers/STM32F3xx_HAL_Driver/Src/stm32f3xx_hal_i2c.c ****   {
 808:Drivers/STM32F3xx_HAL_Driver/Src/stm32f3xx_hal_i2c.c ****     switch (CallbackID)
 809:Drivers/STM32F3xx_HAL_Driver/Src/stm32f3xx_hal_i2c.c ****     {
 810:Drivers/STM32F3xx_HAL_Driver/Src/stm32f3xx_hal_i2c.c ****       case HAL_I2C_MASTER_TX_COMPLETE_CB_ID :
 811:Drivers/STM32F3xx_HAL_Driver/Src/stm32f3xx_hal_i2c.c ****         hi2c->MasterTxCpltCallback = HAL_I2C_MasterTxCpltCallback; /* Legacy weak MasterTxCpltCallb
 812:Drivers/STM32F3xx_HAL_Driver/Src/stm32f3xx_hal_i2c.c ****         break;
 813:Drivers/STM32F3xx_HAL_Driver/Src/stm32f3xx_hal_i2c.c **** 
 814:Drivers/STM32F3xx_HAL_Driver/Src/stm32f3xx_hal_i2c.c ****       case HAL_I2C_MASTER_RX_COMPLETE_CB_ID :
 815:Drivers/STM32F3xx_HAL_Driver/Src/stm32f3xx_hal_i2c.c ****         hi2c->MasterRxCpltCallback = HAL_I2C_MasterRxCpltCallback; /* Legacy weak MasterRxCpltCallb
 816:Drivers/STM32F3xx_HAL_Driver/Src/stm32f3xx_hal_i2c.c ****         break;
 817:Drivers/STM32F3xx_HAL_Driver/Src/stm32f3xx_hal_i2c.c **** 
 818:Drivers/STM32F3xx_HAL_Driver/Src/stm32f3xx_hal_i2c.c ****       case HAL_I2C_SLAVE_TX_COMPLETE_CB_ID :
 819:Drivers/STM32F3xx_HAL_Driver/Src/stm32f3xx_hal_i2c.c ****         hi2c->SlaveTxCpltCallback = HAL_I2C_SlaveTxCpltCallback;   /* Legacy weak SlaveTxCpltCallba
 820:Drivers/STM32F3xx_HAL_Driver/Src/stm32f3xx_hal_i2c.c ****         break;
 821:Drivers/STM32F3xx_HAL_Driver/Src/stm32f3xx_hal_i2c.c **** 
ARM GAS  /tmp/cc7eKD0K.s 			page 22


 822:Drivers/STM32F3xx_HAL_Driver/Src/stm32f3xx_hal_i2c.c ****       case HAL_I2C_SLAVE_RX_COMPLETE_CB_ID :
 823:Drivers/STM32F3xx_HAL_Driver/Src/stm32f3xx_hal_i2c.c ****         hi2c->SlaveRxCpltCallback = HAL_I2C_SlaveRxCpltCallback;   /* Legacy weak SlaveRxCpltCallba
 824:Drivers/STM32F3xx_HAL_Driver/Src/stm32f3xx_hal_i2c.c ****         break;
 825:Drivers/STM32F3xx_HAL_Driver/Src/stm32f3xx_hal_i2c.c **** 
 826:Drivers/STM32F3xx_HAL_Driver/Src/stm32f3xx_hal_i2c.c ****       case HAL_I2C_LISTEN_COMPLETE_CB_ID :
 827:Drivers/STM32F3xx_HAL_Driver/Src/stm32f3xx_hal_i2c.c ****         hi2c->ListenCpltCallback = HAL_I2C_ListenCpltCallback;     /* Legacy weak ListenCpltCallbac
 828:Drivers/STM32F3xx_HAL_Driver/Src/stm32f3xx_hal_i2c.c ****         break;
 829:Drivers/STM32F3xx_HAL_Driver/Src/stm32f3xx_hal_i2c.c **** 
 830:Drivers/STM32F3xx_HAL_Driver/Src/stm32f3xx_hal_i2c.c ****       case HAL_I2C_MEM_TX_COMPLETE_CB_ID :
 831:Drivers/STM32F3xx_HAL_Driver/Src/stm32f3xx_hal_i2c.c ****         hi2c->MemTxCpltCallback = HAL_I2C_MemTxCpltCallback;       /* Legacy weak MemTxCpltCallback
 832:Drivers/STM32F3xx_HAL_Driver/Src/stm32f3xx_hal_i2c.c ****         break;
 833:Drivers/STM32F3xx_HAL_Driver/Src/stm32f3xx_hal_i2c.c **** 
 834:Drivers/STM32F3xx_HAL_Driver/Src/stm32f3xx_hal_i2c.c ****       case HAL_I2C_MEM_RX_COMPLETE_CB_ID :
 835:Drivers/STM32F3xx_HAL_Driver/Src/stm32f3xx_hal_i2c.c ****         hi2c->MemRxCpltCallback = HAL_I2C_MemRxCpltCallback;       /* Legacy weak MemRxCpltCallback
 836:Drivers/STM32F3xx_HAL_Driver/Src/stm32f3xx_hal_i2c.c ****         break;
 837:Drivers/STM32F3xx_HAL_Driver/Src/stm32f3xx_hal_i2c.c **** 
 838:Drivers/STM32F3xx_HAL_Driver/Src/stm32f3xx_hal_i2c.c ****       case HAL_I2C_ERROR_CB_ID :
 839:Drivers/STM32F3xx_HAL_Driver/Src/stm32f3xx_hal_i2c.c ****         hi2c->ErrorCallback = HAL_I2C_ErrorCallback;               /* Legacy weak ErrorCallback    
 840:Drivers/STM32F3xx_HAL_Driver/Src/stm32f3xx_hal_i2c.c ****         break;
 841:Drivers/STM32F3xx_HAL_Driver/Src/stm32f3xx_hal_i2c.c **** 
 842:Drivers/STM32F3xx_HAL_Driver/Src/stm32f3xx_hal_i2c.c ****       case HAL_I2C_ABORT_CB_ID :
 843:Drivers/STM32F3xx_HAL_Driver/Src/stm32f3xx_hal_i2c.c ****         hi2c->AbortCpltCallback = HAL_I2C_AbortCpltCallback;       /* Legacy weak AbortCpltCallback
 844:Drivers/STM32F3xx_HAL_Driver/Src/stm32f3xx_hal_i2c.c ****         break;
 845:Drivers/STM32F3xx_HAL_Driver/Src/stm32f3xx_hal_i2c.c **** 
 846:Drivers/STM32F3xx_HAL_Driver/Src/stm32f3xx_hal_i2c.c ****       case HAL_I2C_MSPINIT_CB_ID :
 847:Drivers/STM32F3xx_HAL_Driver/Src/stm32f3xx_hal_i2c.c ****         hi2c->MspInitCallback = HAL_I2C_MspInit;                   /* Legacy weak MspInit          
 848:Drivers/STM32F3xx_HAL_Driver/Src/stm32f3xx_hal_i2c.c ****         break;
 849:Drivers/STM32F3xx_HAL_Driver/Src/stm32f3xx_hal_i2c.c **** 
 850:Drivers/STM32F3xx_HAL_Driver/Src/stm32f3xx_hal_i2c.c ****       case HAL_I2C_MSPDEINIT_CB_ID :
 851:Drivers/STM32F3xx_HAL_Driver/Src/stm32f3xx_hal_i2c.c ****         hi2c->MspDeInitCallback = HAL_I2C_MspDeInit;               /* Legacy weak MspDeInit        
 852:Drivers/STM32F3xx_HAL_Driver/Src/stm32f3xx_hal_i2c.c ****         break;
 853:Drivers/STM32F3xx_HAL_Driver/Src/stm32f3xx_hal_i2c.c **** 
 854:Drivers/STM32F3xx_HAL_Driver/Src/stm32f3xx_hal_i2c.c ****       default :
 855:Drivers/STM32F3xx_HAL_Driver/Src/stm32f3xx_hal_i2c.c ****         /* Update the error code */
 856:Drivers/STM32F3xx_HAL_Driver/Src/stm32f3xx_hal_i2c.c ****         hi2c->ErrorCode |= HAL_I2C_ERROR_INVALID_CALLBACK;
 857:Drivers/STM32F3xx_HAL_Driver/Src/stm32f3xx_hal_i2c.c **** 
 858:Drivers/STM32F3xx_HAL_Driver/Src/stm32f3xx_hal_i2c.c ****         /* Return error status */
 859:Drivers/STM32F3xx_HAL_Driver/Src/stm32f3xx_hal_i2c.c ****         status =  HAL_ERROR;
 860:Drivers/STM32F3xx_HAL_Driver/Src/stm32f3xx_hal_i2c.c ****         break;
 861:Drivers/STM32F3xx_HAL_Driver/Src/stm32f3xx_hal_i2c.c ****     }
 862:Drivers/STM32F3xx_HAL_Driver/Src/stm32f3xx_hal_i2c.c ****   }
 863:Drivers/STM32F3xx_HAL_Driver/Src/stm32f3xx_hal_i2c.c ****   else if (HAL_I2C_STATE_RESET == hi2c->State)
 864:Drivers/STM32F3xx_HAL_Driver/Src/stm32f3xx_hal_i2c.c ****   {
 865:Drivers/STM32F3xx_HAL_Driver/Src/stm32f3xx_hal_i2c.c ****     switch (CallbackID)
 866:Drivers/STM32F3xx_HAL_Driver/Src/stm32f3xx_hal_i2c.c ****     {
 867:Drivers/STM32F3xx_HAL_Driver/Src/stm32f3xx_hal_i2c.c ****       case HAL_I2C_MSPINIT_CB_ID :
 868:Drivers/STM32F3xx_HAL_Driver/Src/stm32f3xx_hal_i2c.c ****         hi2c->MspInitCallback = HAL_I2C_MspInit;                   /* Legacy weak MspInit          
 869:Drivers/STM32F3xx_HAL_Driver/Src/stm32f3xx_hal_i2c.c ****         break;
 870:Drivers/STM32F3xx_HAL_Driver/Src/stm32f3xx_hal_i2c.c **** 
 871:Drivers/STM32F3xx_HAL_Driver/Src/stm32f3xx_hal_i2c.c ****       case HAL_I2C_MSPDEINIT_CB_ID :
 872:Drivers/STM32F3xx_HAL_Driver/Src/stm32f3xx_hal_i2c.c ****         hi2c->MspDeInitCallback = HAL_I2C_MspDeInit;               /* Legacy weak MspDeInit        
 873:Drivers/STM32F3xx_HAL_Driver/Src/stm32f3xx_hal_i2c.c ****         break;
 874:Drivers/STM32F3xx_HAL_Driver/Src/stm32f3xx_hal_i2c.c **** 
 875:Drivers/STM32F3xx_HAL_Driver/Src/stm32f3xx_hal_i2c.c ****       default :
 876:Drivers/STM32F3xx_HAL_Driver/Src/stm32f3xx_hal_i2c.c ****         /* Update the error code */
 877:Drivers/STM32F3xx_HAL_Driver/Src/stm32f3xx_hal_i2c.c ****         hi2c->ErrorCode |= HAL_I2C_ERROR_INVALID_CALLBACK;
 878:Drivers/STM32F3xx_HAL_Driver/Src/stm32f3xx_hal_i2c.c **** 
ARM GAS  /tmp/cc7eKD0K.s 			page 23


 879:Drivers/STM32F3xx_HAL_Driver/Src/stm32f3xx_hal_i2c.c ****         /* Return error status */
 880:Drivers/STM32F3xx_HAL_Driver/Src/stm32f3xx_hal_i2c.c ****         status =  HAL_ERROR;
 881:Drivers/STM32F3xx_HAL_Driver/Src/stm32f3xx_hal_i2c.c ****         break;
 882:Drivers/STM32F3xx_HAL_Driver/Src/stm32f3xx_hal_i2c.c ****     }
 883:Drivers/STM32F3xx_HAL_Driver/Src/stm32f3xx_hal_i2c.c ****   }
 884:Drivers/STM32F3xx_HAL_Driver/Src/stm32f3xx_hal_i2c.c ****   else
 885:Drivers/STM32F3xx_HAL_Driver/Src/stm32f3xx_hal_i2c.c ****   {
 886:Drivers/STM32F3xx_HAL_Driver/Src/stm32f3xx_hal_i2c.c ****     /* Update the error code */
 887:Drivers/STM32F3xx_HAL_Driver/Src/stm32f3xx_hal_i2c.c ****     hi2c->ErrorCode |= HAL_I2C_ERROR_INVALID_CALLBACK;
 888:Drivers/STM32F3xx_HAL_Driver/Src/stm32f3xx_hal_i2c.c **** 
 889:Drivers/STM32F3xx_HAL_Driver/Src/stm32f3xx_hal_i2c.c ****     /* Return error status */
 890:Drivers/STM32F3xx_HAL_Driver/Src/stm32f3xx_hal_i2c.c ****     status =  HAL_ERROR;
 891:Drivers/STM32F3xx_HAL_Driver/Src/stm32f3xx_hal_i2c.c ****   }
 892:Drivers/STM32F3xx_HAL_Driver/Src/stm32f3xx_hal_i2c.c **** 
 893:Drivers/STM32F3xx_HAL_Driver/Src/stm32f3xx_hal_i2c.c ****   /* Release Lock */
 894:Drivers/STM32F3xx_HAL_Driver/Src/stm32f3xx_hal_i2c.c ****   __HAL_UNLOCK(hi2c);
 895:Drivers/STM32F3xx_HAL_Driver/Src/stm32f3xx_hal_i2c.c ****   return status;
 896:Drivers/STM32F3xx_HAL_Driver/Src/stm32f3xx_hal_i2c.c **** }
 897:Drivers/STM32F3xx_HAL_Driver/Src/stm32f3xx_hal_i2c.c **** 
 898:Drivers/STM32F3xx_HAL_Driver/Src/stm32f3xx_hal_i2c.c **** /**
 899:Drivers/STM32F3xx_HAL_Driver/Src/stm32f3xx_hal_i2c.c ****   * @brief  Register the Slave Address Match I2C Callback
 900:Drivers/STM32F3xx_HAL_Driver/Src/stm32f3xx_hal_i2c.c ****   *         To be used instead of the weak HAL_I2C_AddrCallback() predefined callback
 901:Drivers/STM32F3xx_HAL_Driver/Src/stm32f3xx_hal_i2c.c ****   * @param  hi2c Pointer to a I2C_HandleTypeDef structure that contains
 902:Drivers/STM32F3xx_HAL_Driver/Src/stm32f3xx_hal_i2c.c ****   *                the configuration information for the specified I2C.
 903:Drivers/STM32F3xx_HAL_Driver/Src/stm32f3xx_hal_i2c.c ****   * @param  pCallback pointer to the Address Match Callback function
 904:Drivers/STM32F3xx_HAL_Driver/Src/stm32f3xx_hal_i2c.c ****   * @retval HAL status
 905:Drivers/STM32F3xx_HAL_Driver/Src/stm32f3xx_hal_i2c.c ****   */
 906:Drivers/STM32F3xx_HAL_Driver/Src/stm32f3xx_hal_i2c.c **** HAL_StatusTypeDef HAL_I2C_RegisterAddrCallback(I2C_HandleTypeDef *hi2c, pI2C_AddrCallbackTypeDef pC
 907:Drivers/STM32F3xx_HAL_Driver/Src/stm32f3xx_hal_i2c.c **** {
 908:Drivers/STM32F3xx_HAL_Driver/Src/stm32f3xx_hal_i2c.c ****   HAL_StatusTypeDef status = HAL_OK;
 909:Drivers/STM32F3xx_HAL_Driver/Src/stm32f3xx_hal_i2c.c **** 
 910:Drivers/STM32F3xx_HAL_Driver/Src/stm32f3xx_hal_i2c.c ****   if (pCallback == NULL)
 911:Drivers/STM32F3xx_HAL_Driver/Src/stm32f3xx_hal_i2c.c ****   {
 912:Drivers/STM32F3xx_HAL_Driver/Src/stm32f3xx_hal_i2c.c ****     /* Update the error code */
 913:Drivers/STM32F3xx_HAL_Driver/Src/stm32f3xx_hal_i2c.c ****     hi2c->ErrorCode |= HAL_I2C_ERROR_INVALID_CALLBACK;
 914:Drivers/STM32F3xx_HAL_Driver/Src/stm32f3xx_hal_i2c.c **** 
 915:Drivers/STM32F3xx_HAL_Driver/Src/stm32f3xx_hal_i2c.c ****     return HAL_ERROR;
 916:Drivers/STM32F3xx_HAL_Driver/Src/stm32f3xx_hal_i2c.c ****   }
 917:Drivers/STM32F3xx_HAL_Driver/Src/stm32f3xx_hal_i2c.c ****   /* Process locked */
 918:Drivers/STM32F3xx_HAL_Driver/Src/stm32f3xx_hal_i2c.c ****   __HAL_LOCK(hi2c);
 919:Drivers/STM32F3xx_HAL_Driver/Src/stm32f3xx_hal_i2c.c **** 
 920:Drivers/STM32F3xx_HAL_Driver/Src/stm32f3xx_hal_i2c.c ****   if (HAL_I2C_STATE_READY == hi2c->State)
 921:Drivers/STM32F3xx_HAL_Driver/Src/stm32f3xx_hal_i2c.c ****   {
 922:Drivers/STM32F3xx_HAL_Driver/Src/stm32f3xx_hal_i2c.c ****     hi2c->AddrCallback = pCallback;
 923:Drivers/STM32F3xx_HAL_Driver/Src/stm32f3xx_hal_i2c.c ****   }
 924:Drivers/STM32F3xx_HAL_Driver/Src/stm32f3xx_hal_i2c.c ****   else
 925:Drivers/STM32F3xx_HAL_Driver/Src/stm32f3xx_hal_i2c.c ****   {
 926:Drivers/STM32F3xx_HAL_Driver/Src/stm32f3xx_hal_i2c.c ****     /* Update the error code */
 927:Drivers/STM32F3xx_HAL_Driver/Src/stm32f3xx_hal_i2c.c ****     hi2c->ErrorCode |= HAL_I2C_ERROR_INVALID_CALLBACK;
 928:Drivers/STM32F3xx_HAL_Driver/Src/stm32f3xx_hal_i2c.c **** 
 929:Drivers/STM32F3xx_HAL_Driver/Src/stm32f3xx_hal_i2c.c ****     /* Return error status */
 930:Drivers/STM32F3xx_HAL_Driver/Src/stm32f3xx_hal_i2c.c ****     status =  HAL_ERROR;
 931:Drivers/STM32F3xx_HAL_Driver/Src/stm32f3xx_hal_i2c.c ****   }
 932:Drivers/STM32F3xx_HAL_Driver/Src/stm32f3xx_hal_i2c.c **** 
 933:Drivers/STM32F3xx_HAL_Driver/Src/stm32f3xx_hal_i2c.c ****   /* Release Lock */
 934:Drivers/STM32F3xx_HAL_Driver/Src/stm32f3xx_hal_i2c.c ****   __HAL_UNLOCK(hi2c);
 935:Drivers/STM32F3xx_HAL_Driver/Src/stm32f3xx_hal_i2c.c ****   return status;
ARM GAS  /tmp/cc7eKD0K.s 			page 24


 936:Drivers/STM32F3xx_HAL_Driver/Src/stm32f3xx_hal_i2c.c **** }
 937:Drivers/STM32F3xx_HAL_Driver/Src/stm32f3xx_hal_i2c.c **** 
 938:Drivers/STM32F3xx_HAL_Driver/Src/stm32f3xx_hal_i2c.c **** /**
 939:Drivers/STM32F3xx_HAL_Driver/Src/stm32f3xx_hal_i2c.c ****   * @brief  UnRegister the Slave Address Match I2C Callback
 940:Drivers/STM32F3xx_HAL_Driver/Src/stm32f3xx_hal_i2c.c ****   *         Info Ready I2C Callback is redirected to the weak HAL_I2C_AddrCallback() predefined cal
 941:Drivers/STM32F3xx_HAL_Driver/Src/stm32f3xx_hal_i2c.c ****   * @param  hi2c Pointer to a I2C_HandleTypeDef structure that contains
 942:Drivers/STM32F3xx_HAL_Driver/Src/stm32f3xx_hal_i2c.c ****   *                the configuration information for the specified I2C.
 943:Drivers/STM32F3xx_HAL_Driver/Src/stm32f3xx_hal_i2c.c ****   * @retval HAL status
 944:Drivers/STM32F3xx_HAL_Driver/Src/stm32f3xx_hal_i2c.c ****   */
 945:Drivers/STM32F3xx_HAL_Driver/Src/stm32f3xx_hal_i2c.c **** HAL_StatusTypeDef HAL_I2C_UnRegisterAddrCallback(I2C_HandleTypeDef *hi2c)
 946:Drivers/STM32F3xx_HAL_Driver/Src/stm32f3xx_hal_i2c.c **** {
 947:Drivers/STM32F3xx_HAL_Driver/Src/stm32f3xx_hal_i2c.c ****   HAL_StatusTypeDef status = HAL_OK;
 948:Drivers/STM32F3xx_HAL_Driver/Src/stm32f3xx_hal_i2c.c **** 
 949:Drivers/STM32F3xx_HAL_Driver/Src/stm32f3xx_hal_i2c.c ****   /* Process locked */
 950:Drivers/STM32F3xx_HAL_Driver/Src/stm32f3xx_hal_i2c.c ****   __HAL_LOCK(hi2c);
 951:Drivers/STM32F3xx_HAL_Driver/Src/stm32f3xx_hal_i2c.c **** 
 952:Drivers/STM32F3xx_HAL_Driver/Src/stm32f3xx_hal_i2c.c ****   if (HAL_I2C_STATE_READY == hi2c->State)
 953:Drivers/STM32F3xx_HAL_Driver/Src/stm32f3xx_hal_i2c.c ****   {
 954:Drivers/STM32F3xx_HAL_Driver/Src/stm32f3xx_hal_i2c.c ****     hi2c->AddrCallback = HAL_I2C_AddrCallback; /* Legacy weak AddrCallback  */
 955:Drivers/STM32F3xx_HAL_Driver/Src/stm32f3xx_hal_i2c.c ****   }
 956:Drivers/STM32F3xx_HAL_Driver/Src/stm32f3xx_hal_i2c.c ****   else
 957:Drivers/STM32F3xx_HAL_Driver/Src/stm32f3xx_hal_i2c.c ****   {
 958:Drivers/STM32F3xx_HAL_Driver/Src/stm32f3xx_hal_i2c.c ****     /* Update the error code */
 959:Drivers/STM32F3xx_HAL_Driver/Src/stm32f3xx_hal_i2c.c ****     hi2c->ErrorCode |= HAL_I2C_ERROR_INVALID_CALLBACK;
 960:Drivers/STM32F3xx_HAL_Driver/Src/stm32f3xx_hal_i2c.c **** 
 961:Drivers/STM32F3xx_HAL_Driver/Src/stm32f3xx_hal_i2c.c ****     /* Return error status */
 962:Drivers/STM32F3xx_HAL_Driver/Src/stm32f3xx_hal_i2c.c ****     status =  HAL_ERROR;
 963:Drivers/STM32F3xx_HAL_Driver/Src/stm32f3xx_hal_i2c.c ****   }
 964:Drivers/STM32F3xx_HAL_Driver/Src/stm32f3xx_hal_i2c.c **** 
 965:Drivers/STM32F3xx_HAL_Driver/Src/stm32f3xx_hal_i2c.c ****   /* Release Lock */
 966:Drivers/STM32F3xx_HAL_Driver/Src/stm32f3xx_hal_i2c.c ****   __HAL_UNLOCK(hi2c);
 967:Drivers/STM32F3xx_HAL_Driver/Src/stm32f3xx_hal_i2c.c ****   return status;
 968:Drivers/STM32F3xx_HAL_Driver/Src/stm32f3xx_hal_i2c.c **** }
 969:Drivers/STM32F3xx_HAL_Driver/Src/stm32f3xx_hal_i2c.c **** 
 970:Drivers/STM32F3xx_HAL_Driver/Src/stm32f3xx_hal_i2c.c **** #endif /* USE_HAL_I2C_REGISTER_CALLBACKS */
 971:Drivers/STM32F3xx_HAL_Driver/Src/stm32f3xx_hal_i2c.c **** 
 972:Drivers/STM32F3xx_HAL_Driver/Src/stm32f3xx_hal_i2c.c **** /**
 973:Drivers/STM32F3xx_HAL_Driver/Src/stm32f3xx_hal_i2c.c ****   * @}
 974:Drivers/STM32F3xx_HAL_Driver/Src/stm32f3xx_hal_i2c.c ****   */
 975:Drivers/STM32F3xx_HAL_Driver/Src/stm32f3xx_hal_i2c.c **** 
 976:Drivers/STM32F3xx_HAL_Driver/Src/stm32f3xx_hal_i2c.c **** /** @defgroup I2C_Exported_Functions_Group2 Input and Output operation functions
 977:Drivers/STM32F3xx_HAL_Driver/Src/stm32f3xx_hal_i2c.c ****  *  @brief   Data transfers functions
 978:Drivers/STM32F3xx_HAL_Driver/Src/stm32f3xx_hal_i2c.c ****  *
 979:Drivers/STM32F3xx_HAL_Driver/Src/stm32f3xx_hal_i2c.c **** @verbatim
 980:Drivers/STM32F3xx_HAL_Driver/Src/stm32f3xx_hal_i2c.c ****  ===============================================================================
 981:Drivers/STM32F3xx_HAL_Driver/Src/stm32f3xx_hal_i2c.c ****                       ##### IO operation functions #####
 982:Drivers/STM32F3xx_HAL_Driver/Src/stm32f3xx_hal_i2c.c ****  ===============================================================================
 983:Drivers/STM32F3xx_HAL_Driver/Src/stm32f3xx_hal_i2c.c ****     [..]
 984:Drivers/STM32F3xx_HAL_Driver/Src/stm32f3xx_hal_i2c.c ****     This subsection provides a set of functions allowing to manage the I2C data
 985:Drivers/STM32F3xx_HAL_Driver/Src/stm32f3xx_hal_i2c.c ****     transfers.
 986:Drivers/STM32F3xx_HAL_Driver/Src/stm32f3xx_hal_i2c.c **** 
 987:Drivers/STM32F3xx_HAL_Driver/Src/stm32f3xx_hal_i2c.c ****     (#) There are two modes of transfer:
 988:Drivers/STM32F3xx_HAL_Driver/Src/stm32f3xx_hal_i2c.c ****        (++) Blocking mode : The communication is performed in the polling mode.
 989:Drivers/STM32F3xx_HAL_Driver/Src/stm32f3xx_hal_i2c.c ****             The status of all data processing is returned by the same function
 990:Drivers/STM32F3xx_HAL_Driver/Src/stm32f3xx_hal_i2c.c ****             after finishing transfer.
 991:Drivers/STM32F3xx_HAL_Driver/Src/stm32f3xx_hal_i2c.c ****        (++) No-Blocking mode : The communication is performed using Interrupts
 992:Drivers/STM32F3xx_HAL_Driver/Src/stm32f3xx_hal_i2c.c ****             or DMA. These functions return the status of the transfer startup.
ARM GAS  /tmp/cc7eKD0K.s 			page 25


 993:Drivers/STM32F3xx_HAL_Driver/Src/stm32f3xx_hal_i2c.c ****             The end of the data processing will be indicated through the
 994:Drivers/STM32F3xx_HAL_Driver/Src/stm32f3xx_hal_i2c.c ****             dedicated I2C IRQ when using Interrupt mode or the DMA IRQ when
 995:Drivers/STM32F3xx_HAL_Driver/Src/stm32f3xx_hal_i2c.c ****             using DMA mode.
 996:Drivers/STM32F3xx_HAL_Driver/Src/stm32f3xx_hal_i2c.c **** 
 997:Drivers/STM32F3xx_HAL_Driver/Src/stm32f3xx_hal_i2c.c ****     (#) Blocking mode functions are :
 998:Drivers/STM32F3xx_HAL_Driver/Src/stm32f3xx_hal_i2c.c ****         (++) HAL_I2C_Master_Transmit()
 999:Drivers/STM32F3xx_HAL_Driver/Src/stm32f3xx_hal_i2c.c ****         (++) HAL_I2C_Master_Receive()
1000:Drivers/STM32F3xx_HAL_Driver/Src/stm32f3xx_hal_i2c.c ****         (++) HAL_I2C_Slave_Transmit()
1001:Drivers/STM32F3xx_HAL_Driver/Src/stm32f3xx_hal_i2c.c ****         (++) HAL_I2C_Slave_Receive()
1002:Drivers/STM32F3xx_HAL_Driver/Src/stm32f3xx_hal_i2c.c ****         (++) HAL_I2C_Mem_Write()
1003:Drivers/STM32F3xx_HAL_Driver/Src/stm32f3xx_hal_i2c.c ****         (++) HAL_I2C_Mem_Read()
1004:Drivers/STM32F3xx_HAL_Driver/Src/stm32f3xx_hal_i2c.c ****         (++) HAL_I2C_IsDeviceReady()
1005:Drivers/STM32F3xx_HAL_Driver/Src/stm32f3xx_hal_i2c.c **** 
1006:Drivers/STM32F3xx_HAL_Driver/Src/stm32f3xx_hal_i2c.c ****     (#) No-Blocking mode functions with Interrupt are :
1007:Drivers/STM32F3xx_HAL_Driver/Src/stm32f3xx_hal_i2c.c ****         (++) HAL_I2C_Master_Transmit_IT()
1008:Drivers/STM32F3xx_HAL_Driver/Src/stm32f3xx_hal_i2c.c ****         (++) HAL_I2C_Master_Receive_IT()
1009:Drivers/STM32F3xx_HAL_Driver/Src/stm32f3xx_hal_i2c.c ****         (++) HAL_I2C_Slave_Transmit_IT()
1010:Drivers/STM32F3xx_HAL_Driver/Src/stm32f3xx_hal_i2c.c ****         (++) HAL_I2C_Slave_Receive_IT()
1011:Drivers/STM32F3xx_HAL_Driver/Src/stm32f3xx_hal_i2c.c ****         (++) HAL_I2C_Mem_Write_IT()
1012:Drivers/STM32F3xx_HAL_Driver/Src/stm32f3xx_hal_i2c.c ****         (++) HAL_I2C_Mem_Read_IT()
1013:Drivers/STM32F3xx_HAL_Driver/Src/stm32f3xx_hal_i2c.c ****         (++) HAL_I2C_Master_Seq_Transmit_IT()
1014:Drivers/STM32F3xx_HAL_Driver/Src/stm32f3xx_hal_i2c.c ****         (++) HAL_I2C_Master_Seq_Receive_IT()
1015:Drivers/STM32F3xx_HAL_Driver/Src/stm32f3xx_hal_i2c.c ****         (++) HAL_I2C_Slave_Seq_Transmit_IT()
1016:Drivers/STM32F3xx_HAL_Driver/Src/stm32f3xx_hal_i2c.c ****         (++) HAL_I2C_Slave_Seq_Receive_IT()
1017:Drivers/STM32F3xx_HAL_Driver/Src/stm32f3xx_hal_i2c.c ****         (++) HAL_I2C_EnableListen_IT()
1018:Drivers/STM32F3xx_HAL_Driver/Src/stm32f3xx_hal_i2c.c ****         (++) HAL_I2C_DisableListen_IT()
1019:Drivers/STM32F3xx_HAL_Driver/Src/stm32f3xx_hal_i2c.c ****         (++) HAL_I2C_Master_Abort_IT()
1020:Drivers/STM32F3xx_HAL_Driver/Src/stm32f3xx_hal_i2c.c **** 
1021:Drivers/STM32F3xx_HAL_Driver/Src/stm32f3xx_hal_i2c.c ****     (#) No-Blocking mode functions with DMA are :
1022:Drivers/STM32F3xx_HAL_Driver/Src/stm32f3xx_hal_i2c.c ****         (++) HAL_I2C_Master_Transmit_DMA()
1023:Drivers/STM32F3xx_HAL_Driver/Src/stm32f3xx_hal_i2c.c ****         (++) HAL_I2C_Master_Receive_DMA()
1024:Drivers/STM32F3xx_HAL_Driver/Src/stm32f3xx_hal_i2c.c ****         (++) HAL_I2C_Slave_Transmit_DMA()
1025:Drivers/STM32F3xx_HAL_Driver/Src/stm32f3xx_hal_i2c.c ****         (++) HAL_I2C_Slave_Receive_DMA()
1026:Drivers/STM32F3xx_HAL_Driver/Src/stm32f3xx_hal_i2c.c ****         (++) HAL_I2C_Mem_Write_DMA()
1027:Drivers/STM32F3xx_HAL_Driver/Src/stm32f3xx_hal_i2c.c ****         (++) HAL_I2C_Mem_Read_DMA()
1028:Drivers/STM32F3xx_HAL_Driver/Src/stm32f3xx_hal_i2c.c ****         (++) HAL_I2C_Master_Seq_Transmit_DMA()
1029:Drivers/STM32F3xx_HAL_Driver/Src/stm32f3xx_hal_i2c.c ****         (++) HAL_I2C_Master_Seq_Receive_DMA()
1030:Drivers/STM32F3xx_HAL_Driver/Src/stm32f3xx_hal_i2c.c ****         (++) HAL_I2C_Slave_Seq_Transmit_DMA()
1031:Drivers/STM32F3xx_HAL_Driver/Src/stm32f3xx_hal_i2c.c ****         (++) HAL_I2C_Slave_Seq_Receive_DMA()
1032:Drivers/STM32F3xx_HAL_Driver/Src/stm32f3xx_hal_i2c.c **** 
1033:Drivers/STM32F3xx_HAL_Driver/Src/stm32f3xx_hal_i2c.c ****     (#) A set of Transfer Complete Callbacks are provided in non Blocking mode:
1034:Drivers/STM32F3xx_HAL_Driver/Src/stm32f3xx_hal_i2c.c ****         (++) HAL_I2C_MasterTxCpltCallback()
1035:Drivers/STM32F3xx_HAL_Driver/Src/stm32f3xx_hal_i2c.c ****         (++) HAL_I2C_MasterRxCpltCallback()
1036:Drivers/STM32F3xx_HAL_Driver/Src/stm32f3xx_hal_i2c.c ****         (++) HAL_I2C_SlaveTxCpltCallback()
1037:Drivers/STM32F3xx_HAL_Driver/Src/stm32f3xx_hal_i2c.c ****         (++) HAL_I2C_SlaveRxCpltCallback()
1038:Drivers/STM32F3xx_HAL_Driver/Src/stm32f3xx_hal_i2c.c ****         (++) HAL_I2C_MemTxCpltCallback()
1039:Drivers/STM32F3xx_HAL_Driver/Src/stm32f3xx_hal_i2c.c ****         (++) HAL_I2C_MemRxCpltCallback()
1040:Drivers/STM32F3xx_HAL_Driver/Src/stm32f3xx_hal_i2c.c ****         (++) HAL_I2C_AddrCallback()
1041:Drivers/STM32F3xx_HAL_Driver/Src/stm32f3xx_hal_i2c.c ****         (++) HAL_I2C_ListenCpltCallback()
1042:Drivers/STM32F3xx_HAL_Driver/Src/stm32f3xx_hal_i2c.c ****         (++) HAL_I2C_ErrorCallback()
1043:Drivers/STM32F3xx_HAL_Driver/Src/stm32f3xx_hal_i2c.c ****         (++) HAL_I2C_AbortCpltCallback()
1044:Drivers/STM32F3xx_HAL_Driver/Src/stm32f3xx_hal_i2c.c **** 
1045:Drivers/STM32F3xx_HAL_Driver/Src/stm32f3xx_hal_i2c.c **** @endverbatim
1046:Drivers/STM32F3xx_HAL_Driver/Src/stm32f3xx_hal_i2c.c ****   * @{
1047:Drivers/STM32F3xx_HAL_Driver/Src/stm32f3xx_hal_i2c.c ****   */
1048:Drivers/STM32F3xx_HAL_Driver/Src/stm32f3xx_hal_i2c.c **** 
1049:Drivers/STM32F3xx_HAL_Driver/Src/stm32f3xx_hal_i2c.c **** /**
ARM GAS  /tmp/cc7eKD0K.s 			page 26


1050:Drivers/STM32F3xx_HAL_Driver/Src/stm32f3xx_hal_i2c.c ****   * @brief  Transmits in master mode an amount of data in blocking mode.
1051:Drivers/STM32F3xx_HAL_Driver/Src/stm32f3xx_hal_i2c.c ****   * @param  hi2c Pointer to a I2C_HandleTypeDef structure that contains
1052:Drivers/STM32F3xx_HAL_Driver/Src/stm32f3xx_hal_i2c.c ****   *                the configuration information for the specified I2C.
1053:Drivers/STM32F3xx_HAL_Driver/Src/stm32f3xx_hal_i2c.c ****   * @param  DevAddress Target device address: The device 7 bits address value
1054:Drivers/STM32F3xx_HAL_Driver/Src/stm32f3xx_hal_i2c.c ****   *         in datasheet must be shifted to the left before calling the interface
1055:Drivers/STM32F3xx_HAL_Driver/Src/stm32f3xx_hal_i2c.c ****   * @param  pData Pointer to data buffer
1056:Drivers/STM32F3xx_HAL_Driver/Src/stm32f3xx_hal_i2c.c ****   * @param  Size Amount of data to be sent
1057:Drivers/STM32F3xx_HAL_Driver/Src/stm32f3xx_hal_i2c.c ****   * @param  Timeout Timeout duration
1058:Drivers/STM32F3xx_HAL_Driver/Src/stm32f3xx_hal_i2c.c ****   * @retval HAL status
1059:Drivers/STM32F3xx_HAL_Driver/Src/stm32f3xx_hal_i2c.c ****   */
1060:Drivers/STM32F3xx_HAL_Driver/Src/stm32f3xx_hal_i2c.c **** HAL_StatusTypeDef HAL_I2C_Master_Transmit(I2C_HandleTypeDef *hi2c, uint16_t DevAddress, uint8_t *pD
1061:Drivers/STM32F3xx_HAL_Driver/Src/stm32f3xx_hal_i2c.c **** {
 386              		.loc 1 1061 0
 387              		.cfi_startproc
 388              		@ args = 4, pretend = 0, frame = 24
 389              		@ frame_needed = 1, uses_anonymous_args = 0
 390 0000 80B5     		push	{r7, lr}
 391              	.LCFI22:
 392              		.cfi_def_cfa_offset 8
 393              		.cfi_offset 7, -8
 394              		.cfi_offset 14, -4
 395 0002 88B0     		sub	sp, sp, #32
 396              	.LCFI23:
 397              		.cfi_def_cfa_offset 40
 398 0004 02AF     		add	r7, sp, #8
 399              	.LCFI24:
 400              		.cfi_def_cfa 7, 32
 401 0006 F860     		str	r0, [r7, #12]
 402 0008 7A60     		str	r2, [r7, #4]
 403 000a 1A46     		mov	r2, r3
 404 000c 0B46     		mov	r3, r1	@ movhi
 405 000e 7B81     		strh	r3, [r7, #10]	@ movhi
 406 0010 1346     		mov	r3, r2	@ movhi
 407 0012 3B81     		strh	r3, [r7, #8]	@ movhi
1062:Drivers/STM32F3xx_HAL_Driver/Src/stm32f3xx_hal_i2c.c ****   uint32_t tickstart;
1063:Drivers/STM32F3xx_HAL_Driver/Src/stm32f3xx_hal_i2c.c **** 
1064:Drivers/STM32F3xx_HAL_Driver/Src/stm32f3xx_hal_i2c.c ****   if (hi2c->State == HAL_I2C_STATE_READY)
 408              		.loc 1 1064 0
 409 0014 FB68     		ldr	r3, [r7, #12]
 410 0016 93F84130 		ldrb	r3, [r3, #65]
 411 001a DBB2     		uxtb	r3, r3
 412 001c 202B     		cmp	r3, #32
 413 001e 40F0DA80 		bne	.L14
1065:Drivers/STM32F3xx_HAL_Driver/Src/stm32f3xx_hal_i2c.c ****   {
1066:Drivers/STM32F3xx_HAL_Driver/Src/stm32f3xx_hal_i2c.c ****     /* Process Locked */
1067:Drivers/STM32F3xx_HAL_Driver/Src/stm32f3xx_hal_i2c.c ****     __HAL_LOCK(hi2c);
 414              		.loc 1 1067 0
 415 0022 FB68     		ldr	r3, [r7, #12]
 416 0024 93F84030 		ldrb	r3, [r3, #64]	@ zero_extendqisi2
 417 0028 012B     		cmp	r3, #1
 418 002a 01D1     		bne	.L15
 419              		.loc 1 1067 0 is_stmt 0 discriminator 1
 420 002c 0223     		movs	r3, #2
 421 002e D3E0     		b	.L16
 422              	.L15:
 423              		.loc 1 1067 0 discriminator 2
 424 0030 FB68     		ldr	r3, [r7, #12]
ARM GAS  /tmp/cc7eKD0K.s 			page 27


 425 0032 0122     		movs	r2, #1
 426 0034 83F84020 		strb	r2, [r3, #64]
1068:Drivers/STM32F3xx_HAL_Driver/Src/stm32f3xx_hal_i2c.c **** 
1069:Drivers/STM32F3xx_HAL_Driver/Src/stm32f3xx_hal_i2c.c ****     /* Init tickstart for timeout management*/
1070:Drivers/STM32F3xx_HAL_Driver/Src/stm32f3xx_hal_i2c.c ****     tickstart = HAL_GetTick();
 427              		.loc 1 1070 0 is_stmt 1 discriminator 2
 428 0038 FFF7FEFF 		bl	HAL_GetTick
 429 003c 7861     		str	r0, [r7, #20]
1071:Drivers/STM32F3xx_HAL_Driver/Src/stm32f3xx_hal_i2c.c **** 
1072:Drivers/STM32F3xx_HAL_Driver/Src/stm32f3xx_hal_i2c.c ****     if (I2C_WaitOnFlagUntilTimeout(hi2c, I2C_FLAG_BUSY, SET, I2C_TIMEOUT_BUSY, tickstart) != HAL_OK
 430              		.loc 1 1072 0 discriminator 2
 431 003e 7B69     		ldr	r3, [r7, #20]
 432 0040 0093     		str	r3, [sp]
 433 0042 1923     		movs	r3, #25
 434 0044 0122     		movs	r2, #1
 435 0046 4FF40041 		mov	r1, #32768
 436 004a F868     		ldr	r0, [r7, #12]
 437 004c FFF7FEFF 		bl	I2C_WaitOnFlagUntilTimeout
 438 0050 0346     		mov	r3, r0
 439 0052 002B     		cmp	r3, #0
 440 0054 01D0     		beq	.L17
1073:Drivers/STM32F3xx_HAL_Driver/Src/stm32f3xx_hal_i2c.c ****     {
1074:Drivers/STM32F3xx_HAL_Driver/Src/stm32f3xx_hal_i2c.c ****       return HAL_ERROR;
 441              		.loc 1 1074 0
 442 0056 0123     		movs	r3, #1
 443 0058 BEE0     		b	.L16
 444              	.L17:
1075:Drivers/STM32F3xx_HAL_Driver/Src/stm32f3xx_hal_i2c.c ****     }
1076:Drivers/STM32F3xx_HAL_Driver/Src/stm32f3xx_hal_i2c.c **** 
1077:Drivers/STM32F3xx_HAL_Driver/Src/stm32f3xx_hal_i2c.c ****     hi2c->State     = HAL_I2C_STATE_BUSY_TX;
 445              		.loc 1 1077 0
 446 005a FB68     		ldr	r3, [r7, #12]
 447 005c 2122     		movs	r2, #33
 448 005e 83F84120 		strb	r2, [r3, #65]
1078:Drivers/STM32F3xx_HAL_Driver/Src/stm32f3xx_hal_i2c.c ****     hi2c->Mode      = HAL_I2C_MODE_MASTER;
 449              		.loc 1 1078 0
 450 0062 FB68     		ldr	r3, [r7, #12]
 451 0064 1022     		movs	r2, #16
 452 0066 83F84220 		strb	r2, [r3, #66]
1079:Drivers/STM32F3xx_HAL_Driver/Src/stm32f3xx_hal_i2c.c ****     hi2c->ErrorCode = HAL_I2C_ERROR_NONE;
 453              		.loc 1 1079 0
 454 006a FB68     		ldr	r3, [r7, #12]
 455 006c 0022     		movs	r2, #0
 456 006e 5A64     		str	r2, [r3, #68]
1080:Drivers/STM32F3xx_HAL_Driver/Src/stm32f3xx_hal_i2c.c **** 
1081:Drivers/STM32F3xx_HAL_Driver/Src/stm32f3xx_hal_i2c.c ****     /* Prepare transfer parameters */
1082:Drivers/STM32F3xx_HAL_Driver/Src/stm32f3xx_hal_i2c.c ****     hi2c->pBuffPtr  = pData;
 457              		.loc 1 1082 0
 458 0070 FB68     		ldr	r3, [r7, #12]
 459 0072 7A68     		ldr	r2, [r7, #4]
 460 0074 5A62     		str	r2, [r3, #36]
1083:Drivers/STM32F3xx_HAL_Driver/Src/stm32f3xx_hal_i2c.c ****     hi2c->XferCount = Size;
 461              		.loc 1 1083 0
 462 0076 FB68     		ldr	r3, [r7, #12]
 463 0078 3A89     		ldrh	r2, [r7, #8]	@ movhi
 464 007a 5A85     		strh	r2, [r3, #42]	@ movhi
1084:Drivers/STM32F3xx_HAL_Driver/Src/stm32f3xx_hal_i2c.c ****     hi2c->XferISR   = NULL;
ARM GAS  /tmp/cc7eKD0K.s 			page 28


 465              		.loc 1 1084 0
 466 007c FB68     		ldr	r3, [r7, #12]
 467 007e 0022     		movs	r2, #0
 468 0080 5A63     		str	r2, [r3, #52]
1085:Drivers/STM32F3xx_HAL_Driver/Src/stm32f3xx_hal_i2c.c **** 
1086:Drivers/STM32F3xx_HAL_Driver/Src/stm32f3xx_hal_i2c.c ****     /* Send Slave Address */
1087:Drivers/STM32F3xx_HAL_Driver/Src/stm32f3xx_hal_i2c.c ****     /* Set NBYTES to write and reload if hi2c->XferCount > MAX_NBYTE_SIZE and generate RESTART */
1088:Drivers/STM32F3xx_HAL_Driver/Src/stm32f3xx_hal_i2c.c ****     if (hi2c->XferCount > MAX_NBYTE_SIZE)
 469              		.loc 1 1088 0
 470 0082 FB68     		ldr	r3, [r7, #12]
 471 0084 5B8D     		ldrh	r3, [r3, #42]	@ movhi
 472 0086 9BB2     		uxth	r3, r3
 473 0088 FF2B     		cmp	r3, #255
 474 008a 0ED9     		bls	.L18
1089:Drivers/STM32F3xx_HAL_Driver/Src/stm32f3xx_hal_i2c.c ****     {
1090:Drivers/STM32F3xx_HAL_Driver/Src/stm32f3xx_hal_i2c.c ****       hi2c->XferSize = MAX_NBYTE_SIZE;
 475              		.loc 1 1090 0
 476 008c FB68     		ldr	r3, [r7, #12]
 477 008e FF22     		movs	r2, #255
 478 0090 1A85     		strh	r2, [r3, #40]	@ movhi
1091:Drivers/STM32F3xx_HAL_Driver/Src/stm32f3xx_hal_i2c.c ****       I2C_TransferConfig(hi2c, DevAddress, (uint8_t)hi2c->XferSize, I2C_RELOAD_MODE, I2C_GENERATE_S
 479              		.loc 1 1091 0
 480 0092 FB68     		ldr	r3, [r7, #12]
 481 0094 1B8D     		ldrh	r3, [r3, #40]
 482 0096 DAB2     		uxtb	r2, r3
 483 0098 7989     		ldrh	r1, [r7, #10]
 484 009a 514B     		ldr	r3, .L26
 485 009c 0093     		str	r3, [sp]
 486 009e 4FF08073 		mov	r3, #16777216
 487 00a2 F868     		ldr	r0, [r7, #12]
 488 00a4 FFF7FEFF 		bl	I2C_TransferConfig
 489 00a8 6CE0     		b	.L20
 490              	.L18:
1092:Drivers/STM32F3xx_HAL_Driver/Src/stm32f3xx_hal_i2c.c ****     }
1093:Drivers/STM32F3xx_HAL_Driver/Src/stm32f3xx_hal_i2c.c ****     else
1094:Drivers/STM32F3xx_HAL_Driver/Src/stm32f3xx_hal_i2c.c ****     {
1095:Drivers/STM32F3xx_HAL_Driver/Src/stm32f3xx_hal_i2c.c ****       hi2c->XferSize = hi2c->XferCount;
 491              		.loc 1 1095 0
 492 00aa FB68     		ldr	r3, [r7, #12]
 493 00ac 5B8D     		ldrh	r3, [r3, #42]	@ movhi
 494 00ae 9AB2     		uxth	r2, r3
 495 00b0 FB68     		ldr	r3, [r7, #12]
 496 00b2 1A85     		strh	r2, [r3, #40]	@ movhi
1096:Drivers/STM32F3xx_HAL_Driver/Src/stm32f3xx_hal_i2c.c ****       I2C_TransferConfig(hi2c, DevAddress, (uint8_t)hi2c->XferSize, I2C_AUTOEND_MODE, I2C_GENERATE_
 497              		.loc 1 1096 0
 498 00b4 FB68     		ldr	r3, [r7, #12]
 499 00b6 1B8D     		ldrh	r3, [r3, #40]
 500 00b8 DAB2     		uxtb	r2, r3
 501 00ba 7989     		ldrh	r1, [r7, #10]
 502 00bc 484B     		ldr	r3, .L26
 503 00be 0093     		str	r3, [sp]
 504 00c0 4FF00073 		mov	r3, #33554432
 505 00c4 F868     		ldr	r0, [r7, #12]
 506 00c6 FFF7FEFF 		bl	I2C_TransferConfig
1097:Drivers/STM32F3xx_HAL_Driver/Src/stm32f3xx_hal_i2c.c ****     }
1098:Drivers/STM32F3xx_HAL_Driver/Src/stm32f3xx_hal_i2c.c **** 
1099:Drivers/STM32F3xx_HAL_Driver/Src/stm32f3xx_hal_i2c.c ****     while (hi2c->XferCount > 0U)
ARM GAS  /tmp/cc7eKD0K.s 			page 29


 507              		.loc 1 1099 0
 508 00ca 5BE0     		b	.L20
 509              	.L24:
1100:Drivers/STM32F3xx_HAL_Driver/Src/stm32f3xx_hal_i2c.c ****     {
1101:Drivers/STM32F3xx_HAL_Driver/Src/stm32f3xx_hal_i2c.c ****       /* Wait until TXIS flag is set */
1102:Drivers/STM32F3xx_HAL_Driver/Src/stm32f3xx_hal_i2c.c ****       if (I2C_WaitOnTXISFlagUntilTimeout(hi2c, Timeout, tickstart) != HAL_OK)
 510              		.loc 1 1102 0
 511 00cc 7A69     		ldr	r2, [r7, #20]
 512 00ce 396A     		ldr	r1, [r7, #32]
 513 00d0 F868     		ldr	r0, [r7, #12]
 514 00d2 FFF7FEFF 		bl	I2C_WaitOnTXISFlagUntilTimeout
 515 00d6 0346     		mov	r3, r0
 516 00d8 002B     		cmp	r3, #0
 517 00da 01D0     		beq	.L21
1103:Drivers/STM32F3xx_HAL_Driver/Src/stm32f3xx_hal_i2c.c ****       {
1104:Drivers/STM32F3xx_HAL_Driver/Src/stm32f3xx_hal_i2c.c ****         return HAL_ERROR;
 518              		.loc 1 1104 0
 519 00dc 0123     		movs	r3, #1
 520 00de 7BE0     		b	.L16
 521              	.L21:
1105:Drivers/STM32F3xx_HAL_Driver/Src/stm32f3xx_hal_i2c.c ****       }
1106:Drivers/STM32F3xx_HAL_Driver/Src/stm32f3xx_hal_i2c.c ****       /* Write data to TXDR */
1107:Drivers/STM32F3xx_HAL_Driver/Src/stm32f3xx_hal_i2c.c ****       hi2c->Instance->TXDR = *hi2c->pBuffPtr;
 522              		.loc 1 1107 0
 523 00e0 FB68     		ldr	r3, [r7, #12]
 524 00e2 5B6A     		ldr	r3, [r3, #36]
 525 00e4 1A78     		ldrb	r2, [r3]	@ zero_extendqisi2
 526 00e6 FB68     		ldr	r3, [r7, #12]
 527 00e8 1B68     		ldr	r3, [r3]
 528 00ea 9A62     		str	r2, [r3, #40]
1108:Drivers/STM32F3xx_HAL_Driver/Src/stm32f3xx_hal_i2c.c **** 
1109:Drivers/STM32F3xx_HAL_Driver/Src/stm32f3xx_hal_i2c.c ****       /* Increment Buffer pointer */
1110:Drivers/STM32F3xx_HAL_Driver/Src/stm32f3xx_hal_i2c.c ****       hi2c->pBuffPtr++;
 529              		.loc 1 1110 0
 530 00ec FB68     		ldr	r3, [r7, #12]
 531 00ee 5B6A     		ldr	r3, [r3, #36]
 532 00f0 5A1C     		adds	r2, r3, #1
 533 00f2 FB68     		ldr	r3, [r7, #12]
 534 00f4 5A62     		str	r2, [r3, #36]
1111:Drivers/STM32F3xx_HAL_Driver/Src/stm32f3xx_hal_i2c.c **** 
1112:Drivers/STM32F3xx_HAL_Driver/Src/stm32f3xx_hal_i2c.c ****       hi2c->XferCount--;
 535              		.loc 1 1112 0
 536 00f6 FB68     		ldr	r3, [r7, #12]
 537 00f8 5B8D     		ldrh	r3, [r3, #42]	@ movhi
 538 00fa 9BB2     		uxth	r3, r3
 539 00fc 013B     		subs	r3, r3, #1
 540 00fe 9AB2     		uxth	r2, r3
 541 0100 FB68     		ldr	r3, [r7, #12]
 542 0102 5A85     		strh	r2, [r3, #42]	@ movhi
1113:Drivers/STM32F3xx_HAL_Driver/Src/stm32f3xx_hal_i2c.c ****       hi2c->XferSize--;
 543              		.loc 1 1113 0
 544 0104 FB68     		ldr	r3, [r7, #12]
 545 0106 1B8D     		ldrh	r3, [r3, #40]
 546 0108 013B     		subs	r3, r3, #1
 547 010a 9AB2     		uxth	r2, r3
 548 010c FB68     		ldr	r3, [r7, #12]
 549 010e 1A85     		strh	r2, [r3, #40]	@ movhi
ARM GAS  /tmp/cc7eKD0K.s 			page 30


1114:Drivers/STM32F3xx_HAL_Driver/Src/stm32f3xx_hal_i2c.c **** 
1115:Drivers/STM32F3xx_HAL_Driver/Src/stm32f3xx_hal_i2c.c ****       if ((hi2c->XferCount != 0U) && (hi2c->XferSize == 0U))
 550              		.loc 1 1115 0
 551 0110 FB68     		ldr	r3, [r7, #12]
 552 0112 5B8D     		ldrh	r3, [r3, #42]	@ movhi
 553 0114 9BB2     		uxth	r3, r3
 554 0116 002B     		cmp	r3, #0
 555 0118 34D0     		beq	.L20
 556              		.loc 1 1115 0 is_stmt 0 discriminator 1
 557 011a FB68     		ldr	r3, [r7, #12]
 558 011c 1B8D     		ldrh	r3, [r3, #40]
 559 011e 002B     		cmp	r3, #0
 560 0120 30D1     		bne	.L20
1116:Drivers/STM32F3xx_HAL_Driver/Src/stm32f3xx_hal_i2c.c ****       {
1117:Drivers/STM32F3xx_HAL_Driver/Src/stm32f3xx_hal_i2c.c ****         /* Wait until TCR flag is set */
1118:Drivers/STM32F3xx_HAL_Driver/Src/stm32f3xx_hal_i2c.c ****         if (I2C_WaitOnFlagUntilTimeout(hi2c, I2C_FLAG_TCR, RESET, Timeout, tickstart) != HAL_OK)
 561              		.loc 1 1118 0 is_stmt 1
 562 0122 7B69     		ldr	r3, [r7, #20]
 563 0124 0093     		str	r3, [sp]
 564 0126 3B6A     		ldr	r3, [r7, #32]
 565 0128 0022     		movs	r2, #0
 566 012a 8021     		movs	r1, #128
 567 012c F868     		ldr	r0, [r7, #12]
 568 012e FFF7FEFF 		bl	I2C_WaitOnFlagUntilTimeout
 569 0132 0346     		mov	r3, r0
 570 0134 002B     		cmp	r3, #0
 571 0136 01D0     		beq	.L22
1119:Drivers/STM32F3xx_HAL_Driver/Src/stm32f3xx_hal_i2c.c ****         {
1120:Drivers/STM32F3xx_HAL_Driver/Src/stm32f3xx_hal_i2c.c ****           return HAL_ERROR;
 572              		.loc 1 1120 0
 573 0138 0123     		movs	r3, #1
 574 013a 4DE0     		b	.L16
 575              	.L22:
1121:Drivers/STM32F3xx_HAL_Driver/Src/stm32f3xx_hal_i2c.c ****         }
1122:Drivers/STM32F3xx_HAL_Driver/Src/stm32f3xx_hal_i2c.c **** 
1123:Drivers/STM32F3xx_HAL_Driver/Src/stm32f3xx_hal_i2c.c ****         if (hi2c->XferCount > MAX_NBYTE_SIZE)
 576              		.loc 1 1123 0
 577 013c FB68     		ldr	r3, [r7, #12]
 578 013e 5B8D     		ldrh	r3, [r3, #42]	@ movhi
 579 0140 9BB2     		uxth	r3, r3
 580 0142 FF2B     		cmp	r3, #255
 581 0144 0ED9     		bls	.L23
1124:Drivers/STM32F3xx_HAL_Driver/Src/stm32f3xx_hal_i2c.c ****         {
1125:Drivers/STM32F3xx_HAL_Driver/Src/stm32f3xx_hal_i2c.c ****           hi2c->XferSize = MAX_NBYTE_SIZE;
 582              		.loc 1 1125 0
 583 0146 FB68     		ldr	r3, [r7, #12]
 584 0148 FF22     		movs	r2, #255
 585 014a 1A85     		strh	r2, [r3, #40]	@ movhi
1126:Drivers/STM32F3xx_HAL_Driver/Src/stm32f3xx_hal_i2c.c ****           I2C_TransferConfig(hi2c, DevAddress, (uint8_t)hi2c->XferSize, I2C_RELOAD_MODE, I2C_NO_STA
 586              		.loc 1 1126 0
 587 014c FB68     		ldr	r3, [r7, #12]
 588 014e 1B8D     		ldrh	r3, [r3, #40]
 589 0150 DAB2     		uxtb	r2, r3
 590 0152 7989     		ldrh	r1, [r7, #10]
 591 0154 0023     		movs	r3, #0
 592 0156 0093     		str	r3, [sp]
 593 0158 4FF08073 		mov	r3, #16777216
ARM GAS  /tmp/cc7eKD0K.s 			page 31


 594 015c F868     		ldr	r0, [r7, #12]
 595 015e FFF7FEFF 		bl	I2C_TransferConfig
 596 0162 0FE0     		b	.L20
 597              	.L23:
1127:Drivers/STM32F3xx_HAL_Driver/Src/stm32f3xx_hal_i2c.c ****         }
1128:Drivers/STM32F3xx_HAL_Driver/Src/stm32f3xx_hal_i2c.c ****         else
1129:Drivers/STM32F3xx_HAL_Driver/Src/stm32f3xx_hal_i2c.c ****         {
1130:Drivers/STM32F3xx_HAL_Driver/Src/stm32f3xx_hal_i2c.c ****           hi2c->XferSize = hi2c->XferCount;
 598              		.loc 1 1130 0
 599 0164 FB68     		ldr	r3, [r7, #12]
 600 0166 5B8D     		ldrh	r3, [r3, #42]	@ movhi
 601 0168 9AB2     		uxth	r2, r3
 602 016a FB68     		ldr	r3, [r7, #12]
 603 016c 1A85     		strh	r2, [r3, #40]	@ movhi
1131:Drivers/STM32F3xx_HAL_Driver/Src/stm32f3xx_hal_i2c.c ****           I2C_TransferConfig(hi2c, DevAddress, (uint8_t)hi2c->XferSize, I2C_AUTOEND_MODE, I2C_NO_ST
 604              		.loc 1 1131 0
 605 016e FB68     		ldr	r3, [r7, #12]
 606 0170 1B8D     		ldrh	r3, [r3, #40]
 607 0172 DAB2     		uxtb	r2, r3
 608 0174 7989     		ldrh	r1, [r7, #10]
 609 0176 0023     		movs	r3, #0
 610 0178 0093     		str	r3, [sp]
 611 017a 4FF00073 		mov	r3, #33554432
 612 017e F868     		ldr	r0, [r7, #12]
 613 0180 FFF7FEFF 		bl	I2C_TransferConfig
 614              	.L20:
1099:Drivers/STM32F3xx_HAL_Driver/Src/stm32f3xx_hal_i2c.c ****     {
 615              		.loc 1 1099 0
 616 0184 FB68     		ldr	r3, [r7, #12]
 617 0186 5B8D     		ldrh	r3, [r3, #42]	@ movhi
 618 0188 9BB2     		uxth	r3, r3
 619 018a 002B     		cmp	r3, #0
 620 018c 9ED1     		bne	.L24
1132:Drivers/STM32F3xx_HAL_Driver/Src/stm32f3xx_hal_i2c.c ****         }
1133:Drivers/STM32F3xx_HAL_Driver/Src/stm32f3xx_hal_i2c.c ****       }
1134:Drivers/STM32F3xx_HAL_Driver/Src/stm32f3xx_hal_i2c.c ****     }
1135:Drivers/STM32F3xx_HAL_Driver/Src/stm32f3xx_hal_i2c.c **** 
1136:Drivers/STM32F3xx_HAL_Driver/Src/stm32f3xx_hal_i2c.c ****     /* No need to Check TC flag, with AUTOEND mode the stop is automatically generated */
1137:Drivers/STM32F3xx_HAL_Driver/Src/stm32f3xx_hal_i2c.c ****     /* Wait until STOPF flag is set */
1138:Drivers/STM32F3xx_HAL_Driver/Src/stm32f3xx_hal_i2c.c ****     if (I2C_WaitOnSTOPFlagUntilTimeout(hi2c, Timeout, tickstart) != HAL_OK)
 621              		.loc 1 1138 0
 622 018e 7A69     		ldr	r2, [r7, #20]
 623 0190 396A     		ldr	r1, [r7, #32]
 624 0192 F868     		ldr	r0, [r7, #12]
 625 0194 FFF7FEFF 		bl	I2C_WaitOnSTOPFlagUntilTimeout
 626 0198 0346     		mov	r3, r0
 627 019a 002B     		cmp	r3, #0
 628 019c 01D0     		beq	.L25
1139:Drivers/STM32F3xx_HAL_Driver/Src/stm32f3xx_hal_i2c.c ****     {
1140:Drivers/STM32F3xx_HAL_Driver/Src/stm32f3xx_hal_i2c.c ****       return HAL_ERROR;
 629              		.loc 1 1140 0
 630 019e 0123     		movs	r3, #1
 631 01a0 1AE0     		b	.L16
 632              	.L25:
1141:Drivers/STM32F3xx_HAL_Driver/Src/stm32f3xx_hal_i2c.c ****     }
1142:Drivers/STM32F3xx_HAL_Driver/Src/stm32f3xx_hal_i2c.c **** 
1143:Drivers/STM32F3xx_HAL_Driver/Src/stm32f3xx_hal_i2c.c ****     /* Clear STOP Flag */
ARM GAS  /tmp/cc7eKD0K.s 			page 32


1144:Drivers/STM32F3xx_HAL_Driver/Src/stm32f3xx_hal_i2c.c ****     __HAL_I2C_CLEAR_FLAG(hi2c, I2C_FLAG_STOPF);
 633              		.loc 1 1144 0
 634 01a2 FB68     		ldr	r3, [r7, #12]
 635 01a4 1B68     		ldr	r3, [r3]
 636 01a6 2022     		movs	r2, #32
 637 01a8 DA61     		str	r2, [r3, #28]
1145:Drivers/STM32F3xx_HAL_Driver/Src/stm32f3xx_hal_i2c.c **** 
1146:Drivers/STM32F3xx_HAL_Driver/Src/stm32f3xx_hal_i2c.c ****     /* Clear Configuration Register 2 */
1147:Drivers/STM32F3xx_HAL_Driver/Src/stm32f3xx_hal_i2c.c ****     I2C_RESET_CR2(hi2c);
 638              		.loc 1 1147 0
 639 01aa FB68     		ldr	r3, [r7, #12]
 640 01ac 1B68     		ldr	r3, [r3]
 641 01ae 5968     		ldr	r1, [r3, #4]
 642 01b0 FB68     		ldr	r3, [r7, #12]
 643 01b2 1A68     		ldr	r2, [r3]
 644 01b4 0B4B     		ldr	r3, .L26+4
 645 01b6 0B40     		ands	r3, r3, r1
 646 01b8 5360     		str	r3, [r2, #4]
1148:Drivers/STM32F3xx_HAL_Driver/Src/stm32f3xx_hal_i2c.c **** 
1149:Drivers/STM32F3xx_HAL_Driver/Src/stm32f3xx_hal_i2c.c ****     hi2c->State = HAL_I2C_STATE_READY;
 647              		.loc 1 1149 0
 648 01ba FB68     		ldr	r3, [r7, #12]
 649 01bc 2022     		movs	r2, #32
 650 01be 83F84120 		strb	r2, [r3, #65]
1150:Drivers/STM32F3xx_HAL_Driver/Src/stm32f3xx_hal_i2c.c ****     hi2c->Mode  = HAL_I2C_MODE_NONE;
 651              		.loc 1 1150 0
 652 01c2 FB68     		ldr	r3, [r7, #12]
 653 01c4 0022     		movs	r2, #0
 654 01c6 83F84220 		strb	r2, [r3, #66]
1151:Drivers/STM32F3xx_HAL_Driver/Src/stm32f3xx_hal_i2c.c **** 
1152:Drivers/STM32F3xx_HAL_Driver/Src/stm32f3xx_hal_i2c.c ****     /* Process Unlocked */
1153:Drivers/STM32F3xx_HAL_Driver/Src/stm32f3xx_hal_i2c.c ****     __HAL_UNLOCK(hi2c);
 655              		.loc 1 1153 0
 656 01ca FB68     		ldr	r3, [r7, #12]
 657 01cc 0022     		movs	r2, #0
 658 01ce 83F84020 		strb	r2, [r3, #64]
1154:Drivers/STM32F3xx_HAL_Driver/Src/stm32f3xx_hal_i2c.c **** 
1155:Drivers/STM32F3xx_HAL_Driver/Src/stm32f3xx_hal_i2c.c ****     return HAL_OK;
 659              		.loc 1 1155 0
 660 01d2 0023     		movs	r3, #0
 661 01d4 00E0     		b	.L16
 662              	.L14:
1156:Drivers/STM32F3xx_HAL_Driver/Src/stm32f3xx_hal_i2c.c ****   }
1157:Drivers/STM32F3xx_HAL_Driver/Src/stm32f3xx_hal_i2c.c ****   else
1158:Drivers/STM32F3xx_HAL_Driver/Src/stm32f3xx_hal_i2c.c ****   {
1159:Drivers/STM32F3xx_HAL_Driver/Src/stm32f3xx_hal_i2c.c ****     return HAL_BUSY;
 663              		.loc 1 1159 0
 664 01d6 0223     		movs	r3, #2
 665              	.L16:
1160:Drivers/STM32F3xx_HAL_Driver/Src/stm32f3xx_hal_i2c.c ****   }
1161:Drivers/STM32F3xx_HAL_Driver/Src/stm32f3xx_hal_i2c.c **** }
 666              		.loc 1 1161 0
 667 01d8 1846     		mov	r0, r3
 668 01da 1837     		adds	r7, r7, #24
 669              	.LCFI25:
 670              		.cfi_def_cfa_offset 8
 671 01dc BD46     		mov	sp, r7
ARM GAS  /tmp/cc7eKD0K.s 			page 33


 672              	.LCFI26:
 673              		.cfi_def_cfa_register 13
 674              		@ sp needed
 675 01de 80BD     		pop	{r7, pc}
 676              	.L27:
 677              		.align	2
 678              	.L26:
 679 01e0 00200080 		.word	-2147475456
 680 01e4 00E800FE 		.word	-33495040
 681              		.cfi_endproc
 682              	.LFE127:
 684              		.section	.text.HAL_I2C_Master_Receive,"ax",%progbits
 685              		.align	1
 686              		.global	HAL_I2C_Master_Receive
 687              		.syntax unified
 688              		.thumb
 689              		.thumb_func
 690              		.fpu fpv4-sp-d16
 692              	HAL_I2C_Master_Receive:
 693              	.LFB128:
1162:Drivers/STM32F3xx_HAL_Driver/Src/stm32f3xx_hal_i2c.c **** 
1163:Drivers/STM32F3xx_HAL_Driver/Src/stm32f3xx_hal_i2c.c **** /**
1164:Drivers/STM32F3xx_HAL_Driver/Src/stm32f3xx_hal_i2c.c ****   * @brief  Receives in master mode an amount of data in blocking mode.
1165:Drivers/STM32F3xx_HAL_Driver/Src/stm32f3xx_hal_i2c.c ****   * @param  hi2c Pointer to a I2C_HandleTypeDef structure that contains
1166:Drivers/STM32F3xx_HAL_Driver/Src/stm32f3xx_hal_i2c.c ****   *                the configuration information for the specified I2C.
1167:Drivers/STM32F3xx_HAL_Driver/Src/stm32f3xx_hal_i2c.c ****   * @param  DevAddress Target device address: The device 7 bits address value
1168:Drivers/STM32F3xx_HAL_Driver/Src/stm32f3xx_hal_i2c.c ****   *         in datasheet must be shifted to the left before calling the interface
1169:Drivers/STM32F3xx_HAL_Driver/Src/stm32f3xx_hal_i2c.c ****   * @param  pData Pointer to data buffer
1170:Drivers/STM32F3xx_HAL_Driver/Src/stm32f3xx_hal_i2c.c ****   * @param  Size Amount of data to be sent
1171:Drivers/STM32F3xx_HAL_Driver/Src/stm32f3xx_hal_i2c.c ****   * @param  Timeout Timeout duration
1172:Drivers/STM32F3xx_HAL_Driver/Src/stm32f3xx_hal_i2c.c ****   * @retval HAL status
1173:Drivers/STM32F3xx_HAL_Driver/Src/stm32f3xx_hal_i2c.c ****   */
1174:Drivers/STM32F3xx_HAL_Driver/Src/stm32f3xx_hal_i2c.c **** HAL_StatusTypeDef HAL_I2C_Master_Receive(I2C_HandleTypeDef *hi2c, uint16_t DevAddress, uint8_t *pDa
1175:Drivers/STM32F3xx_HAL_Driver/Src/stm32f3xx_hal_i2c.c **** {
 694              		.loc 1 1175 0
 695              		.cfi_startproc
 696              		@ args = 4, pretend = 0, frame = 24
 697              		@ frame_needed = 1, uses_anonymous_args = 0
 698 0000 80B5     		push	{r7, lr}
 699              	.LCFI27:
 700              		.cfi_def_cfa_offset 8
 701              		.cfi_offset 7, -8
 702              		.cfi_offset 14, -4
 703 0002 88B0     		sub	sp, sp, #32
 704              	.LCFI28:
 705              		.cfi_def_cfa_offset 40
 706 0004 02AF     		add	r7, sp, #8
 707              	.LCFI29:
 708              		.cfi_def_cfa 7, 32
 709 0006 F860     		str	r0, [r7, #12]
 710 0008 7A60     		str	r2, [r7, #4]
 711 000a 1A46     		mov	r2, r3
 712 000c 0B46     		mov	r3, r1	@ movhi
 713 000e 7B81     		strh	r3, [r7, #10]	@ movhi
 714 0010 1346     		mov	r3, r2	@ movhi
 715 0012 3B81     		strh	r3, [r7, #8]	@ movhi
1176:Drivers/STM32F3xx_HAL_Driver/Src/stm32f3xx_hal_i2c.c ****   uint32_t tickstart;
ARM GAS  /tmp/cc7eKD0K.s 			page 34


1177:Drivers/STM32F3xx_HAL_Driver/Src/stm32f3xx_hal_i2c.c **** 
1178:Drivers/STM32F3xx_HAL_Driver/Src/stm32f3xx_hal_i2c.c ****   if (hi2c->State == HAL_I2C_STATE_READY)
 716              		.loc 1 1178 0
 717 0014 FB68     		ldr	r3, [r7, #12]
 718 0016 93F84130 		ldrb	r3, [r3, #65]
 719 001a DBB2     		uxtb	r3, r3
 720 001c 202B     		cmp	r3, #32
 721 001e 40F0DB80 		bne	.L29
1179:Drivers/STM32F3xx_HAL_Driver/Src/stm32f3xx_hal_i2c.c ****   {
1180:Drivers/STM32F3xx_HAL_Driver/Src/stm32f3xx_hal_i2c.c ****     /* Process Locked */
1181:Drivers/STM32F3xx_HAL_Driver/Src/stm32f3xx_hal_i2c.c ****     __HAL_LOCK(hi2c);
 722              		.loc 1 1181 0
 723 0022 FB68     		ldr	r3, [r7, #12]
 724 0024 93F84030 		ldrb	r3, [r3, #64]	@ zero_extendqisi2
 725 0028 012B     		cmp	r3, #1
 726 002a 01D1     		bne	.L30
 727              		.loc 1 1181 0 is_stmt 0 discriminator 1
 728 002c 0223     		movs	r3, #2
 729 002e D4E0     		b	.L31
 730              	.L30:
 731              		.loc 1 1181 0 discriminator 2
 732 0030 FB68     		ldr	r3, [r7, #12]
 733 0032 0122     		movs	r2, #1
 734 0034 83F84020 		strb	r2, [r3, #64]
1182:Drivers/STM32F3xx_HAL_Driver/Src/stm32f3xx_hal_i2c.c **** 
1183:Drivers/STM32F3xx_HAL_Driver/Src/stm32f3xx_hal_i2c.c ****     /* Init tickstart for timeout management*/
1184:Drivers/STM32F3xx_HAL_Driver/Src/stm32f3xx_hal_i2c.c ****     tickstart = HAL_GetTick();
 735              		.loc 1 1184 0 is_stmt 1 discriminator 2
 736 0038 FFF7FEFF 		bl	HAL_GetTick
 737 003c 7861     		str	r0, [r7, #20]
1185:Drivers/STM32F3xx_HAL_Driver/Src/stm32f3xx_hal_i2c.c **** 
1186:Drivers/STM32F3xx_HAL_Driver/Src/stm32f3xx_hal_i2c.c ****     if (I2C_WaitOnFlagUntilTimeout(hi2c, I2C_FLAG_BUSY, SET, I2C_TIMEOUT_BUSY, tickstart) != HAL_OK
 738              		.loc 1 1186 0 discriminator 2
 739 003e 7B69     		ldr	r3, [r7, #20]
 740 0040 0093     		str	r3, [sp]
 741 0042 1923     		movs	r3, #25
 742 0044 0122     		movs	r2, #1
 743 0046 4FF40041 		mov	r1, #32768
 744 004a F868     		ldr	r0, [r7, #12]
 745 004c FFF7FEFF 		bl	I2C_WaitOnFlagUntilTimeout
 746 0050 0346     		mov	r3, r0
 747 0052 002B     		cmp	r3, #0
 748 0054 01D0     		beq	.L32
1187:Drivers/STM32F3xx_HAL_Driver/Src/stm32f3xx_hal_i2c.c ****     {
1188:Drivers/STM32F3xx_HAL_Driver/Src/stm32f3xx_hal_i2c.c ****       return HAL_ERROR;
 749              		.loc 1 1188 0
 750 0056 0123     		movs	r3, #1
 751 0058 BFE0     		b	.L31
 752              	.L32:
1189:Drivers/STM32F3xx_HAL_Driver/Src/stm32f3xx_hal_i2c.c ****     }
1190:Drivers/STM32F3xx_HAL_Driver/Src/stm32f3xx_hal_i2c.c **** 
1191:Drivers/STM32F3xx_HAL_Driver/Src/stm32f3xx_hal_i2c.c ****     hi2c->State     = HAL_I2C_STATE_BUSY_RX;
 753              		.loc 1 1191 0
 754 005a FB68     		ldr	r3, [r7, #12]
 755 005c 2222     		movs	r2, #34
 756 005e 83F84120 		strb	r2, [r3, #65]
1192:Drivers/STM32F3xx_HAL_Driver/Src/stm32f3xx_hal_i2c.c ****     hi2c->Mode      = HAL_I2C_MODE_MASTER;
ARM GAS  /tmp/cc7eKD0K.s 			page 35


 757              		.loc 1 1192 0
 758 0062 FB68     		ldr	r3, [r7, #12]
 759 0064 1022     		movs	r2, #16
 760 0066 83F84220 		strb	r2, [r3, #66]
1193:Drivers/STM32F3xx_HAL_Driver/Src/stm32f3xx_hal_i2c.c ****     hi2c->ErrorCode = HAL_I2C_ERROR_NONE;
 761              		.loc 1 1193 0
 762 006a FB68     		ldr	r3, [r7, #12]
 763 006c 0022     		movs	r2, #0
 764 006e 5A64     		str	r2, [r3, #68]
1194:Drivers/STM32F3xx_HAL_Driver/Src/stm32f3xx_hal_i2c.c **** 
1195:Drivers/STM32F3xx_HAL_Driver/Src/stm32f3xx_hal_i2c.c ****     /* Prepare transfer parameters */
1196:Drivers/STM32F3xx_HAL_Driver/Src/stm32f3xx_hal_i2c.c ****     hi2c->pBuffPtr  = pData;
 765              		.loc 1 1196 0
 766 0070 FB68     		ldr	r3, [r7, #12]
 767 0072 7A68     		ldr	r2, [r7, #4]
 768 0074 5A62     		str	r2, [r3, #36]
1197:Drivers/STM32F3xx_HAL_Driver/Src/stm32f3xx_hal_i2c.c ****     hi2c->XferCount = Size;
 769              		.loc 1 1197 0
 770 0076 FB68     		ldr	r3, [r7, #12]
 771 0078 3A89     		ldrh	r2, [r7, #8]	@ movhi
 772 007a 5A85     		strh	r2, [r3, #42]	@ movhi
1198:Drivers/STM32F3xx_HAL_Driver/Src/stm32f3xx_hal_i2c.c ****     hi2c->XferISR   = NULL;
 773              		.loc 1 1198 0
 774 007c FB68     		ldr	r3, [r7, #12]
 775 007e 0022     		movs	r2, #0
 776 0080 5A63     		str	r2, [r3, #52]
1199:Drivers/STM32F3xx_HAL_Driver/Src/stm32f3xx_hal_i2c.c **** 
1200:Drivers/STM32F3xx_HAL_Driver/Src/stm32f3xx_hal_i2c.c ****     /* Send Slave Address */
1201:Drivers/STM32F3xx_HAL_Driver/Src/stm32f3xx_hal_i2c.c ****     /* Set NBYTES to write and reload if hi2c->XferCount > MAX_NBYTE_SIZE and generate RESTART */
1202:Drivers/STM32F3xx_HAL_Driver/Src/stm32f3xx_hal_i2c.c ****     if (hi2c->XferCount > MAX_NBYTE_SIZE)
 777              		.loc 1 1202 0
 778 0082 FB68     		ldr	r3, [r7, #12]
 779 0084 5B8D     		ldrh	r3, [r3, #42]	@ movhi
 780 0086 9BB2     		uxth	r3, r3
 781 0088 FF2B     		cmp	r3, #255
 782 008a 0ED9     		bls	.L33
1203:Drivers/STM32F3xx_HAL_Driver/Src/stm32f3xx_hal_i2c.c ****     {
1204:Drivers/STM32F3xx_HAL_Driver/Src/stm32f3xx_hal_i2c.c ****       hi2c->XferSize = MAX_NBYTE_SIZE;
 783              		.loc 1 1204 0
 784 008c FB68     		ldr	r3, [r7, #12]
 785 008e FF22     		movs	r2, #255
 786 0090 1A85     		strh	r2, [r3, #40]	@ movhi
1205:Drivers/STM32F3xx_HAL_Driver/Src/stm32f3xx_hal_i2c.c ****       I2C_TransferConfig(hi2c, DevAddress, (uint8_t)hi2c->XferSize, I2C_RELOAD_MODE, I2C_GENERATE_S
 787              		.loc 1 1205 0
 788 0092 FB68     		ldr	r3, [r7, #12]
 789 0094 1B8D     		ldrh	r3, [r3, #40]
 790 0096 DAB2     		uxtb	r2, r3
 791 0098 7989     		ldrh	r1, [r7, #10]
 792 009a 524B     		ldr	r3, .L41
 793 009c 0093     		str	r3, [sp]
 794 009e 4FF08073 		mov	r3, #16777216
 795 00a2 F868     		ldr	r0, [r7, #12]
 796 00a4 FFF7FEFF 		bl	I2C_TransferConfig
 797 00a8 6DE0     		b	.L35
 798              	.L33:
1206:Drivers/STM32F3xx_HAL_Driver/Src/stm32f3xx_hal_i2c.c ****     }
1207:Drivers/STM32F3xx_HAL_Driver/Src/stm32f3xx_hal_i2c.c ****     else
ARM GAS  /tmp/cc7eKD0K.s 			page 36


1208:Drivers/STM32F3xx_HAL_Driver/Src/stm32f3xx_hal_i2c.c ****     {
1209:Drivers/STM32F3xx_HAL_Driver/Src/stm32f3xx_hal_i2c.c ****       hi2c->XferSize = hi2c->XferCount;
 799              		.loc 1 1209 0
 800 00aa FB68     		ldr	r3, [r7, #12]
 801 00ac 5B8D     		ldrh	r3, [r3, #42]	@ movhi
 802 00ae 9AB2     		uxth	r2, r3
 803 00b0 FB68     		ldr	r3, [r7, #12]
 804 00b2 1A85     		strh	r2, [r3, #40]	@ movhi
1210:Drivers/STM32F3xx_HAL_Driver/Src/stm32f3xx_hal_i2c.c ****       I2C_TransferConfig(hi2c, DevAddress, (uint8_t)hi2c->XferSize, I2C_AUTOEND_MODE, I2C_GENERATE_
 805              		.loc 1 1210 0
 806 00b4 FB68     		ldr	r3, [r7, #12]
 807 00b6 1B8D     		ldrh	r3, [r3, #40]
 808 00b8 DAB2     		uxtb	r2, r3
 809 00ba 7989     		ldrh	r1, [r7, #10]
 810 00bc 494B     		ldr	r3, .L41
 811 00be 0093     		str	r3, [sp]
 812 00c0 4FF00073 		mov	r3, #33554432
 813 00c4 F868     		ldr	r0, [r7, #12]
 814 00c6 FFF7FEFF 		bl	I2C_TransferConfig
1211:Drivers/STM32F3xx_HAL_Driver/Src/stm32f3xx_hal_i2c.c ****     }
1212:Drivers/STM32F3xx_HAL_Driver/Src/stm32f3xx_hal_i2c.c **** 
1213:Drivers/STM32F3xx_HAL_Driver/Src/stm32f3xx_hal_i2c.c ****     while (hi2c->XferCount > 0U)
 815              		.loc 1 1213 0
 816 00ca 5CE0     		b	.L35
 817              	.L39:
1214:Drivers/STM32F3xx_HAL_Driver/Src/stm32f3xx_hal_i2c.c ****     {
1215:Drivers/STM32F3xx_HAL_Driver/Src/stm32f3xx_hal_i2c.c ****       /* Wait until RXNE flag is set */
1216:Drivers/STM32F3xx_HAL_Driver/Src/stm32f3xx_hal_i2c.c ****       if (I2C_WaitOnRXNEFlagUntilTimeout(hi2c, Timeout, tickstart) != HAL_OK)
 818              		.loc 1 1216 0
 819 00cc 7A69     		ldr	r2, [r7, #20]
 820 00ce 396A     		ldr	r1, [r7, #32]
 821 00d0 F868     		ldr	r0, [r7, #12]
 822 00d2 FFF7FEFF 		bl	I2C_WaitOnRXNEFlagUntilTimeout
 823 00d6 0346     		mov	r3, r0
 824 00d8 002B     		cmp	r3, #0
 825 00da 01D0     		beq	.L36
1217:Drivers/STM32F3xx_HAL_Driver/Src/stm32f3xx_hal_i2c.c ****       {
1218:Drivers/STM32F3xx_HAL_Driver/Src/stm32f3xx_hal_i2c.c ****         return HAL_ERROR;
 826              		.loc 1 1218 0
 827 00dc 0123     		movs	r3, #1
 828 00de 7CE0     		b	.L31
 829              	.L36:
1219:Drivers/STM32F3xx_HAL_Driver/Src/stm32f3xx_hal_i2c.c ****       }
1220:Drivers/STM32F3xx_HAL_Driver/Src/stm32f3xx_hal_i2c.c **** 
1221:Drivers/STM32F3xx_HAL_Driver/Src/stm32f3xx_hal_i2c.c ****       /* Read data from RXDR */
1222:Drivers/STM32F3xx_HAL_Driver/Src/stm32f3xx_hal_i2c.c ****       *hi2c->pBuffPtr = (uint8_t)hi2c->Instance->RXDR;
 830              		.loc 1 1222 0
 831 00e0 FB68     		ldr	r3, [r7, #12]
 832 00e2 1B68     		ldr	r3, [r3]
 833 00e4 5A6A     		ldr	r2, [r3, #36]
 834 00e6 FB68     		ldr	r3, [r7, #12]
 835 00e8 5B6A     		ldr	r3, [r3, #36]
 836 00ea D2B2     		uxtb	r2, r2
 837 00ec 1A70     		strb	r2, [r3]
1223:Drivers/STM32F3xx_HAL_Driver/Src/stm32f3xx_hal_i2c.c **** 
1224:Drivers/STM32F3xx_HAL_Driver/Src/stm32f3xx_hal_i2c.c ****       /* Increment Buffer pointer */
1225:Drivers/STM32F3xx_HAL_Driver/Src/stm32f3xx_hal_i2c.c ****       hi2c->pBuffPtr++;
ARM GAS  /tmp/cc7eKD0K.s 			page 37


 838              		.loc 1 1225 0
 839 00ee FB68     		ldr	r3, [r7, #12]
 840 00f0 5B6A     		ldr	r3, [r3, #36]
 841 00f2 5A1C     		adds	r2, r3, #1
 842 00f4 FB68     		ldr	r3, [r7, #12]
 843 00f6 5A62     		str	r2, [r3, #36]
1226:Drivers/STM32F3xx_HAL_Driver/Src/stm32f3xx_hal_i2c.c **** 
1227:Drivers/STM32F3xx_HAL_Driver/Src/stm32f3xx_hal_i2c.c ****       hi2c->XferSize--;
 844              		.loc 1 1227 0
 845 00f8 FB68     		ldr	r3, [r7, #12]
 846 00fa 1B8D     		ldrh	r3, [r3, #40]
 847 00fc 013B     		subs	r3, r3, #1
 848 00fe 9AB2     		uxth	r2, r3
 849 0100 FB68     		ldr	r3, [r7, #12]
 850 0102 1A85     		strh	r2, [r3, #40]	@ movhi
1228:Drivers/STM32F3xx_HAL_Driver/Src/stm32f3xx_hal_i2c.c ****       hi2c->XferCount--;
 851              		.loc 1 1228 0
 852 0104 FB68     		ldr	r3, [r7, #12]
 853 0106 5B8D     		ldrh	r3, [r3, #42]	@ movhi
 854 0108 9BB2     		uxth	r3, r3
 855 010a 013B     		subs	r3, r3, #1
 856 010c 9AB2     		uxth	r2, r3
 857 010e FB68     		ldr	r3, [r7, #12]
 858 0110 5A85     		strh	r2, [r3, #42]	@ movhi
1229:Drivers/STM32F3xx_HAL_Driver/Src/stm32f3xx_hal_i2c.c **** 
1230:Drivers/STM32F3xx_HAL_Driver/Src/stm32f3xx_hal_i2c.c ****       if ((hi2c->XferCount != 0U) && (hi2c->XferSize == 0U))
 859              		.loc 1 1230 0
 860 0112 FB68     		ldr	r3, [r7, #12]
 861 0114 5B8D     		ldrh	r3, [r3, #42]	@ movhi
 862 0116 9BB2     		uxth	r3, r3
 863 0118 002B     		cmp	r3, #0
 864 011a 34D0     		beq	.L35
 865              		.loc 1 1230 0 is_stmt 0 discriminator 1
 866 011c FB68     		ldr	r3, [r7, #12]
 867 011e 1B8D     		ldrh	r3, [r3, #40]
 868 0120 002B     		cmp	r3, #0
 869 0122 30D1     		bne	.L35
1231:Drivers/STM32F3xx_HAL_Driver/Src/stm32f3xx_hal_i2c.c ****       {
1232:Drivers/STM32F3xx_HAL_Driver/Src/stm32f3xx_hal_i2c.c ****         /* Wait until TCR flag is set */
1233:Drivers/STM32F3xx_HAL_Driver/Src/stm32f3xx_hal_i2c.c ****         if (I2C_WaitOnFlagUntilTimeout(hi2c, I2C_FLAG_TCR, RESET, Timeout, tickstart) != HAL_OK)
 870              		.loc 1 1233 0 is_stmt 1
 871 0124 7B69     		ldr	r3, [r7, #20]
 872 0126 0093     		str	r3, [sp]
 873 0128 3B6A     		ldr	r3, [r7, #32]
 874 012a 0022     		movs	r2, #0
 875 012c 8021     		movs	r1, #128
 876 012e F868     		ldr	r0, [r7, #12]
 877 0130 FFF7FEFF 		bl	I2C_WaitOnFlagUntilTimeout
 878 0134 0346     		mov	r3, r0
 879 0136 002B     		cmp	r3, #0
 880 0138 01D0     		beq	.L37
1234:Drivers/STM32F3xx_HAL_Driver/Src/stm32f3xx_hal_i2c.c ****         {
1235:Drivers/STM32F3xx_HAL_Driver/Src/stm32f3xx_hal_i2c.c ****           return HAL_ERROR;
 881              		.loc 1 1235 0
 882 013a 0123     		movs	r3, #1
 883 013c 4DE0     		b	.L31
 884              	.L37:
ARM GAS  /tmp/cc7eKD0K.s 			page 38


1236:Drivers/STM32F3xx_HAL_Driver/Src/stm32f3xx_hal_i2c.c ****         }
1237:Drivers/STM32F3xx_HAL_Driver/Src/stm32f3xx_hal_i2c.c **** 
1238:Drivers/STM32F3xx_HAL_Driver/Src/stm32f3xx_hal_i2c.c ****         if (hi2c->XferCount > MAX_NBYTE_SIZE)
 885              		.loc 1 1238 0
 886 013e FB68     		ldr	r3, [r7, #12]
 887 0140 5B8D     		ldrh	r3, [r3, #42]	@ movhi
 888 0142 9BB2     		uxth	r3, r3
 889 0144 FF2B     		cmp	r3, #255
 890 0146 0ED9     		bls	.L38
1239:Drivers/STM32F3xx_HAL_Driver/Src/stm32f3xx_hal_i2c.c ****         {
1240:Drivers/STM32F3xx_HAL_Driver/Src/stm32f3xx_hal_i2c.c ****           hi2c->XferSize = MAX_NBYTE_SIZE;
 891              		.loc 1 1240 0
 892 0148 FB68     		ldr	r3, [r7, #12]
 893 014a FF22     		movs	r2, #255
 894 014c 1A85     		strh	r2, [r3, #40]	@ movhi
1241:Drivers/STM32F3xx_HAL_Driver/Src/stm32f3xx_hal_i2c.c ****           I2C_TransferConfig(hi2c, DevAddress, (uint8_t)hi2c->XferSize, I2C_RELOAD_MODE, I2C_NO_STA
 895              		.loc 1 1241 0
 896 014e FB68     		ldr	r3, [r7, #12]
 897 0150 1B8D     		ldrh	r3, [r3, #40]
 898 0152 DAB2     		uxtb	r2, r3
 899 0154 7989     		ldrh	r1, [r7, #10]
 900 0156 0023     		movs	r3, #0
 901 0158 0093     		str	r3, [sp]
 902 015a 4FF08073 		mov	r3, #16777216
 903 015e F868     		ldr	r0, [r7, #12]
 904 0160 FFF7FEFF 		bl	I2C_TransferConfig
 905 0164 0FE0     		b	.L35
 906              	.L38:
1242:Drivers/STM32F3xx_HAL_Driver/Src/stm32f3xx_hal_i2c.c ****         }
1243:Drivers/STM32F3xx_HAL_Driver/Src/stm32f3xx_hal_i2c.c ****         else
1244:Drivers/STM32F3xx_HAL_Driver/Src/stm32f3xx_hal_i2c.c ****         {
1245:Drivers/STM32F3xx_HAL_Driver/Src/stm32f3xx_hal_i2c.c ****           hi2c->XferSize = hi2c->XferCount;
 907              		.loc 1 1245 0
 908 0166 FB68     		ldr	r3, [r7, #12]
 909 0168 5B8D     		ldrh	r3, [r3, #42]	@ movhi
 910 016a 9AB2     		uxth	r2, r3
 911 016c FB68     		ldr	r3, [r7, #12]
 912 016e 1A85     		strh	r2, [r3, #40]	@ movhi
1246:Drivers/STM32F3xx_HAL_Driver/Src/stm32f3xx_hal_i2c.c ****           I2C_TransferConfig(hi2c, DevAddress, (uint8_t)hi2c->XferSize, I2C_AUTOEND_MODE, I2C_NO_ST
 913              		.loc 1 1246 0
 914 0170 FB68     		ldr	r3, [r7, #12]
 915 0172 1B8D     		ldrh	r3, [r3, #40]
 916 0174 DAB2     		uxtb	r2, r3
 917 0176 7989     		ldrh	r1, [r7, #10]
 918 0178 0023     		movs	r3, #0
 919 017a 0093     		str	r3, [sp]
 920 017c 4FF00073 		mov	r3, #33554432
 921 0180 F868     		ldr	r0, [r7, #12]
 922 0182 FFF7FEFF 		bl	I2C_TransferConfig
 923              	.L35:
1213:Drivers/STM32F3xx_HAL_Driver/Src/stm32f3xx_hal_i2c.c ****     {
 924              		.loc 1 1213 0
 925 0186 FB68     		ldr	r3, [r7, #12]
 926 0188 5B8D     		ldrh	r3, [r3, #42]	@ movhi
 927 018a 9BB2     		uxth	r3, r3
 928 018c 002B     		cmp	r3, #0
 929 018e 9DD1     		bne	.L39
ARM GAS  /tmp/cc7eKD0K.s 			page 39


1247:Drivers/STM32F3xx_HAL_Driver/Src/stm32f3xx_hal_i2c.c ****         }
1248:Drivers/STM32F3xx_HAL_Driver/Src/stm32f3xx_hal_i2c.c ****       }
1249:Drivers/STM32F3xx_HAL_Driver/Src/stm32f3xx_hal_i2c.c ****     }
1250:Drivers/STM32F3xx_HAL_Driver/Src/stm32f3xx_hal_i2c.c **** 
1251:Drivers/STM32F3xx_HAL_Driver/Src/stm32f3xx_hal_i2c.c ****     /* No need to Check TC flag, with AUTOEND mode the stop is automatically generated */
1252:Drivers/STM32F3xx_HAL_Driver/Src/stm32f3xx_hal_i2c.c ****     /* Wait until STOPF flag is set */
1253:Drivers/STM32F3xx_HAL_Driver/Src/stm32f3xx_hal_i2c.c ****     if (I2C_WaitOnSTOPFlagUntilTimeout(hi2c, Timeout, tickstart) != HAL_OK)
 930              		.loc 1 1253 0
 931 0190 7A69     		ldr	r2, [r7, #20]
 932 0192 396A     		ldr	r1, [r7, #32]
 933 0194 F868     		ldr	r0, [r7, #12]
 934 0196 FFF7FEFF 		bl	I2C_WaitOnSTOPFlagUntilTimeout
 935 019a 0346     		mov	r3, r0
 936 019c 002B     		cmp	r3, #0
 937 019e 01D0     		beq	.L40
1254:Drivers/STM32F3xx_HAL_Driver/Src/stm32f3xx_hal_i2c.c ****     {
1255:Drivers/STM32F3xx_HAL_Driver/Src/stm32f3xx_hal_i2c.c ****       return HAL_ERROR;
 938              		.loc 1 1255 0
 939 01a0 0123     		movs	r3, #1
 940 01a2 1AE0     		b	.L31
 941              	.L40:
1256:Drivers/STM32F3xx_HAL_Driver/Src/stm32f3xx_hal_i2c.c ****     }
1257:Drivers/STM32F3xx_HAL_Driver/Src/stm32f3xx_hal_i2c.c **** 
1258:Drivers/STM32F3xx_HAL_Driver/Src/stm32f3xx_hal_i2c.c ****     /* Clear STOP Flag */
1259:Drivers/STM32F3xx_HAL_Driver/Src/stm32f3xx_hal_i2c.c ****     __HAL_I2C_CLEAR_FLAG(hi2c, I2C_FLAG_STOPF);
 942              		.loc 1 1259 0
 943 01a4 FB68     		ldr	r3, [r7, #12]
 944 01a6 1B68     		ldr	r3, [r3]
 945 01a8 2022     		movs	r2, #32
 946 01aa DA61     		str	r2, [r3, #28]
1260:Drivers/STM32F3xx_HAL_Driver/Src/stm32f3xx_hal_i2c.c **** 
1261:Drivers/STM32F3xx_HAL_Driver/Src/stm32f3xx_hal_i2c.c ****     /* Clear Configuration Register 2 */
1262:Drivers/STM32F3xx_HAL_Driver/Src/stm32f3xx_hal_i2c.c ****     I2C_RESET_CR2(hi2c);
 947              		.loc 1 1262 0
 948 01ac FB68     		ldr	r3, [r7, #12]
 949 01ae 1B68     		ldr	r3, [r3]
 950 01b0 5968     		ldr	r1, [r3, #4]
 951 01b2 FB68     		ldr	r3, [r7, #12]
 952 01b4 1A68     		ldr	r2, [r3]
 953 01b6 0C4B     		ldr	r3, .L41+4
 954 01b8 0B40     		ands	r3, r3, r1
 955 01ba 5360     		str	r3, [r2, #4]
1263:Drivers/STM32F3xx_HAL_Driver/Src/stm32f3xx_hal_i2c.c **** 
1264:Drivers/STM32F3xx_HAL_Driver/Src/stm32f3xx_hal_i2c.c ****     hi2c->State = HAL_I2C_STATE_READY;
 956              		.loc 1 1264 0
 957 01bc FB68     		ldr	r3, [r7, #12]
 958 01be 2022     		movs	r2, #32
 959 01c0 83F84120 		strb	r2, [r3, #65]
1265:Drivers/STM32F3xx_HAL_Driver/Src/stm32f3xx_hal_i2c.c ****     hi2c->Mode  = HAL_I2C_MODE_NONE;
 960              		.loc 1 1265 0
 961 01c4 FB68     		ldr	r3, [r7, #12]
 962 01c6 0022     		movs	r2, #0
 963 01c8 83F84220 		strb	r2, [r3, #66]
1266:Drivers/STM32F3xx_HAL_Driver/Src/stm32f3xx_hal_i2c.c **** 
1267:Drivers/STM32F3xx_HAL_Driver/Src/stm32f3xx_hal_i2c.c ****     /* Process Unlocked */
1268:Drivers/STM32F3xx_HAL_Driver/Src/stm32f3xx_hal_i2c.c ****     __HAL_UNLOCK(hi2c);
 964              		.loc 1 1268 0
ARM GAS  /tmp/cc7eKD0K.s 			page 40


 965 01cc FB68     		ldr	r3, [r7, #12]
 966 01ce 0022     		movs	r2, #0
 967 01d0 83F84020 		strb	r2, [r3, #64]
1269:Drivers/STM32F3xx_HAL_Driver/Src/stm32f3xx_hal_i2c.c **** 
1270:Drivers/STM32F3xx_HAL_Driver/Src/stm32f3xx_hal_i2c.c ****     return HAL_OK;
 968              		.loc 1 1270 0
 969 01d4 0023     		movs	r3, #0
 970 01d6 00E0     		b	.L31
 971              	.L29:
1271:Drivers/STM32F3xx_HAL_Driver/Src/stm32f3xx_hal_i2c.c ****   }
1272:Drivers/STM32F3xx_HAL_Driver/Src/stm32f3xx_hal_i2c.c ****   else
1273:Drivers/STM32F3xx_HAL_Driver/Src/stm32f3xx_hal_i2c.c ****   {
1274:Drivers/STM32F3xx_HAL_Driver/Src/stm32f3xx_hal_i2c.c ****     return HAL_BUSY;
 972              		.loc 1 1274 0
 973 01d8 0223     		movs	r3, #2
 974              	.L31:
1275:Drivers/STM32F3xx_HAL_Driver/Src/stm32f3xx_hal_i2c.c ****   }
1276:Drivers/STM32F3xx_HAL_Driver/Src/stm32f3xx_hal_i2c.c **** }
 975              		.loc 1 1276 0
 976 01da 1846     		mov	r0, r3
 977 01dc 1837     		adds	r7, r7, #24
 978              	.LCFI30:
 979              		.cfi_def_cfa_offset 8
 980 01de BD46     		mov	sp, r7
 981              	.LCFI31:
 982              		.cfi_def_cfa_register 13
 983              		@ sp needed
 984 01e0 80BD     		pop	{r7, pc}
 985              	.L42:
 986 01e2 00BF     		.align	2
 987              	.L41:
 988 01e4 00240080 		.word	-2147474432
 989 01e8 00E800FE 		.word	-33495040
 990              		.cfi_endproc
 991              	.LFE128:
 993              		.section	.text.HAL_I2C_Slave_Transmit,"ax",%progbits
 994              		.align	1
 995              		.global	HAL_I2C_Slave_Transmit
 996              		.syntax unified
 997              		.thumb
 998              		.thumb_func
 999              		.fpu fpv4-sp-d16
 1001              	HAL_I2C_Slave_Transmit:
 1002              	.LFB129:
1277:Drivers/STM32F3xx_HAL_Driver/Src/stm32f3xx_hal_i2c.c **** 
1278:Drivers/STM32F3xx_HAL_Driver/Src/stm32f3xx_hal_i2c.c **** /**
1279:Drivers/STM32F3xx_HAL_Driver/Src/stm32f3xx_hal_i2c.c ****   * @brief  Transmits in slave mode an amount of data in blocking mode.
1280:Drivers/STM32F3xx_HAL_Driver/Src/stm32f3xx_hal_i2c.c ****   * @param  hi2c Pointer to a I2C_HandleTypeDef structure that contains
1281:Drivers/STM32F3xx_HAL_Driver/Src/stm32f3xx_hal_i2c.c ****   *                the configuration information for the specified I2C.
1282:Drivers/STM32F3xx_HAL_Driver/Src/stm32f3xx_hal_i2c.c ****   * @param  pData Pointer to data buffer
1283:Drivers/STM32F3xx_HAL_Driver/Src/stm32f3xx_hal_i2c.c ****   * @param  Size Amount of data to be sent
1284:Drivers/STM32F3xx_HAL_Driver/Src/stm32f3xx_hal_i2c.c ****   * @param  Timeout Timeout duration
1285:Drivers/STM32F3xx_HAL_Driver/Src/stm32f3xx_hal_i2c.c ****   * @retval HAL status
1286:Drivers/STM32F3xx_HAL_Driver/Src/stm32f3xx_hal_i2c.c ****   */
1287:Drivers/STM32F3xx_HAL_Driver/Src/stm32f3xx_hal_i2c.c **** HAL_StatusTypeDef HAL_I2C_Slave_Transmit(I2C_HandleTypeDef *hi2c, uint8_t *pData, uint16_t Size, ui
1288:Drivers/STM32F3xx_HAL_Driver/Src/stm32f3xx_hal_i2c.c **** {
 1003              		.loc 1 1288 0
ARM GAS  /tmp/cc7eKD0K.s 			page 41


 1004              		.cfi_startproc
 1005              		@ args = 0, pretend = 0, frame = 24
 1006              		@ frame_needed = 1, uses_anonymous_args = 0
 1007 0000 80B5     		push	{r7, lr}
 1008              	.LCFI32:
 1009              		.cfi_def_cfa_offset 8
 1010              		.cfi_offset 7, -8
 1011              		.cfi_offset 14, -4
 1012 0002 88B0     		sub	sp, sp, #32
 1013              	.LCFI33:
 1014              		.cfi_def_cfa_offset 40
 1015 0004 02AF     		add	r7, sp, #8
 1016              	.LCFI34:
 1017              		.cfi_def_cfa 7, 32
 1018 0006 F860     		str	r0, [r7, #12]
 1019 0008 B960     		str	r1, [r7, #8]
 1020 000a 3B60     		str	r3, [r7]
 1021 000c 1346     		mov	r3, r2	@ movhi
 1022 000e FB80     		strh	r3, [r7, #6]	@ movhi
1289:Drivers/STM32F3xx_HAL_Driver/Src/stm32f3xx_hal_i2c.c ****   uint32_t tickstart;
1290:Drivers/STM32F3xx_HAL_Driver/Src/stm32f3xx_hal_i2c.c **** 
1291:Drivers/STM32F3xx_HAL_Driver/Src/stm32f3xx_hal_i2c.c ****   if (hi2c->State == HAL_I2C_STATE_READY)
 1023              		.loc 1 1291 0
 1024 0010 FB68     		ldr	r3, [r7, #12]
 1025 0012 93F84130 		ldrb	r3, [r3, #65]
 1026 0016 DBB2     		uxtb	r3, r3
 1027 0018 202B     		cmp	r3, #32
 1028 001a 40F0F580 		bne	.L44
1292:Drivers/STM32F3xx_HAL_Driver/Src/stm32f3xx_hal_i2c.c ****   {
1293:Drivers/STM32F3xx_HAL_Driver/Src/stm32f3xx_hal_i2c.c ****     if ((pData == NULL) || (Size == 0U))
 1029              		.loc 1 1293 0
 1030 001e BB68     		ldr	r3, [r7, #8]
 1031 0020 002B     		cmp	r3, #0
 1032 0022 02D0     		beq	.L45
 1033              		.loc 1 1293 0 is_stmt 0 discriminator 1
 1034 0024 FB88     		ldrh	r3, [r7, #6]
 1035 0026 002B     		cmp	r3, #0
 1036 0028 05D1     		bne	.L46
 1037              	.L45:
1294:Drivers/STM32F3xx_HAL_Driver/Src/stm32f3xx_hal_i2c.c ****     {
1295:Drivers/STM32F3xx_HAL_Driver/Src/stm32f3xx_hal_i2c.c ****       hi2c->ErrorCode = HAL_I2C_ERROR_INVALID_PARAM;
 1038              		.loc 1 1295 0 is_stmt 1
 1039 002a FB68     		ldr	r3, [r7, #12]
 1040 002c 4FF40072 		mov	r2, #512
 1041 0030 5A64     		str	r2, [r3, #68]
1296:Drivers/STM32F3xx_HAL_Driver/Src/stm32f3xx_hal_i2c.c ****       return  HAL_ERROR;
 1042              		.loc 1 1296 0
 1043 0032 0123     		movs	r3, #1
 1044 0034 E9E0     		b	.L47
 1045              	.L46:
1297:Drivers/STM32F3xx_HAL_Driver/Src/stm32f3xx_hal_i2c.c ****     }
1298:Drivers/STM32F3xx_HAL_Driver/Src/stm32f3xx_hal_i2c.c ****     /* Process Locked */
1299:Drivers/STM32F3xx_HAL_Driver/Src/stm32f3xx_hal_i2c.c ****     __HAL_LOCK(hi2c);
 1046              		.loc 1 1299 0
 1047 0036 FB68     		ldr	r3, [r7, #12]
 1048 0038 93F84030 		ldrb	r3, [r3, #64]	@ zero_extendqisi2
 1049 003c 012B     		cmp	r3, #1
ARM GAS  /tmp/cc7eKD0K.s 			page 42


 1050 003e 01D1     		bne	.L48
 1051              		.loc 1 1299 0 is_stmt 0 discriminator 1
 1052 0040 0223     		movs	r3, #2
 1053 0042 E2E0     		b	.L47
 1054              	.L48:
 1055              		.loc 1 1299 0 discriminator 2
 1056 0044 FB68     		ldr	r3, [r7, #12]
 1057 0046 0122     		movs	r2, #1
 1058 0048 83F84020 		strb	r2, [r3, #64]
1300:Drivers/STM32F3xx_HAL_Driver/Src/stm32f3xx_hal_i2c.c **** 
1301:Drivers/STM32F3xx_HAL_Driver/Src/stm32f3xx_hal_i2c.c ****     /* Init tickstart for timeout management*/
1302:Drivers/STM32F3xx_HAL_Driver/Src/stm32f3xx_hal_i2c.c ****     tickstart = HAL_GetTick();
 1059              		.loc 1 1302 0 is_stmt 1 discriminator 2
 1060 004c FFF7FEFF 		bl	HAL_GetTick
 1061 0050 7861     		str	r0, [r7, #20]
1303:Drivers/STM32F3xx_HAL_Driver/Src/stm32f3xx_hal_i2c.c **** 
1304:Drivers/STM32F3xx_HAL_Driver/Src/stm32f3xx_hal_i2c.c ****     hi2c->State     = HAL_I2C_STATE_BUSY_TX;
 1062              		.loc 1 1304 0 discriminator 2
 1063 0052 FB68     		ldr	r3, [r7, #12]
 1064 0054 2122     		movs	r2, #33
 1065 0056 83F84120 		strb	r2, [r3, #65]
1305:Drivers/STM32F3xx_HAL_Driver/Src/stm32f3xx_hal_i2c.c ****     hi2c->Mode      = HAL_I2C_MODE_SLAVE;
 1066              		.loc 1 1305 0 discriminator 2
 1067 005a FB68     		ldr	r3, [r7, #12]
 1068 005c 2022     		movs	r2, #32
 1069 005e 83F84220 		strb	r2, [r3, #66]
1306:Drivers/STM32F3xx_HAL_Driver/Src/stm32f3xx_hal_i2c.c ****     hi2c->ErrorCode = HAL_I2C_ERROR_NONE;
 1070              		.loc 1 1306 0 discriminator 2
 1071 0062 FB68     		ldr	r3, [r7, #12]
 1072 0064 0022     		movs	r2, #0
 1073 0066 5A64     		str	r2, [r3, #68]
1307:Drivers/STM32F3xx_HAL_Driver/Src/stm32f3xx_hal_i2c.c **** 
1308:Drivers/STM32F3xx_HAL_Driver/Src/stm32f3xx_hal_i2c.c ****     /* Prepare transfer parameters */
1309:Drivers/STM32F3xx_HAL_Driver/Src/stm32f3xx_hal_i2c.c ****     hi2c->pBuffPtr  = pData;
 1074              		.loc 1 1309 0 discriminator 2
 1075 0068 FB68     		ldr	r3, [r7, #12]
 1076 006a BA68     		ldr	r2, [r7, #8]
 1077 006c 5A62     		str	r2, [r3, #36]
1310:Drivers/STM32F3xx_HAL_Driver/Src/stm32f3xx_hal_i2c.c ****     hi2c->XferCount = Size;
 1078              		.loc 1 1310 0 discriminator 2
 1079 006e FB68     		ldr	r3, [r7, #12]
 1080 0070 FA88     		ldrh	r2, [r7, #6]	@ movhi
 1081 0072 5A85     		strh	r2, [r3, #42]	@ movhi
1311:Drivers/STM32F3xx_HAL_Driver/Src/stm32f3xx_hal_i2c.c ****     hi2c->XferISR   = NULL;
 1082              		.loc 1 1311 0 discriminator 2
 1083 0074 FB68     		ldr	r3, [r7, #12]
 1084 0076 0022     		movs	r2, #0
 1085 0078 5A63     		str	r2, [r3, #52]
1312:Drivers/STM32F3xx_HAL_Driver/Src/stm32f3xx_hal_i2c.c **** 
1313:Drivers/STM32F3xx_HAL_Driver/Src/stm32f3xx_hal_i2c.c ****     /* Enable Address Acknowledge */
1314:Drivers/STM32F3xx_HAL_Driver/Src/stm32f3xx_hal_i2c.c ****     hi2c->Instance->CR2 &= ~I2C_CR2_NACK;
 1086              		.loc 1 1314 0 discriminator 2
 1087 007a FB68     		ldr	r3, [r7, #12]
 1088 007c 1B68     		ldr	r3, [r3]
 1089 007e 5A68     		ldr	r2, [r3, #4]
 1090 0080 FB68     		ldr	r3, [r7, #12]
 1091 0082 1B68     		ldr	r3, [r3]
ARM GAS  /tmp/cc7eKD0K.s 			page 43


 1092 0084 22F40042 		bic	r2, r2, #32768
 1093 0088 5A60     		str	r2, [r3, #4]
1315:Drivers/STM32F3xx_HAL_Driver/Src/stm32f3xx_hal_i2c.c **** 
1316:Drivers/STM32F3xx_HAL_Driver/Src/stm32f3xx_hal_i2c.c ****     /* Wait until ADDR flag is set */
1317:Drivers/STM32F3xx_HAL_Driver/Src/stm32f3xx_hal_i2c.c ****     if (I2C_WaitOnFlagUntilTimeout(hi2c, I2C_FLAG_ADDR, RESET, Timeout, tickstart) != HAL_OK)
 1094              		.loc 1 1317 0 discriminator 2
 1095 008a 7B69     		ldr	r3, [r7, #20]
 1096 008c 0093     		str	r3, [sp]
 1097 008e 3B68     		ldr	r3, [r7]
 1098 0090 0022     		movs	r2, #0
 1099 0092 0821     		movs	r1, #8
 1100 0094 F868     		ldr	r0, [r7, #12]
 1101 0096 FFF7FEFF 		bl	I2C_WaitOnFlagUntilTimeout
 1102 009a 0346     		mov	r3, r0
 1103 009c 002B     		cmp	r3, #0
 1104 009e 09D0     		beq	.L49
1318:Drivers/STM32F3xx_HAL_Driver/Src/stm32f3xx_hal_i2c.c ****     {
1319:Drivers/STM32F3xx_HAL_Driver/Src/stm32f3xx_hal_i2c.c ****       /* Disable Address Acknowledge */
1320:Drivers/STM32F3xx_HAL_Driver/Src/stm32f3xx_hal_i2c.c ****       hi2c->Instance->CR2 |= I2C_CR2_NACK;
 1105              		.loc 1 1320 0
 1106 00a0 FB68     		ldr	r3, [r7, #12]
 1107 00a2 1B68     		ldr	r3, [r3]
 1108 00a4 5A68     		ldr	r2, [r3, #4]
 1109 00a6 FB68     		ldr	r3, [r7, #12]
 1110 00a8 1B68     		ldr	r3, [r3]
 1111 00aa 42F40042 		orr	r2, r2, #32768
 1112 00ae 5A60     		str	r2, [r3, #4]
1321:Drivers/STM32F3xx_HAL_Driver/Src/stm32f3xx_hal_i2c.c ****       return HAL_ERROR;
 1113              		.loc 1 1321 0
 1114 00b0 0123     		movs	r3, #1
 1115 00b2 AAE0     		b	.L47
 1116              	.L49:
1322:Drivers/STM32F3xx_HAL_Driver/Src/stm32f3xx_hal_i2c.c ****     }
1323:Drivers/STM32F3xx_HAL_Driver/Src/stm32f3xx_hal_i2c.c **** 
1324:Drivers/STM32F3xx_HAL_Driver/Src/stm32f3xx_hal_i2c.c ****     /* Clear ADDR flag */
1325:Drivers/STM32F3xx_HAL_Driver/Src/stm32f3xx_hal_i2c.c ****     __HAL_I2C_CLEAR_FLAG(hi2c, I2C_FLAG_ADDR);
 1117              		.loc 1 1325 0
 1118 00b4 FB68     		ldr	r3, [r7, #12]
 1119 00b6 1B68     		ldr	r3, [r3]
 1120 00b8 0822     		movs	r2, #8
 1121 00ba DA61     		str	r2, [r3, #28]
1326:Drivers/STM32F3xx_HAL_Driver/Src/stm32f3xx_hal_i2c.c **** 
1327:Drivers/STM32F3xx_HAL_Driver/Src/stm32f3xx_hal_i2c.c ****     /* If 10bit addressing mode is selected */
1328:Drivers/STM32F3xx_HAL_Driver/Src/stm32f3xx_hal_i2c.c ****     if (hi2c->Init.AddressingMode == I2C_ADDRESSINGMODE_10BIT)
 1122              		.loc 1 1328 0
 1123 00bc FB68     		ldr	r3, [r7, #12]
 1124 00be DB68     		ldr	r3, [r3, #12]
 1125 00c0 022B     		cmp	r3, #2
 1126 00c2 18D1     		bne	.L50
1329:Drivers/STM32F3xx_HAL_Driver/Src/stm32f3xx_hal_i2c.c ****     {
1330:Drivers/STM32F3xx_HAL_Driver/Src/stm32f3xx_hal_i2c.c ****       /* Wait until ADDR flag is set */
1331:Drivers/STM32F3xx_HAL_Driver/Src/stm32f3xx_hal_i2c.c ****       if (I2C_WaitOnFlagUntilTimeout(hi2c, I2C_FLAG_ADDR, RESET, Timeout, tickstart) != HAL_OK)
 1127              		.loc 1 1331 0
 1128 00c4 7B69     		ldr	r3, [r7, #20]
 1129 00c6 0093     		str	r3, [sp]
 1130 00c8 3B68     		ldr	r3, [r7]
 1131 00ca 0022     		movs	r2, #0
ARM GAS  /tmp/cc7eKD0K.s 			page 44


 1132 00cc 0821     		movs	r1, #8
 1133 00ce F868     		ldr	r0, [r7, #12]
 1134 00d0 FFF7FEFF 		bl	I2C_WaitOnFlagUntilTimeout
 1135 00d4 0346     		mov	r3, r0
 1136 00d6 002B     		cmp	r3, #0
 1137 00d8 09D0     		beq	.L51
1332:Drivers/STM32F3xx_HAL_Driver/Src/stm32f3xx_hal_i2c.c ****       {
1333:Drivers/STM32F3xx_HAL_Driver/Src/stm32f3xx_hal_i2c.c ****         /* Disable Address Acknowledge */
1334:Drivers/STM32F3xx_HAL_Driver/Src/stm32f3xx_hal_i2c.c ****         hi2c->Instance->CR2 |= I2C_CR2_NACK;
 1138              		.loc 1 1334 0
 1139 00da FB68     		ldr	r3, [r7, #12]
 1140 00dc 1B68     		ldr	r3, [r3]
 1141 00de 5A68     		ldr	r2, [r3, #4]
 1142 00e0 FB68     		ldr	r3, [r7, #12]
 1143 00e2 1B68     		ldr	r3, [r3]
 1144 00e4 42F40042 		orr	r2, r2, #32768
 1145 00e8 5A60     		str	r2, [r3, #4]
1335:Drivers/STM32F3xx_HAL_Driver/Src/stm32f3xx_hal_i2c.c ****         return HAL_ERROR;
 1146              		.loc 1 1335 0
 1147 00ea 0123     		movs	r3, #1
 1148 00ec 8DE0     		b	.L47
 1149              	.L51:
1336:Drivers/STM32F3xx_HAL_Driver/Src/stm32f3xx_hal_i2c.c ****       }
1337:Drivers/STM32F3xx_HAL_Driver/Src/stm32f3xx_hal_i2c.c **** 
1338:Drivers/STM32F3xx_HAL_Driver/Src/stm32f3xx_hal_i2c.c ****       /* Clear ADDR flag */
1339:Drivers/STM32F3xx_HAL_Driver/Src/stm32f3xx_hal_i2c.c ****       __HAL_I2C_CLEAR_FLAG(hi2c, I2C_FLAG_ADDR);
 1150              		.loc 1 1339 0
 1151 00ee FB68     		ldr	r3, [r7, #12]
 1152 00f0 1B68     		ldr	r3, [r3]
 1153 00f2 0822     		movs	r2, #8
 1154 00f4 DA61     		str	r2, [r3, #28]
 1155              	.L50:
1340:Drivers/STM32F3xx_HAL_Driver/Src/stm32f3xx_hal_i2c.c ****     }
1341:Drivers/STM32F3xx_HAL_Driver/Src/stm32f3xx_hal_i2c.c **** 
1342:Drivers/STM32F3xx_HAL_Driver/Src/stm32f3xx_hal_i2c.c ****     /* Wait until DIR flag is set Transmitter mode */
1343:Drivers/STM32F3xx_HAL_Driver/Src/stm32f3xx_hal_i2c.c ****     if (I2C_WaitOnFlagUntilTimeout(hi2c, I2C_FLAG_DIR, RESET, Timeout, tickstart) != HAL_OK)
 1156              		.loc 1 1343 0
 1157 00f6 7B69     		ldr	r3, [r7, #20]
 1158 00f8 0093     		str	r3, [sp]
 1159 00fa 3B68     		ldr	r3, [r7]
 1160 00fc 0022     		movs	r2, #0
 1161 00fe 4FF48031 		mov	r1, #65536
 1162 0102 F868     		ldr	r0, [r7, #12]
 1163 0104 FFF7FEFF 		bl	I2C_WaitOnFlagUntilTimeout
 1164 0108 0346     		mov	r3, r0
 1165 010a 002B     		cmp	r3, #0
 1166 010c 2DD0     		beq	.L53
1344:Drivers/STM32F3xx_HAL_Driver/Src/stm32f3xx_hal_i2c.c ****     {
1345:Drivers/STM32F3xx_HAL_Driver/Src/stm32f3xx_hal_i2c.c ****       /* Disable Address Acknowledge */
1346:Drivers/STM32F3xx_HAL_Driver/Src/stm32f3xx_hal_i2c.c ****       hi2c->Instance->CR2 |= I2C_CR2_NACK;
 1167              		.loc 1 1346 0
 1168 010e FB68     		ldr	r3, [r7, #12]
 1169 0110 1B68     		ldr	r3, [r3]
 1170 0112 5A68     		ldr	r2, [r3, #4]
 1171 0114 FB68     		ldr	r3, [r7, #12]
 1172 0116 1B68     		ldr	r3, [r3]
 1173 0118 42F40042 		orr	r2, r2, #32768
ARM GAS  /tmp/cc7eKD0K.s 			page 45


 1174 011c 5A60     		str	r2, [r3, #4]
1347:Drivers/STM32F3xx_HAL_Driver/Src/stm32f3xx_hal_i2c.c ****       return HAL_ERROR;
 1175              		.loc 1 1347 0
 1176 011e 0123     		movs	r3, #1
 1177 0120 73E0     		b	.L47
 1178              	.L55:
1348:Drivers/STM32F3xx_HAL_Driver/Src/stm32f3xx_hal_i2c.c ****     }
1349:Drivers/STM32F3xx_HAL_Driver/Src/stm32f3xx_hal_i2c.c **** 
1350:Drivers/STM32F3xx_HAL_Driver/Src/stm32f3xx_hal_i2c.c ****     while (hi2c->XferCount > 0U)
1351:Drivers/STM32F3xx_HAL_Driver/Src/stm32f3xx_hal_i2c.c ****     {
1352:Drivers/STM32F3xx_HAL_Driver/Src/stm32f3xx_hal_i2c.c ****       /* Wait until TXIS flag is set */
1353:Drivers/STM32F3xx_HAL_Driver/Src/stm32f3xx_hal_i2c.c ****       if (I2C_WaitOnTXISFlagUntilTimeout(hi2c, Timeout, tickstart) != HAL_OK)
 1179              		.loc 1 1353 0
 1180 0122 7A69     		ldr	r2, [r7, #20]
 1181 0124 3968     		ldr	r1, [r7]
 1182 0126 F868     		ldr	r0, [r7, #12]
 1183 0128 FFF7FEFF 		bl	I2C_WaitOnTXISFlagUntilTimeout
 1184 012c 0346     		mov	r3, r0
 1185 012e 002B     		cmp	r3, #0
 1186 0130 09D0     		beq	.L54
1354:Drivers/STM32F3xx_HAL_Driver/Src/stm32f3xx_hal_i2c.c ****       {
1355:Drivers/STM32F3xx_HAL_Driver/Src/stm32f3xx_hal_i2c.c ****         /* Disable Address Acknowledge */
1356:Drivers/STM32F3xx_HAL_Driver/Src/stm32f3xx_hal_i2c.c ****         hi2c->Instance->CR2 |= I2C_CR2_NACK;
 1187              		.loc 1 1356 0
 1188 0132 FB68     		ldr	r3, [r7, #12]
 1189 0134 1B68     		ldr	r3, [r3]
 1190 0136 5A68     		ldr	r2, [r3, #4]
 1191 0138 FB68     		ldr	r3, [r7, #12]
 1192 013a 1B68     		ldr	r3, [r3]
 1193 013c 42F40042 		orr	r2, r2, #32768
 1194 0140 5A60     		str	r2, [r3, #4]
1357:Drivers/STM32F3xx_HAL_Driver/Src/stm32f3xx_hal_i2c.c ****         return HAL_ERROR;
 1195              		.loc 1 1357 0
 1196 0142 0123     		movs	r3, #1
 1197 0144 61E0     		b	.L47
 1198              	.L54:
1358:Drivers/STM32F3xx_HAL_Driver/Src/stm32f3xx_hal_i2c.c ****       }
1359:Drivers/STM32F3xx_HAL_Driver/Src/stm32f3xx_hal_i2c.c **** 
1360:Drivers/STM32F3xx_HAL_Driver/Src/stm32f3xx_hal_i2c.c ****       /* Write data to TXDR */
1361:Drivers/STM32F3xx_HAL_Driver/Src/stm32f3xx_hal_i2c.c ****       hi2c->Instance->TXDR = *hi2c->pBuffPtr;
 1199              		.loc 1 1361 0
 1200 0146 FB68     		ldr	r3, [r7, #12]
 1201 0148 5B6A     		ldr	r3, [r3, #36]
 1202 014a 1A78     		ldrb	r2, [r3]	@ zero_extendqisi2
 1203 014c FB68     		ldr	r3, [r7, #12]
 1204 014e 1B68     		ldr	r3, [r3]
 1205 0150 9A62     		str	r2, [r3, #40]
1362:Drivers/STM32F3xx_HAL_Driver/Src/stm32f3xx_hal_i2c.c **** 
1363:Drivers/STM32F3xx_HAL_Driver/Src/stm32f3xx_hal_i2c.c ****       /* Increment Buffer pointer */
1364:Drivers/STM32F3xx_HAL_Driver/Src/stm32f3xx_hal_i2c.c ****       hi2c->pBuffPtr++;
 1206              		.loc 1 1364 0
 1207 0152 FB68     		ldr	r3, [r7, #12]
 1208 0154 5B6A     		ldr	r3, [r3, #36]
 1209 0156 5A1C     		adds	r2, r3, #1
 1210 0158 FB68     		ldr	r3, [r7, #12]
 1211 015a 5A62     		str	r2, [r3, #36]
1365:Drivers/STM32F3xx_HAL_Driver/Src/stm32f3xx_hal_i2c.c **** 
ARM GAS  /tmp/cc7eKD0K.s 			page 46


1366:Drivers/STM32F3xx_HAL_Driver/Src/stm32f3xx_hal_i2c.c ****       hi2c->XferCount--;
 1212              		.loc 1 1366 0
 1213 015c FB68     		ldr	r3, [r7, #12]
 1214 015e 5B8D     		ldrh	r3, [r3, #42]	@ movhi
 1215 0160 9BB2     		uxth	r3, r3
 1216 0162 013B     		subs	r3, r3, #1
 1217 0164 9AB2     		uxth	r2, r3
 1218 0166 FB68     		ldr	r3, [r7, #12]
 1219 0168 5A85     		strh	r2, [r3, #42]	@ movhi
 1220              	.L53:
1350:Drivers/STM32F3xx_HAL_Driver/Src/stm32f3xx_hal_i2c.c ****     {
 1221              		.loc 1 1350 0
 1222 016a FB68     		ldr	r3, [r7, #12]
 1223 016c 5B8D     		ldrh	r3, [r3, #42]	@ movhi
 1224 016e 9BB2     		uxth	r3, r3
 1225 0170 002B     		cmp	r3, #0
 1226 0172 D6D1     		bne	.L55
1367:Drivers/STM32F3xx_HAL_Driver/Src/stm32f3xx_hal_i2c.c ****     }
1368:Drivers/STM32F3xx_HAL_Driver/Src/stm32f3xx_hal_i2c.c **** 
1369:Drivers/STM32F3xx_HAL_Driver/Src/stm32f3xx_hal_i2c.c ****     /* Wait until STOP flag is set */
1370:Drivers/STM32F3xx_HAL_Driver/Src/stm32f3xx_hal_i2c.c ****     if (I2C_WaitOnSTOPFlagUntilTimeout(hi2c, Timeout, tickstart) != HAL_OK)
 1227              		.loc 1 1370 0
 1228 0174 7A69     		ldr	r2, [r7, #20]
 1229 0176 3968     		ldr	r1, [r7]
 1230 0178 F868     		ldr	r0, [r7, #12]
 1231 017a FFF7FEFF 		bl	I2C_WaitOnSTOPFlagUntilTimeout
 1232 017e 0346     		mov	r3, r0
 1233 0180 002B     		cmp	r3, #0
 1234 0182 11D0     		beq	.L56
1371:Drivers/STM32F3xx_HAL_Driver/Src/stm32f3xx_hal_i2c.c ****     {
1372:Drivers/STM32F3xx_HAL_Driver/Src/stm32f3xx_hal_i2c.c ****       /* Disable Address Acknowledge */
1373:Drivers/STM32F3xx_HAL_Driver/Src/stm32f3xx_hal_i2c.c ****       hi2c->Instance->CR2 |= I2C_CR2_NACK;
 1235              		.loc 1 1373 0
 1236 0184 FB68     		ldr	r3, [r7, #12]
 1237 0186 1B68     		ldr	r3, [r3]
 1238 0188 5A68     		ldr	r2, [r3, #4]
 1239 018a FB68     		ldr	r3, [r7, #12]
 1240 018c 1B68     		ldr	r3, [r3]
 1241 018e 42F40042 		orr	r2, r2, #32768
 1242 0192 5A60     		str	r2, [r3, #4]
1374:Drivers/STM32F3xx_HAL_Driver/Src/stm32f3xx_hal_i2c.c **** 
1375:Drivers/STM32F3xx_HAL_Driver/Src/stm32f3xx_hal_i2c.c ****       if (hi2c->ErrorCode == HAL_I2C_ERROR_AF)
 1243              		.loc 1 1375 0
 1244 0194 FB68     		ldr	r3, [r7, #12]
 1245 0196 5B6C     		ldr	r3, [r3, #68]
 1246 0198 042B     		cmp	r3, #4
 1247 019a 03D1     		bne	.L57
1376:Drivers/STM32F3xx_HAL_Driver/Src/stm32f3xx_hal_i2c.c ****       {
1377:Drivers/STM32F3xx_HAL_Driver/Src/stm32f3xx_hal_i2c.c ****         /* Normal use case for Transmitter mode */
1378:Drivers/STM32F3xx_HAL_Driver/Src/stm32f3xx_hal_i2c.c ****         /* A NACK is generated to confirm the end of transfer */
1379:Drivers/STM32F3xx_HAL_Driver/Src/stm32f3xx_hal_i2c.c ****         hi2c->ErrorCode = HAL_I2C_ERROR_NONE;
 1248              		.loc 1 1379 0
 1249 019c FB68     		ldr	r3, [r7, #12]
 1250 019e 0022     		movs	r2, #0
 1251 01a0 5A64     		str	r2, [r3, #68]
 1252 01a2 01E0     		b	.L56
 1253              	.L57:
ARM GAS  /tmp/cc7eKD0K.s 			page 47


1380:Drivers/STM32F3xx_HAL_Driver/Src/stm32f3xx_hal_i2c.c ****       }
1381:Drivers/STM32F3xx_HAL_Driver/Src/stm32f3xx_hal_i2c.c ****       else
1382:Drivers/STM32F3xx_HAL_Driver/Src/stm32f3xx_hal_i2c.c ****       {
1383:Drivers/STM32F3xx_HAL_Driver/Src/stm32f3xx_hal_i2c.c ****         return HAL_ERROR;
 1254              		.loc 1 1383 0
 1255 01a4 0123     		movs	r3, #1
 1256 01a6 30E0     		b	.L47
 1257              	.L56:
1384:Drivers/STM32F3xx_HAL_Driver/Src/stm32f3xx_hal_i2c.c ****       }
1385:Drivers/STM32F3xx_HAL_Driver/Src/stm32f3xx_hal_i2c.c ****     }
1386:Drivers/STM32F3xx_HAL_Driver/Src/stm32f3xx_hal_i2c.c **** 
1387:Drivers/STM32F3xx_HAL_Driver/Src/stm32f3xx_hal_i2c.c ****     /* Clear STOP flag */
1388:Drivers/STM32F3xx_HAL_Driver/Src/stm32f3xx_hal_i2c.c ****     __HAL_I2C_CLEAR_FLAG(hi2c, I2C_FLAG_STOPF);
 1258              		.loc 1 1388 0
 1259 01a8 FB68     		ldr	r3, [r7, #12]
 1260 01aa 1B68     		ldr	r3, [r3]
 1261 01ac 2022     		movs	r2, #32
 1262 01ae DA61     		str	r2, [r3, #28]
1389:Drivers/STM32F3xx_HAL_Driver/Src/stm32f3xx_hal_i2c.c **** 
1390:Drivers/STM32F3xx_HAL_Driver/Src/stm32f3xx_hal_i2c.c ****     /* Wait until BUSY flag is reset */
1391:Drivers/STM32F3xx_HAL_Driver/Src/stm32f3xx_hal_i2c.c ****     if (I2C_WaitOnFlagUntilTimeout(hi2c, I2C_FLAG_BUSY, SET, Timeout, tickstart) != HAL_OK)
 1263              		.loc 1 1391 0
 1264 01b0 7B69     		ldr	r3, [r7, #20]
 1265 01b2 0093     		str	r3, [sp]
 1266 01b4 3B68     		ldr	r3, [r7]
 1267 01b6 0122     		movs	r2, #1
 1268 01b8 4FF40041 		mov	r1, #32768
 1269 01bc F868     		ldr	r0, [r7, #12]
 1270 01be FFF7FEFF 		bl	I2C_WaitOnFlagUntilTimeout
 1271 01c2 0346     		mov	r3, r0
 1272 01c4 002B     		cmp	r3, #0
 1273 01c6 09D0     		beq	.L58
1392:Drivers/STM32F3xx_HAL_Driver/Src/stm32f3xx_hal_i2c.c ****     {
1393:Drivers/STM32F3xx_HAL_Driver/Src/stm32f3xx_hal_i2c.c ****       /* Disable Address Acknowledge */
1394:Drivers/STM32F3xx_HAL_Driver/Src/stm32f3xx_hal_i2c.c ****       hi2c->Instance->CR2 |= I2C_CR2_NACK;
 1274              		.loc 1 1394 0
 1275 01c8 FB68     		ldr	r3, [r7, #12]
 1276 01ca 1B68     		ldr	r3, [r3]
 1277 01cc 5A68     		ldr	r2, [r3, #4]
 1278 01ce FB68     		ldr	r3, [r7, #12]
 1279 01d0 1B68     		ldr	r3, [r3]
 1280 01d2 42F40042 		orr	r2, r2, #32768
 1281 01d6 5A60     		str	r2, [r3, #4]
1395:Drivers/STM32F3xx_HAL_Driver/Src/stm32f3xx_hal_i2c.c ****       return HAL_ERROR;
 1282              		.loc 1 1395 0
 1283 01d8 0123     		movs	r3, #1
 1284 01da 16E0     		b	.L47
 1285              	.L58:
1396:Drivers/STM32F3xx_HAL_Driver/Src/stm32f3xx_hal_i2c.c ****     }
1397:Drivers/STM32F3xx_HAL_Driver/Src/stm32f3xx_hal_i2c.c **** 
1398:Drivers/STM32F3xx_HAL_Driver/Src/stm32f3xx_hal_i2c.c ****     /* Disable Address Acknowledge */
1399:Drivers/STM32F3xx_HAL_Driver/Src/stm32f3xx_hal_i2c.c ****     hi2c->Instance->CR2 |= I2C_CR2_NACK;
 1286              		.loc 1 1399 0
 1287 01dc FB68     		ldr	r3, [r7, #12]
 1288 01de 1B68     		ldr	r3, [r3]
 1289 01e0 5A68     		ldr	r2, [r3, #4]
 1290 01e2 FB68     		ldr	r3, [r7, #12]
ARM GAS  /tmp/cc7eKD0K.s 			page 48


 1291 01e4 1B68     		ldr	r3, [r3]
 1292 01e6 42F40042 		orr	r2, r2, #32768
 1293 01ea 5A60     		str	r2, [r3, #4]
1400:Drivers/STM32F3xx_HAL_Driver/Src/stm32f3xx_hal_i2c.c **** 
1401:Drivers/STM32F3xx_HAL_Driver/Src/stm32f3xx_hal_i2c.c ****     hi2c->State = HAL_I2C_STATE_READY;
 1294              		.loc 1 1401 0
 1295 01ec FB68     		ldr	r3, [r7, #12]
 1296 01ee 2022     		movs	r2, #32
 1297 01f0 83F84120 		strb	r2, [r3, #65]
1402:Drivers/STM32F3xx_HAL_Driver/Src/stm32f3xx_hal_i2c.c ****     hi2c->Mode  = HAL_I2C_MODE_NONE;
 1298              		.loc 1 1402 0
 1299 01f4 FB68     		ldr	r3, [r7, #12]
 1300 01f6 0022     		movs	r2, #0
 1301 01f8 83F84220 		strb	r2, [r3, #66]
1403:Drivers/STM32F3xx_HAL_Driver/Src/stm32f3xx_hal_i2c.c **** 
1404:Drivers/STM32F3xx_HAL_Driver/Src/stm32f3xx_hal_i2c.c ****     /* Process Unlocked */
1405:Drivers/STM32F3xx_HAL_Driver/Src/stm32f3xx_hal_i2c.c ****     __HAL_UNLOCK(hi2c);
 1302              		.loc 1 1405 0
 1303 01fc FB68     		ldr	r3, [r7, #12]
 1304 01fe 0022     		movs	r2, #0
 1305 0200 83F84020 		strb	r2, [r3, #64]
1406:Drivers/STM32F3xx_HAL_Driver/Src/stm32f3xx_hal_i2c.c **** 
1407:Drivers/STM32F3xx_HAL_Driver/Src/stm32f3xx_hal_i2c.c ****     return HAL_OK;
 1306              		.loc 1 1407 0
 1307 0204 0023     		movs	r3, #0
 1308 0206 00E0     		b	.L47
 1309              	.L44:
1408:Drivers/STM32F3xx_HAL_Driver/Src/stm32f3xx_hal_i2c.c ****   }
1409:Drivers/STM32F3xx_HAL_Driver/Src/stm32f3xx_hal_i2c.c ****   else
1410:Drivers/STM32F3xx_HAL_Driver/Src/stm32f3xx_hal_i2c.c ****   {
1411:Drivers/STM32F3xx_HAL_Driver/Src/stm32f3xx_hal_i2c.c ****     return HAL_BUSY;
 1310              		.loc 1 1411 0
 1311 0208 0223     		movs	r3, #2
 1312              	.L47:
1412:Drivers/STM32F3xx_HAL_Driver/Src/stm32f3xx_hal_i2c.c ****   }
1413:Drivers/STM32F3xx_HAL_Driver/Src/stm32f3xx_hal_i2c.c **** }
 1313              		.loc 1 1413 0
 1314 020a 1846     		mov	r0, r3
 1315 020c 1837     		adds	r7, r7, #24
 1316              	.LCFI35:
 1317              		.cfi_def_cfa_offset 8
 1318 020e BD46     		mov	sp, r7
 1319              	.LCFI36:
 1320              		.cfi_def_cfa_register 13
 1321              		@ sp needed
 1322 0210 80BD     		pop	{r7, pc}
 1323              		.cfi_endproc
 1324              	.LFE129:
 1326              		.section	.text.HAL_I2C_Slave_Receive,"ax",%progbits
 1327              		.align	1
 1328              		.global	HAL_I2C_Slave_Receive
 1329              		.syntax unified
 1330              		.thumb
 1331              		.thumb_func
 1332              		.fpu fpv4-sp-d16
 1334              	HAL_I2C_Slave_Receive:
 1335              	.LFB130:
ARM GAS  /tmp/cc7eKD0K.s 			page 49


1414:Drivers/STM32F3xx_HAL_Driver/Src/stm32f3xx_hal_i2c.c **** 
1415:Drivers/STM32F3xx_HAL_Driver/Src/stm32f3xx_hal_i2c.c **** /**
1416:Drivers/STM32F3xx_HAL_Driver/Src/stm32f3xx_hal_i2c.c ****   * @brief  Receive in slave mode an amount of data in blocking mode
1417:Drivers/STM32F3xx_HAL_Driver/Src/stm32f3xx_hal_i2c.c ****   * @param  hi2c Pointer to a I2C_HandleTypeDef structure that contains
1418:Drivers/STM32F3xx_HAL_Driver/Src/stm32f3xx_hal_i2c.c ****   *                the configuration information for the specified I2C.
1419:Drivers/STM32F3xx_HAL_Driver/Src/stm32f3xx_hal_i2c.c ****   * @param  pData Pointer to data buffer
1420:Drivers/STM32F3xx_HAL_Driver/Src/stm32f3xx_hal_i2c.c ****   * @param  Size Amount of data to be sent
1421:Drivers/STM32F3xx_HAL_Driver/Src/stm32f3xx_hal_i2c.c ****   * @param  Timeout Timeout duration
1422:Drivers/STM32F3xx_HAL_Driver/Src/stm32f3xx_hal_i2c.c ****   * @retval HAL status
1423:Drivers/STM32F3xx_HAL_Driver/Src/stm32f3xx_hal_i2c.c ****   */
1424:Drivers/STM32F3xx_HAL_Driver/Src/stm32f3xx_hal_i2c.c **** HAL_StatusTypeDef HAL_I2C_Slave_Receive(I2C_HandleTypeDef *hi2c, uint8_t *pData, uint16_t Size, uin
1425:Drivers/STM32F3xx_HAL_Driver/Src/stm32f3xx_hal_i2c.c **** {
 1336              		.loc 1 1425 0
 1337              		.cfi_startproc
 1338              		@ args = 0, pretend = 0, frame = 24
 1339              		@ frame_needed = 1, uses_anonymous_args = 0
 1340 0000 80B5     		push	{r7, lr}
 1341              	.LCFI37:
 1342              		.cfi_def_cfa_offset 8
 1343              		.cfi_offset 7, -8
 1344              		.cfi_offset 14, -4
 1345 0002 88B0     		sub	sp, sp, #32
 1346              	.LCFI38:
 1347              		.cfi_def_cfa_offset 40
 1348 0004 02AF     		add	r7, sp, #8
 1349              	.LCFI39:
 1350              		.cfi_def_cfa 7, 32
 1351 0006 F860     		str	r0, [r7, #12]
 1352 0008 B960     		str	r1, [r7, #8]
 1353 000a 3B60     		str	r3, [r7]
 1354 000c 1346     		mov	r3, r2	@ movhi
 1355 000e FB80     		strh	r3, [r7, #6]	@ movhi
1426:Drivers/STM32F3xx_HAL_Driver/Src/stm32f3xx_hal_i2c.c ****   uint32_t tickstart;
1427:Drivers/STM32F3xx_HAL_Driver/Src/stm32f3xx_hal_i2c.c **** 
1428:Drivers/STM32F3xx_HAL_Driver/Src/stm32f3xx_hal_i2c.c ****   if (hi2c->State == HAL_I2C_STATE_READY)
 1356              		.loc 1 1428 0
 1357 0010 FB68     		ldr	r3, [r7, #12]
 1358 0012 93F84130 		ldrb	r3, [r3, #65]
 1359 0016 DBB2     		uxtb	r3, r3
 1360 0018 202B     		cmp	r3, #32
 1361 001a 40F0EB80 		bne	.L60
1429:Drivers/STM32F3xx_HAL_Driver/Src/stm32f3xx_hal_i2c.c ****   {
1430:Drivers/STM32F3xx_HAL_Driver/Src/stm32f3xx_hal_i2c.c ****     if ((pData == NULL) || (Size == 0U))
 1362              		.loc 1 1430 0
 1363 001e BB68     		ldr	r3, [r7, #8]
 1364 0020 002B     		cmp	r3, #0
 1365 0022 02D0     		beq	.L61
 1366              		.loc 1 1430 0 is_stmt 0 discriminator 1
 1367 0024 FB88     		ldrh	r3, [r7, #6]
 1368 0026 002B     		cmp	r3, #0
 1369 0028 05D1     		bne	.L62
 1370              	.L61:
1431:Drivers/STM32F3xx_HAL_Driver/Src/stm32f3xx_hal_i2c.c ****     {
1432:Drivers/STM32F3xx_HAL_Driver/Src/stm32f3xx_hal_i2c.c ****       hi2c->ErrorCode = HAL_I2C_ERROR_INVALID_PARAM;
 1371              		.loc 1 1432 0 is_stmt 1
 1372 002a FB68     		ldr	r3, [r7, #12]
 1373 002c 4FF40072 		mov	r2, #512
ARM GAS  /tmp/cc7eKD0K.s 			page 50


 1374 0030 5A64     		str	r2, [r3, #68]
1433:Drivers/STM32F3xx_HAL_Driver/Src/stm32f3xx_hal_i2c.c ****       return  HAL_ERROR;
 1375              		.loc 1 1433 0
 1376 0032 0123     		movs	r3, #1
 1377 0034 DFE0     		b	.L63
 1378              	.L62:
1434:Drivers/STM32F3xx_HAL_Driver/Src/stm32f3xx_hal_i2c.c ****     }
1435:Drivers/STM32F3xx_HAL_Driver/Src/stm32f3xx_hal_i2c.c ****     /* Process Locked */
1436:Drivers/STM32F3xx_HAL_Driver/Src/stm32f3xx_hal_i2c.c ****     __HAL_LOCK(hi2c);
 1379              		.loc 1 1436 0
 1380 0036 FB68     		ldr	r3, [r7, #12]
 1381 0038 93F84030 		ldrb	r3, [r3, #64]	@ zero_extendqisi2
 1382 003c 012B     		cmp	r3, #1
 1383 003e 01D1     		bne	.L64
 1384              		.loc 1 1436 0 is_stmt 0 discriminator 1
 1385 0040 0223     		movs	r3, #2
 1386 0042 D8E0     		b	.L63
 1387              	.L64:
 1388              		.loc 1 1436 0 discriminator 2
 1389 0044 FB68     		ldr	r3, [r7, #12]
 1390 0046 0122     		movs	r2, #1
 1391 0048 83F84020 		strb	r2, [r3, #64]
1437:Drivers/STM32F3xx_HAL_Driver/Src/stm32f3xx_hal_i2c.c **** 
1438:Drivers/STM32F3xx_HAL_Driver/Src/stm32f3xx_hal_i2c.c ****     /* Init tickstart for timeout management*/
1439:Drivers/STM32F3xx_HAL_Driver/Src/stm32f3xx_hal_i2c.c ****     tickstart = HAL_GetTick();
 1392              		.loc 1 1439 0 is_stmt 1 discriminator 2
 1393 004c FFF7FEFF 		bl	HAL_GetTick
 1394 0050 7861     		str	r0, [r7, #20]
1440:Drivers/STM32F3xx_HAL_Driver/Src/stm32f3xx_hal_i2c.c **** 
1441:Drivers/STM32F3xx_HAL_Driver/Src/stm32f3xx_hal_i2c.c ****     hi2c->State     = HAL_I2C_STATE_BUSY_RX;
 1395              		.loc 1 1441 0 discriminator 2
 1396 0052 FB68     		ldr	r3, [r7, #12]
 1397 0054 2222     		movs	r2, #34
 1398 0056 83F84120 		strb	r2, [r3, #65]
1442:Drivers/STM32F3xx_HAL_Driver/Src/stm32f3xx_hal_i2c.c ****     hi2c->Mode      = HAL_I2C_MODE_SLAVE;
 1399              		.loc 1 1442 0 discriminator 2
 1400 005a FB68     		ldr	r3, [r7, #12]
 1401 005c 2022     		movs	r2, #32
 1402 005e 83F84220 		strb	r2, [r3, #66]
1443:Drivers/STM32F3xx_HAL_Driver/Src/stm32f3xx_hal_i2c.c ****     hi2c->ErrorCode = HAL_I2C_ERROR_NONE;
 1403              		.loc 1 1443 0 discriminator 2
 1404 0062 FB68     		ldr	r3, [r7, #12]
 1405 0064 0022     		movs	r2, #0
 1406 0066 5A64     		str	r2, [r3, #68]
1444:Drivers/STM32F3xx_HAL_Driver/Src/stm32f3xx_hal_i2c.c **** 
1445:Drivers/STM32F3xx_HAL_Driver/Src/stm32f3xx_hal_i2c.c ****     /* Prepare transfer parameters */
1446:Drivers/STM32F3xx_HAL_Driver/Src/stm32f3xx_hal_i2c.c ****     hi2c->pBuffPtr  = pData;
 1407              		.loc 1 1446 0 discriminator 2
 1408 0068 FB68     		ldr	r3, [r7, #12]
 1409 006a BA68     		ldr	r2, [r7, #8]
 1410 006c 5A62     		str	r2, [r3, #36]
1447:Drivers/STM32F3xx_HAL_Driver/Src/stm32f3xx_hal_i2c.c ****     hi2c->XferCount = Size;
 1411              		.loc 1 1447 0 discriminator 2
 1412 006e FB68     		ldr	r3, [r7, #12]
 1413 0070 FA88     		ldrh	r2, [r7, #6]	@ movhi
 1414 0072 5A85     		strh	r2, [r3, #42]	@ movhi
1448:Drivers/STM32F3xx_HAL_Driver/Src/stm32f3xx_hal_i2c.c ****     hi2c->XferISR   = NULL;
ARM GAS  /tmp/cc7eKD0K.s 			page 51


 1415              		.loc 1 1448 0 discriminator 2
 1416 0074 FB68     		ldr	r3, [r7, #12]
 1417 0076 0022     		movs	r2, #0
 1418 0078 5A63     		str	r2, [r3, #52]
1449:Drivers/STM32F3xx_HAL_Driver/Src/stm32f3xx_hal_i2c.c **** 
1450:Drivers/STM32F3xx_HAL_Driver/Src/stm32f3xx_hal_i2c.c ****     /* Enable Address Acknowledge */
1451:Drivers/STM32F3xx_HAL_Driver/Src/stm32f3xx_hal_i2c.c ****     hi2c->Instance->CR2 &= ~I2C_CR2_NACK;
 1419              		.loc 1 1451 0 discriminator 2
 1420 007a FB68     		ldr	r3, [r7, #12]
 1421 007c 1B68     		ldr	r3, [r3]
 1422 007e 5A68     		ldr	r2, [r3, #4]
 1423 0080 FB68     		ldr	r3, [r7, #12]
 1424 0082 1B68     		ldr	r3, [r3]
 1425 0084 22F40042 		bic	r2, r2, #32768
 1426 0088 5A60     		str	r2, [r3, #4]
1452:Drivers/STM32F3xx_HAL_Driver/Src/stm32f3xx_hal_i2c.c **** 
1453:Drivers/STM32F3xx_HAL_Driver/Src/stm32f3xx_hal_i2c.c ****     /* Wait until ADDR flag is set */
1454:Drivers/STM32F3xx_HAL_Driver/Src/stm32f3xx_hal_i2c.c ****     if (I2C_WaitOnFlagUntilTimeout(hi2c, I2C_FLAG_ADDR, RESET, Timeout, tickstart) != HAL_OK)
 1427              		.loc 1 1454 0 discriminator 2
 1428 008a 7B69     		ldr	r3, [r7, #20]
 1429 008c 0093     		str	r3, [sp]
 1430 008e 3B68     		ldr	r3, [r7]
 1431 0090 0022     		movs	r2, #0
 1432 0092 0821     		movs	r1, #8
 1433 0094 F868     		ldr	r0, [r7, #12]
 1434 0096 FFF7FEFF 		bl	I2C_WaitOnFlagUntilTimeout
 1435 009a 0346     		mov	r3, r0
 1436 009c 002B     		cmp	r3, #0
 1437 009e 09D0     		beq	.L65
1455:Drivers/STM32F3xx_HAL_Driver/Src/stm32f3xx_hal_i2c.c ****     {
1456:Drivers/STM32F3xx_HAL_Driver/Src/stm32f3xx_hal_i2c.c ****       /* Disable Address Acknowledge */
1457:Drivers/STM32F3xx_HAL_Driver/Src/stm32f3xx_hal_i2c.c ****       hi2c->Instance->CR2 |= I2C_CR2_NACK;
 1438              		.loc 1 1457 0
 1439 00a0 FB68     		ldr	r3, [r7, #12]
 1440 00a2 1B68     		ldr	r3, [r3]
 1441 00a4 5A68     		ldr	r2, [r3, #4]
 1442 00a6 FB68     		ldr	r3, [r7, #12]
 1443 00a8 1B68     		ldr	r3, [r3]
 1444 00aa 42F40042 		orr	r2, r2, #32768
 1445 00ae 5A60     		str	r2, [r3, #4]
1458:Drivers/STM32F3xx_HAL_Driver/Src/stm32f3xx_hal_i2c.c ****       return HAL_ERROR;
 1446              		.loc 1 1458 0
 1447 00b0 0123     		movs	r3, #1
 1448 00b2 A0E0     		b	.L63
 1449              	.L65:
1459:Drivers/STM32F3xx_HAL_Driver/Src/stm32f3xx_hal_i2c.c ****     }
1460:Drivers/STM32F3xx_HAL_Driver/Src/stm32f3xx_hal_i2c.c **** 
1461:Drivers/STM32F3xx_HAL_Driver/Src/stm32f3xx_hal_i2c.c ****     /* Clear ADDR flag */
1462:Drivers/STM32F3xx_HAL_Driver/Src/stm32f3xx_hal_i2c.c ****     __HAL_I2C_CLEAR_FLAG(hi2c, I2C_FLAG_ADDR);
 1450              		.loc 1 1462 0
 1451 00b4 FB68     		ldr	r3, [r7, #12]
 1452 00b6 1B68     		ldr	r3, [r3]
 1453 00b8 0822     		movs	r2, #8
 1454 00ba DA61     		str	r2, [r3, #28]
1463:Drivers/STM32F3xx_HAL_Driver/Src/stm32f3xx_hal_i2c.c **** 
1464:Drivers/STM32F3xx_HAL_Driver/Src/stm32f3xx_hal_i2c.c ****     /* Wait until DIR flag is reset Receiver mode */
1465:Drivers/STM32F3xx_HAL_Driver/Src/stm32f3xx_hal_i2c.c ****     if (I2C_WaitOnFlagUntilTimeout(hi2c, I2C_FLAG_DIR, SET, Timeout, tickstart) != HAL_OK)
ARM GAS  /tmp/cc7eKD0K.s 			page 52


 1455              		.loc 1 1465 0
 1456 00bc 7B69     		ldr	r3, [r7, #20]
 1457 00be 0093     		str	r3, [sp]
 1458 00c0 3B68     		ldr	r3, [r7]
 1459 00c2 0122     		movs	r2, #1
 1460 00c4 4FF48031 		mov	r1, #65536
 1461 00c8 F868     		ldr	r0, [r7, #12]
 1462 00ca FFF7FEFF 		bl	I2C_WaitOnFlagUntilTimeout
 1463 00ce 0346     		mov	r3, r0
 1464 00d0 002B     		cmp	r3, #0
 1465 00d2 48D0     		beq	.L67
1466:Drivers/STM32F3xx_HAL_Driver/Src/stm32f3xx_hal_i2c.c ****     {
1467:Drivers/STM32F3xx_HAL_Driver/Src/stm32f3xx_hal_i2c.c ****       /* Disable Address Acknowledge */
1468:Drivers/STM32F3xx_HAL_Driver/Src/stm32f3xx_hal_i2c.c ****       hi2c->Instance->CR2 |= I2C_CR2_NACK;
 1466              		.loc 1 1468 0
 1467 00d4 FB68     		ldr	r3, [r7, #12]
 1468 00d6 1B68     		ldr	r3, [r3]
 1469 00d8 5A68     		ldr	r2, [r3, #4]
 1470 00da FB68     		ldr	r3, [r7, #12]
 1471 00dc 1B68     		ldr	r3, [r3]
 1472 00de 42F40042 		orr	r2, r2, #32768
 1473 00e2 5A60     		str	r2, [r3, #4]
1469:Drivers/STM32F3xx_HAL_Driver/Src/stm32f3xx_hal_i2c.c ****       return HAL_ERROR;
 1474              		.loc 1 1469 0
 1475 00e4 0123     		movs	r3, #1
 1476 00e6 86E0     		b	.L63
 1477              	.L70:
1470:Drivers/STM32F3xx_HAL_Driver/Src/stm32f3xx_hal_i2c.c ****     }
1471:Drivers/STM32F3xx_HAL_Driver/Src/stm32f3xx_hal_i2c.c **** 
1472:Drivers/STM32F3xx_HAL_Driver/Src/stm32f3xx_hal_i2c.c ****     while (hi2c->XferCount > 0U)
1473:Drivers/STM32F3xx_HAL_Driver/Src/stm32f3xx_hal_i2c.c ****     {
1474:Drivers/STM32F3xx_HAL_Driver/Src/stm32f3xx_hal_i2c.c ****       /* Wait until RXNE flag is set */
1475:Drivers/STM32F3xx_HAL_Driver/Src/stm32f3xx_hal_i2c.c ****       if (I2C_WaitOnRXNEFlagUntilTimeout(hi2c, Timeout, tickstart) != HAL_OK)
 1478              		.loc 1 1475 0
 1479 00e8 7A69     		ldr	r2, [r7, #20]
 1480 00ea 3968     		ldr	r1, [r7]
 1481 00ec F868     		ldr	r0, [r7, #12]
 1482 00ee FFF7FEFF 		bl	I2C_WaitOnRXNEFlagUntilTimeout
 1483 00f2 0346     		mov	r3, r0
 1484 00f4 002B     		cmp	r3, #0
 1485 00f6 23D0     		beq	.L68
1476:Drivers/STM32F3xx_HAL_Driver/Src/stm32f3xx_hal_i2c.c ****       {
1477:Drivers/STM32F3xx_HAL_Driver/Src/stm32f3xx_hal_i2c.c ****         /* Disable Address Acknowledge */
1478:Drivers/STM32F3xx_HAL_Driver/Src/stm32f3xx_hal_i2c.c ****         hi2c->Instance->CR2 |= I2C_CR2_NACK;
 1486              		.loc 1 1478 0
 1487 00f8 FB68     		ldr	r3, [r7, #12]
 1488 00fa 1B68     		ldr	r3, [r3]
 1489 00fc 5A68     		ldr	r2, [r3, #4]
 1490 00fe FB68     		ldr	r3, [r7, #12]
 1491 0100 1B68     		ldr	r3, [r3]
 1492 0102 42F40042 		orr	r2, r2, #32768
 1493 0106 5A60     		str	r2, [r3, #4]
1479:Drivers/STM32F3xx_HAL_Driver/Src/stm32f3xx_hal_i2c.c **** 
1480:Drivers/STM32F3xx_HAL_Driver/Src/stm32f3xx_hal_i2c.c ****         /* Store Last receive data if any */
1481:Drivers/STM32F3xx_HAL_Driver/Src/stm32f3xx_hal_i2c.c ****         if (__HAL_I2C_GET_FLAG(hi2c, I2C_FLAG_RXNE) == SET)
 1494              		.loc 1 1481 0
 1495 0108 FB68     		ldr	r3, [r7, #12]
ARM GAS  /tmp/cc7eKD0K.s 			page 53


 1496 010a 1B68     		ldr	r3, [r3]
 1497 010c 9B69     		ldr	r3, [r3, #24]
 1498 010e 03F00403 		and	r3, r3, #4
 1499 0112 042B     		cmp	r3, #4
 1500 0114 12D1     		bne	.L69
1482:Drivers/STM32F3xx_HAL_Driver/Src/stm32f3xx_hal_i2c.c ****         {
1483:Drivers/STM32F3xx_HAL_Driver/Src/stm32f3xx_hal_i2c.c ****           /* Read data from RXDR */
1484:Drivers/STM32F3xx_HAL_Driver/Src/stm32f3xx_hal_i2c.c ****           *hi2c->pBuffPtr = (uint8_t)hi2c->Instance->RXDR;
 1501              		.loc 1 1484 0
 1502 0116 FB68     		ldr	r3, [r7, #12]
 1503 0118 1B68     		ldr	r3, [r3]
 1504 011a 5A6A     		ldr	r2, [r3, #36]
 1505 011c FB68     		ldr	r3, [r7, #12]
 1506 011e 5B6A     		ldr	r3, [r3, #36]
 1507 0120 D2B2     		uxtb	r2, r2
 1508 0122 1A70     		strb	r2, [r3]
1485:Drivers/STM32F3xx_HAL_Driver/Src/stm32f3xx_hal_i2c.c **** 
1486:Drivers/STM32F3xx_HAL_Driver/Src/stm32f3xx_hal_i2c.c ****           /* Increment Buffer pointer */
1487:Drivers/STM32F3xx_HAL_Driver/Src/stm32f3xx_hal_i2c.c ****           hi2c->pBuffPtr++;
 1509              		.loc 1 1487 0
 1510 0124 FB68     		ldr	r3, [r7, #12]
 1511 0126 5B6A     		ldr	r3, [r3, #36]
 1512 0128 5A1C     		adds	r2, r3, #1
 1513 012a FB68     		ldr	r3, [r7, #12]
 1514 012c 5A62     		str	r2, [r3, #36]
1488:Drivers/STM32F3xx_HAL_Driver/Src/stm32f3xx_hal_i2c.c **** 
1489:Drivers/STM32F3xx_HAL_Driver/Src/stm32f3xx_hal_i2c.c ****           hi2c->XferCount--;
 1515              		.loc 1 1489 0
 1516 012e FB68     		ldr	r3, [r7, #12]
 1517 0130 5B8D     		ldrh	r3, [r3, #42]	@ movhi
 1518 0132 9BB2     		uxth	r3, r3
 1519 0134 013B     		subs	r3, r3, #1
 1520 0136 9AB2     		uxth	r2, r3
 1521 0138 FB68     		ldr	r3, [r7, #12]
 1522 013a 5A85     		strh	r2, [r3, #42]	@ movhi
 1523              	.L69:
1490:Drivers/STM32F3xx_HAL_Driver/Src/stm32f3xx_hal_i2c.c ****         }
1491:Drivers/STM32F3xx_HAL_Driver/Src/stm32f3xx_hal_i2c.c **** 
1492:Drivers/STM32F3xx_HAL_Driver/Src/stm32f3xx_hal_i2c.c ****         return HAL_ERROR;
 1524              		.loc 1 1492 0
 1525 013c 0123     		movs	r3, #1
 1526 013e 5AE0     		b	.L63
 1527              	.L68:
1493:Drivers/STM32F3xx_HAL_Driver/Src/stm32f3xx_hal_i2c.c ****       }
1494:Drivers/STM32F3xx_HAL_Driver/Src/stm32f3xx_hal_i2c.c **** 
1495:Drivers/STM32F3xx_HAL_Driver/Src/stm32f3xx_hal_i2c.c ****       /* Read data from RXDR */
1496:Drivers/STM32F3xx_HAL_Driver/Src/stm32f3xx_hal_i2c.c ****       *hi2c->pBuffPtr = (uint8_t)hi2c->Instance->RXDR;
 1528              		.loc 1 1496 0
 1529 0140 FB68     		ldr	r3, [r7, #12]
 1530 0142 1B68     		ldr	r3, [r3]
 1531 0144 5A6A     		ldr	r2, [r3, #36]
 1532 0146 FB68     		ldr	r3, [r7, #12]
 1533 0148 5B6A     		ldr	r3, [r3, #36]
 1534 014a D2B2     		uxtb	r2, r2
 1535 014c 1A70     		strb	r2, [r3]
1497:Drivers/STM32F3xx_HAL_Driver/Src/stm32f3xx_hal_i2c.c **** 
1498:Drivers/STM32F3xx_HAL_Driver/Src/stm32f3xx_hal_i2c.c ****       /* Increment Buffer pointer */
ARM GAS  /tmp/cc7eKD0K.s 			page 54


1499:Drivers/STM32F3xx_HAL_Driver/Src/stm32f3xx_hal_i2c.c ****       hi2c->pBuffPtr++;
 1536              		.loc 1 1499 0
 1537 014e FB68     		ldr	r3, [r7, #12]
 1538 0150 5B6A     		ldr	r3, [r3, #36]
 1539 0152 5A1C     		adds	r2, r3, #1
 1540 0154 FB68     		ldr	r3, [r7, #12]
 1541 0156 5A62     		str	r2, [r3, #36]
1500:Drivers/STM32F3xx_HAL_Driver/Src/stm32f3xx_hal_i2c.c **** 
1501:Drivers/STM32F3xx_HAL_Driver/Src/stm32f3xx_hal_i2c.c ****       hi2c->XferCount--;
 1542              		.loc 1 1501 0
 1543 0158 FB68     		ldr	r3, [r7, #12]
 1544 015a 5B8D     		ldrh	r3, [r3, #42]	@ movhi
 1545 015c 9BB2     		uxth	r3, r3
 1546 015e 013B     		subs	r3, r3, #1
 1547 0160 9AB2     		uxth	r2, r3
 1548 0162 FB68     		ldr	r3, [r7, #12]
 1549 0164 5A85     		strh	r2, [r3, #42]	@ movhi
 1550              	.L67:
1472:Drivers/STM32F3xx_HAL_Driver/Src/stm32f3xx_hal_i2c.c ****     {
 1551              		.loc 1 1472 0
 1552 0166 FB68     		ldr	r3, [r7, #12]
 1553 0168 5B8D     		ldrh	r3, [r3, #42]	@ movhi
 1554 016a 9BB2     		uxth	r3, r3
 1555 016c 002B     		cmp	r3, #0
 1556 016e BBD1     		bne	.L70
1502:Drivers/STM32F3xx_HAL_Driver/Src/stm32f3xx_hal_i2c.c ****     }
1503:Drivers/STM32F3xx_HAL_Driver/Src/stm32f3xx_hal_i2c.c **** 
1504:Drivers/STM32F3xx_HAL_Driver/Src/stm32f3xx_hal_i2c.c ****     /* Wait until STOP flag is set */
1505:Drivers/STM32F3xx_HAL_Driver/Src/stm32f3xx_hal_i2c.c ****     if (I2C_WaitOnSTOPFlagUntilTimeout(hi2c, Timeout, tickstart) != HAL_OK)
 1557              		.loc 1 1505 0
 1558 0170 7A69     		ldr	r2, [r7, #20]
 1559 0172 3968     		ldr	r1, [r7]
 1560 0174 F868     		ldr	r0, [r7, #12]
 1561 0176 FFF7FEFF 		bl	I2C_WaitOnSTOPFlagUntilTimeout
 1562 017a 0346     		mov	r3, r0
 1563 017c 002B     		cmp	r3, #0
 1564 017e 09D0     		beq	.L71
1506:Drivers/STM32F3xx_HAL_Driver/Src/stm32f3xx_hal_i2c.c ****     {
1507:Drivers/STM32F3xx_HAL_Driver/Src/stm32f3xx_hal_i2c.c ****       /* Disable Address Acknowledge */
1508:Drivers/STM32F3xx_HAL_Driver/Src/stm32f3xx_hal_i2c.c ****       hi2c->Instance->CR2 |= I2C_CR2_NACK;
 1565              		.loc 1 1508 0
 1566 0180 FB68     		ldr	r3, [r7, #12]
 1567 0182 1B68     		ldr	r3, [r3]
 1568 0184 5A68     		ldr	r2, [r3, #4]
 1569 0186 FB68     		ldr	r3, [r7, #12]
 1570 0188 1B68     		ldr	r3, [r3]
 1571 018a 42F40042 		orr	r2, r2, #32768
 1572 018e 5A60     		str	r2, [r3, #4]
1509:Drivers/STM32F3xx_HAL_Driver/Src/stm32f3xx_hal_i2c.c ****       return HAL_ERROR;
 1573              		.loc 1 1509 0
 1574 0190 0123     		movs	r3, #1
 1575 0192 30E0     		b	.L63
 1576              	.L71:
1510:Drivers/STM32F3xx_HAL_Driver/Src/stm32f3xx_hal_i2c.c ****     }
1511:Drivers/STM32F3xx_HAL_Driver/Src/stm32f3xx_hal_i2c.c **** 
1512:Drivers/STM32F3xx_HAL_Driver/Src/stm32f3xx_hal_i2c.c ****     /* Clear STOP flag */
1513:Drivers/STM32F3xx_HAL_Driver/Src/stm32f3xx_hal_i2c.c ****     __HAL_I2C_CLEAR_FLAG(hi2c, I2C_FLAG_STOPF);
ARM GAS  /tmp/cc7eKD0K.s 			page 55


 1577              		.loc 1 1513 0
 1578 0194 FB68     		ldr	r3, [r7, #12]
 1579 0196 1B68     		ldr	r3, [r3]
 1580 0198 2022     		movs	r2, #32
 1581 019a DA61     		str	r2, [r3, #28]
1514:Drivers/STM32F3xx_HAL_Driver/Src/stm32f3xx_hal_i2c.c **** 
1515:Drivers/STM32F3xx_HAL_Driver/Src/stm32f3xx_hal_i2c.c ****     /* Wait until BUSY flag is reset */
1516:Drivers/STM32F3xx_HAL_Driver/Src/stm32f3xx_hal_i2c.c ****     if (I2C_WaitOnFlagUntilTimeout(hi2c, I2C_FLAG_BUSY, SET, Timeout, tickstart) != HAL_OK)
 1582              		.loc 1 1516 0
 1583 019c 7B69     		ldr	r3, [r7, #20]
 1584 019e 0093     		str	r3, [sp]
 1585 01a0 3B68     		ldr	r3, [r7]
 1586 01a2 0122     		movs	r2, #1
 1587 01a4 4FF40041 		mov	r1, #32768
 1588 01a8 F868     		ldr	r0, [r7, #12]
 1589 01aa FFF7FEFF 		bl	I2C_WaitOnFlagUntilTimeout
 1590 01ae 0346     		mov	r3, r0
 1591 01b0 002B     		cmp	r3, #0
 1592 01b2 09D0     		beq	.L72
1517:Drivers/STM32F3xx_HAL_Driver/Src/stm32f3xx_hal_i2c.c ****     {
1518:Drivers/STM32F3xx_HAL_Driver/Src/stm32f3xx_hal_i2c.c ****       /* Disable Address Acknowledge */
1519:Drivers/STM32F3xx_HAL_Driver/Src/stm32f3xx_hal_i2c.c ****       hi2c->Instance->CR2 |= I2C_CR2_NACK;
 1593              		.loc 1 1519 0
 1594 01b4 FB68     		ldr	r3, [r7, #12]
 1595 01b6 1B68     		ldr	r3, [r3]
 1596 01b8 5A68     		ldr	r2, [r3, #4]
 1597 01ba FB68     		ldr	r3, [r7, #12]
 1598 01bc 1B68     		ldr	r3, [r3]
 1599 01be 42F40042 		orr	r2, r2, #32768
 1600 01c2 5A60     		str	r2, [r3, #4]
1520:Drivers/STM32F3xx_HAL_Driver/Src/stm32f3xx_hal_i2c.c ****       return HAL_ERROR;
 1601              		.loc 1 1520 0
 1602 01c4 0123     		movs	r3, #1
 1603 01c6 16E0     		b	.L63
 1604              	.L72:
1521:Drivers/STM32F3xx_HAL_Driver/Src/stm32f3xx_hal_i2c.c ****     }
1522:Drivers/STM32F3xx_HAL_Driver/Src/stm32f3xx_hal_i2c.c **** 
1523:Drivers/STM32F3xx_HAL_Driver/Src/stm32f3xx_hal_i2c.c ****     /* Disable Address Acknowledge */
1524:Drivers/STM32F3xx_HAL_Driver/Src/stm32f3xx_hal_i2c.c ****     hi2c->Instance->CR2 |= I2C_CR2_NACK;
 1605              		.loc 1 1524 0
 1606 01c8 FB68     		ldr	r3, [r7, #12]
 1607 01ca 1B68     		ldr	r3, [r3]
 1608 01cc 5A68     		ldr	r2, [r3, #4]
 1609 01ce FB68     		ldr	r3, [r7, #12]
 1610 01d0 1B68     		ldr	r3, [r3]
 1611 01d2 42F40042 		orr	r2, r2, #32768
 1612 01d6 5A60     		str	r2, [r3, #4]
1525:Drivers/STM32F3xx_HAL_Driver/Src/stm32f3xx_hal_i2c.c **** 
1526:Drivers/STM32F3xx_HAL_Driver/Src/stm32f3xx_hal_i2c.c ****     hi2c->State = HAL_I2C_STATE_READY;
 1613              		.loc 1 1526 0
 1614 01d8 FB68     		ldr	r3, [r7, #12]
 1615 01da 2022     		movs	r2, #32
 1616 01dc 83F84120 		strb	r2, [r3, #65]
1527:Drivers/STM32F3xx_HAL_Driver/Src/stm32f3xx_hal_i2c.c ****     hi2c->Mode  = HAL_I2C_MODE_NONE;
 1617              		.loc 1 1527 0
 1618 01e0 FB68     		ldr	r3, [r7, #12]
 1619 01e2 0022     		movs	r2, #0
ARM GAS  /tmp/cc7eKD0K.s 			page 56


 1620 01e4 83F84220 		strb	r2, [r3, #66]
1528:Drivers/STM32F3xx_HAL_Driver/Src/stm32f3xx_hal_i2c.c **** 
1529:Drivers/STM32F3xx_HAL_Driver/Src/stm32f3xx_hal_i2c.c ****     /* Process Unlocked */
1530:Drivers/STM32F3xx_HAL_Driver/Src/stm32f3xx_hal_i2c.c ****     __HAL_UNLOCK(hi2c);
 1621              		.loc 1 1530 0
 1622 01e8 FB68     		ldr	r3, [r7, #12]
 1623 01ea 0022     		movs	r2, #0
 1624 01ec 83F84020 		strb	r2, [r3, #64]
1531:Drivers/STM32F3xx_HAL_Driver/Src/stm32f3xx_hal_i2c.c **** 
1532:Drivers/STM32F3xx_HAL_Driver/Src/stm32f3xx_hal_i2c.c ****     return HAL_OK;
 1625              		.loc 1 1532 0
 1626 01f0 0023     		movs	r3, #0
 1627 01f2 00E0     		b	.L63
 1628              	.L60:
1533:Drivers/STM32F3xx_HAL_Driver/Src/stm32f3xx_hal_i2c.c ****   }
1534:Drivers/STM32F3xx_HAL_Driver/Src/stm32f3xx_hal_i2c.c ****   else
1535:Drivers/STM32F3xx_HAL_Driver/Src/stm32f3xx_hal_i2c.c ****   {
1536:Drivers/STM32F3xx_HAL_Driver/Src/stm32f3xx_hal_i2c.c ****     return HAL_BUSY;
 1629              		.loc 1 1536 0
 1630 01f4 0223     		movs	r3, #2
 1631              	.L63:
1537:Drivers/STM32F3xx_HAL_Driver/Src/stm32f3xx_hal_i2c.c ****   }
1538:Drivers/STM32F3xx_HAL_Driver/Src/stm32f3xx_hal_i2c.c **** }
 1632              		.loc 1 1538 0
 1633 01f6 1846     		mov	r0, r3
 1634 01f8 1837     		adds	r7, r7, #24
 1635              	.LCFI40:
 1636              		.cfi_def_cfa_offset 8
 1637 01fa BD46     		mov	sp, r7
 1638              	.LCFI41:
 1639              		.cfi_def_cfa_register 13
 1640              		@ sp needed
 1641 01fc 80BD     		pop	{r7, pc}
 1642              		.cfi_endproc
 1643              	.LFE130:
 1645              		.section	.text.HAL_I2C_Master_Transmit_IT,"ax",%progbits
 1646              		.align	1
 1647              		.global	HAL_I2C_Master_Transmit_IT
 1648              		.syntax unified
 1649              		.thumb
 1650              		.thumb_func
 1651              		.fpu fpv4-sp-d16
 1653              	HAL_I2C_Master_Transmit_IT:
 1654              	.LFB131:
1539:Drivers/STM32F3xx_HAL_Driver/Src/stm32f3xx_hal_i2c.c **** 
1540:Drivers/STM32F3xx_HAL_Driver/Src/stm32f3xx_hal_i2c.c **** /**
1541:Drivers/STM32F3xx_HAL_Driver/Src/stm32f3xx_hal_i2c.c ****   * @brief  Transmit in master mode an amount of data in non-blocking mode with Interrupt
1542:Drivers/STM32F3xx_HAL_Driver/Src/stm32f3xx_hal_i2c.c ****   * @param  hi2c Pointer to a I2C_HandleTypeDef structure that contains
1543:Drivers/STM32F3xx_HAL_Driver/Src/stm32f3xx_hal_i2c.c ****   *                the configuration information for the specified I2C.
1544:Drivers/STM32F3xx_HAL_Driver/Src/stm32f3xx_hal_i2c.c ****   * @param  DevAddress Target device address: The device 7 bits address value
1545:Drivers/STM32F3xx_HAL_Driver/Src/stm32f3xx_hal_i2c.c ****   *         in datasheet must be shifted to the left before calling the interface
1546:Drivers/STM32F3xx_HAL_Driver/Src/stm32f3xx_hal_i2c.c ****   * @param  pData Pointer to data buffer
1547:Drivers/STM32F3xx_HAL_Driver/Src/stm32f3xx_hal_i2c.c ****   * @param  Size Amount of data to be sent
1548:Drivers/STM32F3xx_HAL_Driver/Src/stm32f3xx_hal_i2c.c ****   * @retval HAL status
1549:Drivers/STM32F3xx_HAL_Driver/Src/stm32f3xx_hal_i2c.c ****   */
1550:Drivers/STM32F3xx_HAL_Driver/Src/stm32f3xx_hal_i2c.c **** HAL_StatusTypeDef HAL_I2C_Master_Transmit_IT(I2C_HandleTypeDef *hi2c, uint16_t DevAddress, uint8_t 
1551:Drivers/STM32F3xx_HAL_Driver/Src/stm32f3xx_hal_i2c.c **** {
ARM GAS  /tmp/cc7eKD0K.s 			page 57


 1655              		.loc 1 1551 0
 1656              		.cfi_startproc
 1657              		@ args = 0, pretend = 0, frame = 24
 1658              		@ frame_needed = 1, uses_anonymous_args = 0
 1659 0000 80B5     		push	{r7, lr}
 1660              	.LCFI42:
 1661              		.cfi_def_cfa_offset 8
 1662              		.cfi_offset 7, -8
 1663              		.cfi_offset 14, -4
 1664 0002 88B0     		sub	sp, sp, #32
 1665              	.LCFI43:
 1666              		.cfi_def_cfa_offset 40
 1667 0004 02AF     		add	r7, sp, #8
 1668              	.LCFI44:
 1669              		.cfi_def_cfa 7, 32
 1670 0006 F860     		str	r0, [r7, #12]
 1671 0008 7A60     		str	r2, [r7, #4]
 1672 000a 1A46     		mov	r2, r3
 1673 000c 0B46     		mov	r3, r1	@ movhi
 1674 000e 7B81     		strh	r3, [r7, #10]	@ movhi
 1675 0010 1346     		mov	r3, r2	@ movhi
 1676 0012 3B81     		strh	r3, [r7, #8]	@ movhi
1552:Drivers/STM32F3xx_HAL_Driver/Src/stm32f3xx_hal_i2c.c ****   uint32_t xfermode;
1553:Drivers/STM32F3xx_HAL_Driver/Src/stm32f3xx_hal_i2c.c **** 
1554:Drivers/STM32F3xx_HAL_Driver/Src/stm32f3xx_hal_i2c.c ****   if (hi2c->State == HAL_I2C_STATE_READY)
 1677              		.loc 1 1554 0
 1678 0014 FB68     		ldr	r3, [r7, #12]
 1679 0016 93F84130 		ldrb	r3, [r3, #65]
 1680 001a DBB2     		uxtb	r3, r3
 1681 001c 202B     		cmp	r3, #32
 1682 001e 53D1     		bne	.L74
1555:Drivers/STM32F3xx_HAL_Driver/Src/stm32f3xx_hal_i2c.c ****   {
1556:Drivers/STM32F3xx_HAL_Driver/Src/stm32f3xx_hal_i2c.c ****     if (__HAL_I2C_GET_FLAG(hi2c, I2C_FLAG_BUSY) == SET)
 1683              		.loc 1 1556 0
 1684 0020 FB68     		ldr	r3, [r7, #12]
 1685 0022 1B68     		ldr	r3, [r3]
 1686 0024 9B69     		ldr	r3, [r3, #24]
 1687 0026 03F40043 		and	r3, r3, #32768
 1688 002a B3F5004F 		cmp	r3, #32768
 1689 002e 01D1     		bne	.L75
1557:Drivers/STM32F3xx_HAL_Driver/Src/stm32f3xx_hal_i2c.c ****     {
1558:Drivers/STM32F3xx_HAL_Driver/Src/stm32f3xx_hal_i2c.c ****       return HAL_BUSY;
 1690              		.loc 1 1558 0
 1691 0030 0223     		movs	r3, #2
 1692 0032 4AE0     		b	.L76
 1693              	.L75:
1559:Drivers/STM32F3xx_HAL_Driver/Src/stm32f3xx_hal_i2c.c ****     }
1560:Drivers/STM32F3xx_HAL_Driver/Src/stm32f3xx_hal_i2c.c **** 
1561:Drivers/STM32F3xx_HAL_Driver/Src/stm32f3xx_hal_i2c.c ****     /* Process Locked */
1562:Drivers/STM32F3xx_HAL_Driver/Src/stm32f3xx_hal_i2c.c ****     __HAL_LOCK(hi2c);
 1694              		.loc 1 1562 0
 1695 0034 FB68     		ldr	r3, [r7, #12]
 1696 0036 93F84030 		ldrb	r3, [r3, #64]	@ zero_extendqisi2
 1697 003a 012B     		cmp	r3, #1
 1698 003c 01D1     		bne	.L77
 1699              		.loc 1 1562 0 is_stmt 0 discriminator 1
 1700 003e 0223     		movs	r3, #2
ARM GAS  /tmp/cc7eKD0K.s 			page 58


 1701 0040 43E0     		b	.L76
 1702              	.L77:
 1703              		.loc 1 1562 0 discriminator 2
 1704 0042 FB68     		ldr	r3, [r7, #12]
 1705 0044 0122     		movs	r2, #1
 1706 0046 83F84020 		strb	r2, [r3, #64]
1563:Drivers/STM32F3xx_HAL_Driver/Src/stm32f3xx_hal_i2c.c **** 
1564:Drivers/STM32F3xx_HAL_Driver/Src/stm32f3xx_hal_i2c.c ****     hi2c->State       = HAL_I2C_STATE_BUSY_TX;
 1707              		.loc 1 1564 0 is_stmt 1 discriminator 2
 1708 004a FB68     		ldr	r3, [r7, #12]
 1709 004c 2122     		movs	r2, #33
 1710 004e 83F84120 		strb	r2, [r3, #65]
1565:Drivers/STM32F3xx_HAL_Driver/Src/stm32f3xx_hal_i2c.c ****     hi2c->Mode        = HAL_I2C_MODE_MASTER;
 1711              		.loc 1 1565 0 discriminator 2
 1712 0052 FB68     		ldr	r3, [r7, #12]
 1713 0054 1022     		movs	r2, #16
 1714 0056 83F84220 		strb	r2, [r3, #66]
1566:Drivers/STM32F3xx_HAL_Driver/Src/stm32f3xx_hal_i2c.c ****     hi2c->ErrorCode   = HAL_I2C_ERROR_NONE;
 1715              		.loc 1 1566 0 discriminator 2
 1716 005a FB68     		ldr	r3, [r7, #12]
 1717 005c 0022     		movs	r2, #0
 1718 005e 5A64     		str	r2, [r3, #68]
1567:Drivers/STM32F3xx_HAL_Driver/Src/stm32f3xx_hal_i2c.c **** 
1568:Drivers/STM32F3xx_HAL_Driver/Src/stm32f3xx_hal_i2c.c ****     /* Prepare transfer parameters */
1569:Drivers/STM32F3xx_HAL_Driver/Src/stm32f3xx_hal_i2c.c ****     hi2c->pBuffPtr    = pData;
 1719              		.loc 1 1569 0 discriminator 2
 1720 0060 FB68     		ldr	r3, [r7, #12]
 1721 0062 7A68     		ldr	r2, [r7, #4]
 1722 0064 5A62     		str	r2, [r3, #36]
1570:Drivers/STM32F3xx_HAL_Driver/Src/stm32f3xx_hal_i2c.c ****     hi2c->XferCount   = Size;
 1723              		.loc 1 1570 0 discriminator 2
 1724 0066 FB68     		ldr	r3, [r7, #12]
 1725 0068 3A89     		ldrh	r2, [r7, #8]	@ movhi
 1726 006a 5A85     		strh	r2, [r3, #42]	@ movhi
1571:Drivers/STM32F3xx_HAL_Driver/Src/stm32f3xx_hal_i2c.c ****     hi2c->XferOptions = I2C_NO_OPTION_FRAME;
 1727              		.loc 1 1571 0 discriminator 2
 1728 006c FB68     		ldr	r3, [r7, #12]
 1729 006e 194A     		ldr	r2, .L80
 1730 0070 DA62     		str	r2, [r3, #44]
1572:Drivers/STM32F3xx_HAL_Driver/Src/stm32f3xx_hal_i2c.c ****     hi2c->XferISR     = I2C_Master_ISR_IT;
 1731              		.loc 1 1572 0 discriminator 2
 1732 0072 FB68     		ldr	r3, [r7, #12]
 1733 0074 184A     		ldr	r2, .L80+4
 1734 0076 5A63     		str	r2, [r3, #52]
1573:Drivers/STM32F3xx_HAL_Driver/Src/stm32f3xx_hal_i2c.c **** 
1574:Drivers/STM32F3xx_HAL_Driver/Src/stm32f3xx_hal_i2c.c ****     if (hi2c->XferCount > MAX_NBYTE_SIZE)
 1735              		.loc 1 1574 0 discriminator 2
 1736 0078 FB68     		ldr	r3, [r7, #12]
 1737 007a 5B8D     		ldrh	r3, [r3, #42]	@ movhi
 1738 007c 9BB2     		uxth	r3, r3
 1739 007e FF2B     		cmp	r3, #255
 1740 0080 06D9     		bls	.L78
1575:Drivers/STM32F3xx_HAL_Driver/Src/stm32f3xx_hal_i2c.c ****     {
1576:Drivers/STM32F3xx_HAL_Driver/Src/stm32f3xx_hal_i2c.c ****       hi2c->XferSize = MAX_NBYTE_SIZE;
 1741              		.loc 1 1576 0
 1742 0082 FB68     		ldr	r3, [r7, #12]
 1743 0084 FF22     		movs	r2, #255
ARM GAS  /tmp/cc7eKD0K.s 			page 59


 1744 0086 1A85     		strh	r2, [r3, #40]	@ movhi
1577:Drivers/STM32F3xx_HAL_Driver/Src/stm32f3xx_hal_i2c.c ****       xfermode = I2C_RELOAD_MODE;
 1745              		.loc 1 1577 0
 1746 0088 4FF08073 		mov	r3, #16777216
 1747 008c 7B61     		str	r3, [r7, #20]
 1748 008e 07E0     		b	.L79
 1749              	.L78:
1578:Drivers/STM32F3xx_HAL_Driver/Src/stm32f3xx_hal_i2c.c ****     }
1579:Drivers/STM32F3xx_HAL_Driver/Src/stm32f3xx_hal_i2c.c ****     else
1580:Drivers/STM32F3xx_HAL_Driver/Src/stm32f3xx_hal_i2c.c ****     {
1581:Drivers/STM32F3xx_HAL_Driver/Src/stm32f3xx_hal_i2c.c ****       hi2c->XferSize = hi2c->XferCount;
 1750              		.loc 1 1581 0
 1751 0090 FB68     		ldr	r3, [r7, #12]
 1752 0092 5B8D     		ldrh	r3, [r3, #42]	@ movhi
 1753 0094 9AB2     		uxth	r2, r3
 1754 0096 FB68     		ldr	r3, [r7, #12]
 1755 0098 1A85     		strh	r2, [r3, #40]	@ movhi
1582:Drivers/STM32F3xx_HAL_Driver/Src/stm32f3xx_hal_i2c.c ****       xfermode = I2C_AUTOEND_MODE;
 1756              		.loc 1 1582 0
 1757 009a 4FF00073 		mov	r3, #33554432
 1758 009e 7B61     		str	r3, [r7, #20]
 1759              	.L79:
1583:Drivers/STM32F3xx_HAL_Driver/Src/stm32f3xx_hal_i2c.c ****     }
1584:Drivers/STM32F3xx_HAL_Driver/Src/stm32f3xx_hal_i2c.c **** 
1585:Drivers/STM32F3xx_HAL_Driver/Src/stm32f3xx_hal_i2c.c ****     /* Send Slave Address */
1586:Drivers/STM32F3xx_HAL_Driver/Src/stm32f3xx_hal_i2c.c ****     /* Set NBYTES to write and reload if hi2c->XferCount > MAX_NBYTE_SIZE */
1587:Drivers/STM32F3xx_HAL_Driver/Src/stm32f3xx_hal_i2c.c ****     I2C_TransferConfig(hi2c, DevAddress, (uint8_t)hi2c->XferSize, xfermode, I2C_GENERATE_START_WRIT
 1760              		.loc 1 1587 0
 1761 00a0 FB68     		ldr	r3, [r7, #12]
 1762 00a2 1B8D     		ldrh	r3, [r3, #40]
 1763 00a4 DAB2     		uxtb	r2, r3
 1764 00a6 7989     		ldrh	r1, [r7, #10]
 1765 00a8 0C4B     		ldr	r3, .L80+8
 1766 00aa 0093     		str	r3, [sp]
 1767 00ac 7B69     		ldr	r3, [r7, #20]
 1768 00ae F868     		ldr	r0, [r7, #12]
 1769 00b0 FFF7FEFF 		bl	I2C_TransferConfig
1588:Drivers/STM32F3xx_HAL_Driver/Src/stm32f3xx_hal_i2c.c **** 
1589:Drivers/STM32F3xx_HAL_Driver/Src/stm32f3xx_hal_i2c.c ****     /* Process Unlocked */
1590:Drivers/STM32F3xx_HAL_Driver/Src/stm32f3xx_hal_i2c.c ****     __HAL_UNLOCK(hi2c);
 1770              		.loc 1 1590 0
 1771 00b4 FB68     		ldr	r3, [r7, #12]
 1772 00b6 0022     		movs	r2, #0
 1773 00b8 83F84020 		strb	r2, [r3, #64]
1591:Drivers/STM32F3xx_HAL_Driver/Src/stm32f3xx_hal_i2c.c **** 
1592:Drivers/STM32F3xx_HAL_Driver/Src/stm32f3xx_hal_i2c.c ****     /* Note : The I2C interrupts must be enabled after unlocking current process
1593:Drivers/STM32F3xx_HAL_Driver/Src/stm32f3xx_hal_i2c.c ****               to avoid the risk of I2C interrupt handle execution before current
1594:Drivers/STM32F3xx_HAL_Driver/Src/stm32f3xx_hal_i2c.c ****               process unlock */
1595:Drivers/STM32F3xx_HAL_Driver/Src/stm32f3xx_hal_i2c.c **** 
1596:Drivers/STM32F3xx_HAL_Driver/Src/stm32f3xx_hal_i2c.c ****     /* Enable ERR, TC, STOP, NACK, TXI interrupt */
1597:Drivers/STM32F3xx_HAL_Driver/Src/stm32f3xx_hal_i2c.c ****     /* possible to enable all of these */
1598:Drivers/STM32F3xx_HAL_Driver/Src/stm32f3xx_hal_i2c.c ****     /* I2C_IT_ERRI | I2C_IT_TCI| I2C_IT_STOPI| I2C_IT_NACKI | I2C_IT_ADDRI | I2C_IT_RXI | I2C_IT_TX
1599:Drivers/STM32F3xx_HAL_Driver/Src/stm32f3xx_hal_i2c.c ****     I2C_Enable_IRQ(hi2c, I2C_XFER_TX_IT);
 1774              		.loc 1 1599 0
 1775 00bc 0121     		movs	r1, #1
 1776 00be F868     		ldr	r0, [r7, #12]
 1777 00c0 FFF7FEFF 		bl	I2C_Enable_IRQ
ARM GAS  /tmp/cc7eKD0K.s 			page 60


1600:Drivers/STM32F3xx_HAL_Driver/Src/stm32f3xx_hal_i2c.c **** 
1601:Drivers/STM32F3xx_HAL_Driver/Src/stm32f3xx_hal_i2c.c ****     return HAL_OK;
 1778              		.loc 1 1601 0
 1779 00c4 0023     		movs	r3, #0
 1780 00c6 00E0     		b	.L76
 1781              	.L74:
1602:Drivers/STM32F3xx_HAL_Driver/Src/stm32f3xx_hal_i2c.c ****   }
1603:Drivers/STM32F3xx_HAL_Driver/Src/stm32f3xx_hal_i2c.c ****   else
1604:Drivers/STM32F3xx_HAL_Driver/Src/stm32f3xx_hal_i2c.c ****   {
1605:Drivers/STM32F3xx_HAL_Driver/Src/stm32f3xx_hal_i2c.c ****     return HAL_BUSY;
 1782              		.loc 1 1605 0
 1783 00c8 0223     		movs	r3, #2
 1784              	.L76:
1606:Drivers/STM32F3xx_HAL_Driver/Src/stm32f3xx_hal_i2c.c ****   }
1607:Drivers/STM32F3xx_HAL_Driver/Src/stm32f3xx_hal_i2c.c **** }
 1785              		.loc 1 1607 0
 1786 00ca 1846     		mov	r0, r3
 1787 00cc 1837     		adds	r7, r7, #24
 1788              	.LCFI45:
 1789              		.cfi_def_cfa_offset 8
 1790 00ce BD46     		mov	sp, r7
 1791              	.LCFI46:
 1792              		.cfi_def_cfa_register 13
 1793              		@ sp needed
 1794 00d0 80BD     		pop	{r7, pc}
 1795              	.L81:
 1796 00d2 00BF     		.align	2
 1797              	.L80:
 1798 00d4 0000FFFF 		.word	-65536
 1799 00d8 00000000 		.word	I2C_Master_ISR_IT
 1800 00dc 00200080 		.word	-2147475456
 1801              		.cfi_endproc
 1802              	.LFE131:
 1804              		.section	.text.HAL_I2C_Master_Receive_IT,"ax",%progbits
 1805              		.align	1
 1806              		.global	HAL_I2C_Master_Receive_IT
 1807              		.syntax unified
 1808              		.thumb
 1809              		.thumb_func
 1810              		.fpu fpv4-sp-d16
 1812              	HAL_I2C_Master_Receive_IT:
 1813              	.LFB132:
1608:Drivers/STM32F3xx_HAL_Driver/Src/stm32f3xx_hal_i2c.c **** 
1609:Drivers/STM32F3xx_HAL_Driver/Src/stm32f3xx_hal_i2c.c **** /**
1610:Drivers/STM32F3xx_HAL_Driver/Src/stm32f3xx_hal_i2c.c ****   * @brief  Receive in master mode an amount of data in non-blocking mode with Interrupt
1611:Drivers/STM32F3xx_HAL_Driver/Src/stm32f3xx_hal_i2c.c ****   * @param  hi2c Pointer to a I2C_HandleTypeDef structure that contains
1612:Drivers/STM32F3xx_HAL_Driver/Src/stm32f3xx_hal_i2c.c ****   *                the configuration information for the specified I2C.
1613:Drivers/STM32F3xx_HAL_Driver/Src/stm32f3xx_hal_i2c.c ****   * @param  DevAddress Target device address: The device 7 bits address value
1614:Drivers/STM32F3xx_HAL_Driver/Src/stm32f3xx_hal_i2c.c ****   *         in datasheet must be shifted to the left before calling the interface
1615:Drivers/STM32F3xx_HAL_Driver/Src/stm32f3xx_hal_i2c.c ****   * @param  pData Pointer to data buffer
1616:Drivers/STM32F3xx_HAL_Driver/Src/stm32f3xx_hal_i2c.c ****   * @param  Size Amount of data to be sent
1617:Drivers/STM32F3xx_HAL_Driver/Src/stm32f3xx_hal_i2c.c ****   * @retval HAL status
1618:Drivers/STM32F3xx_HAL_Driver/Src/stm32f3xx_hal_i2c.c ****   */
1619:Drivers/STM32F3xx_HAL_Driver/Src/stm32f3xx_hal_i2c.c **** HAL_StatusTypeDef HAL_I2C_Master_Receive_IT(I2C_HandleTypeDef *hi2c, uint16_t DevAddress, uint8_t *
1620:Drivers/STM32F3xx_HAL_Driver/Src/stm32f3xx_hal_i2c.c **** {
 1814              		.loc 1 1620 0
 1815              		.cfi_startproc
ARM GAS  /tmp/cc7eKD0K.s 			page 61


 1816              		@ args = 0, pretend = 0, frame = 24
 1817              		@ frame_needed = 1, uses_anonymous_args = 0
 1818 0000 80B5     		push	{r7, lr}
 1819              	.LCFI47:
 1820              		.cfi_def_cfa_offset 8
 1821              		.cfi_offset 7, -8
 1822              		.cfi_offset 14, -4
 1823 0002 88B0     		sub	sp, sp, #32
 1824              	.LCFI48:
 1825              		.cfi_def_cfa_offset 40
 1826 0004 02AF     		add	r7, sp, #8
 1827              	.LCFI49:
 1828              		.cfi_def_cfa 7, 32
 1829 0006 F860     		str	r0, [r7, #12]
 1830 0008 7A60     		str	r2, [r7, #4]
 1831 000a 1A46     		mov	r2, r3
 1832 000c 0B46     		mov	r3, r1	@ movhi
 1833 000e 7B81     		strh	r3, [r7, #10]	@ movhi
 1834 0010 1346     		mov	r3, r2	@ movhi
 1835 0012 3B81     		strh	r3, [r7, #8]	@ movhi
1621:Drivers/STM32F3xx_HAL_Driver/Src/stm32f3xx_hal_i2c.c ****   uint32_t xfermode;
1622:Drivers/STM32F3xx_HAL_Driver/Src/stm32f3xx_hal_i2c.c **** 
1623:Drivers/STM32F3xx_HAL_Driver/Src/stm32f3xx_hal_i2c.c ****   if (hi2c->State == HAL_I2C_STATE_READY)
 1836              		.loc 1 1623 0
 1837 0014 FB68     		ldr	r3, [r7, #12]
 1838 0016 93F84130 		ldrb	r3, [r3, #65]
 1839 001a DBB2     		uxtb	r3, r3
 1840 001c 202B     		cmp	r3, #32
 1841 001e 53D1     		bne	.L83
1624:Drivers/STM32F3xx_HAL_Driver/Src/stm32f3xx_hal_i2c.c ****   {
1625:Drivers/STM32F3xx_HAL_Driver/Src/stm32f3xx_hal_i2c.c ****     if (__HAL_I2C_GET_FLAG(hi2c, I2C_FLAG_BUSY) == SET)
 1842              		.loc 1 1625 0
 1843 0020 FB68     		ldr	r3, [r7, #12]
 1844 0022 1B68     		ldr	r3, [r3]
 1845 0024 9B69     		ldr	r3, [r3, #24]
 1846 0026 03F40043 		and	r3, r3, #32768
 1847 002a B3F5004F 		cmp	r3, #32768
 1848 002e 01D1     		bne	.L84
1626:Drivers/STM32F3xx_HAL_Driver/Src/stm32f3xx_hal_i2c.c ****     {
1627:Drivers/STM32F3xx_HAL_Driver/Src/stm32f3xx_hal_i2c.c ****       return HAL_BUSY;
 1849              		.loc 1 1627 0
 1850 0030 0223     		movs	r3, #2
 1851 0032 4AE0     		b	.L85
 1852              	.L84:
1628:Drivers/STM32F3xx_HAL_Driver/Src/stm32f3xx_hal_i2c.c ****     }
1629:Drivers/STM32F3xx_HAL_Driver/Src/stm32f3xx_hal_i2c.c **** 
1630:Drivers/STM32F3xx_HAL_Driver/Src/stm32f3xx_hal_i2c.c ****     /* Process Locked */
1631:Drivers/STM32F3xx_HAL_Driver/Src/stm32f3xx_hal_i2c.c ****     __HAL_LOCK(hi2c);
 1853              		.loc 1 1631 0
 1854 0034 FB68     		ldr	r3, [r7, #12]
 1855 0036 93F84030 		ldrb	r3, [r3, #64]	@ zero_extendqisi2
 1856 003a 012B     		cmp	r3, #1
 1857 003c 01D1     		bne	.L86
 1858              		.loc 1 1631 0 is_stmt 0 discriminator 1
 1859 003e 0223     		movs	r3, #2
 1860 0040 43E0     		b	.L85
 1861              	.L86:
ARM GAS  /tmp/cc7eKD0K.s 			page 62


 1862              		.loc 1 1631 0 discriminator 2
 1863 0042 FB68     		ldr	r3, [r7, #12]
 1864 0044 0122     		movs	r2, #1
 1865 0046 83F84020 		strb	r2, [r3, #64]
1632:Drivers/STM32F3xx_HAL_Driver/Src/stm32f3xx_hal_i2c.c **** 
1633:Drivers/STM32F3xx_HAL_Driver/Src/stm32f3xx_hal_i2c.c ****     hi2c->State       = HAL_I2C_STATE_BUSY_RX;
 1866              		.loc 1 1633 0 is_stmt 1 discriminator 2
 1867 004a FB68     		ldr	r3, [r7, #12]
 1868 004c 2222     		movs	r2, #34
 1869 004e 83F84120 		strb	r2, [r3, #65]
1634:Drivers/STM32F3xx_HAL_Driver/Src/stm32f3xx_hal_i2c.c ****     hi2c->Mode        = HAL_I2C_MODE_MASTER;
 1870              		.loc 1 1634 0 discriminator 2
 1871 0052 FB68     		ldr	r3, [r7, #12]
 1872 0054 1022     		movs	r2, #16
 1873 0056 83F84220 		strb	r2, [r3, #66]
1635:Drivers/STM32F3xx_HAL_Driver/Src/stm32f3xx_hal_i2c.c ****     hi2c->ErrorCode   = HAL_I2C_ERROR_NONE;
 1874              		.loc 1 1635 0 discriminator 2
 1875 005a FB68     		ldr	r3, [r7, #12]
 1876 005c 0022     		movs	r2, #0
 1877 005e 5A64     		str	r2, [r3, #68]
1636:Drivers/STM32F3xx_HAL_Driver/Src/stm32f3xx_hal_i2c.c **** 
1637:Drivers/STM32F3xx_HAL_Driver/Src/stm32f3xx_hal_i2c.c ****     /* Prepare transfer parameters */
1638:Drivers/STM32F3xx_HAL_Driver/Src/stm32f3xx_hal_i2c.c ****     hi2c->pBuffPtr    = pData;
 1878              		.loc 1 1638 0 discriminator 2
 1879 0060 FB68     		ldr	r3, [r7, #12]
 1880 0062 7A68     		ldr	r2, [r7, #4]
 1881 0064 5A62     		str	r2, [r3, #36]
1639:Drivers/STM32F3xx_HAL_Driver/Src/stm32f3xx_hal_i2c.c ****     hi2c->XferCount   = Size;
 1882              		.loc 1 1639 0 discriminator 2
 1883 0066 FB68     		ldr	r3, [r7, #12]
 1884 0068 3A89     		ldrh	r2, [r7, #8]	@ movhi
 1885 006a 5A85     		strh	r2, [r3, #42]	@ movhi
1640:Drivers/STM32F3xx_HAL_Driver/Src/stm32f3xx_hal_i2c.c ****     hi2c->XferOptions = I2C_NO_OPTION_FRAME;
 1886              		.loc 1 1640 0 discriminator 2
 1887 006c FB68     		ldr	r3, [r7, #12]
 1888 006e 194A     		ldr	r2, .L89
 1889 0070 DA62     		str	r2, [r3, #44]
1641:Drivers/STM32F3xx_HAL_Driver/Src/stm32f3xx_hal_i2c.c ****     hi2c->XferISR     = I2C_Master_ISR_IT;
 1890              		.loc 1 1641 0 discriminator 2
 1891 0072 FB68     		ldr	r3, [r7, #12]
 1892 0074 184A     		ldr	r2, .L89+4
 1893 0076 5A63     		str	r2, [r3, #52]
1642:Drivers/STM32F3xx_HAL_Driver/Src/stm32f3xx_hal_i2c.c **** 
1643:Drivers/STM32F3xx_HAL_Driver/Src/stm32f3xx_hal_i2c.c ****     if (hi2c->XferCount > MAX_NBYTE_SIZE)
 1894              		.loc 1 1643 0 discriminator 2
 1895 0078 FB68     		ldr	r3, [r7, #12]
 1896 007a 5B8D     		ldrh	r3, [r3, #42]	@ movhi
 1897 007c 9BB2     		uxth	r3, r3
 1898 007e FF2B     		cmp	r3, #255
 1899 0080 06D9     		bls	.L87
1644:Drivers/STM32F3xx_HAL_Driver/Src/stm32f3xx_hal_i2c.c ****     {
1645:Drivers/STM32F3xx_HAL_Driver/Src/stm32f3xx_hal_i2c.c ****       hi2c->XferSize = MAX_NBYTE_SIZE;
 1900              		.loc 1 1645 0
 1901 0082 FB68     		ldr	r3, [r7, #12]
 1902 0084 FF22     		movs	r2, #255
 1903 0086 1A85     		strh	r2, [r3, #40]	@ movhi
1646:Drivers/STM32F3xx_HAL_Driver/Src/stm32f3xx_hal_i2c.c ****       xfermode = I2C_RELOAD_MODE;
ARM GAS  /tmp/cc7eKD0K.s 			page 63


 1904              		.loc 1 1646 0
 1905 0088 4FF08073 		mov	r3, #16777216
 1906 008c 7B61     		str	r3, [r7, #20]
 1907 008e 07E0     		b	.L88
 1908              	.L87:
1647:Drivers/STM32F3xx_HAL_Driver/Src/stm32f3xx_hal_i2c.c ****     }
1648:Drivers/STM32F3xx_HAL_Driver/Src/stm32f3xx_hal_i2c.c ****     else
1649:Drivers/STM32F3xx_HAL_Driver/Src/stm32f3xx_hal_i2c.c ****     {
1650:Drivers/STM32F3xx_HAL_Driver/Src/stm32f3xx_hal_i2c.c ****       hi2c->XferSize = hi2c->XferCount;
 1909              		.loc 1 1650 0
 1910 0090 FB68     		ldr	r3, [r7, #12]
 1911 0092 5B8D     		ldrh	r3, [r3, #42]	@ movhi
 1912 0094 9AB2     		uxth	r2, r3
 1913 0096 FB68     		ldr	r3, [r7, #12]
 1914 0098 1A85     		strh	r2, [r3, #40]	@ movhi
1651:Drivers/STM32F3xx_HAL_Driver/Src/stm32f3xx_hal_i2c.c ****       xfermode = I2C_AUTOEND_MODE;
 1915              		.loc 1 1651 0
 1916 009a 4FF00073 		mov	r3, #33554432
 1917 009e 7B61     		str	r3, [r7, #20]
 1918              	.L88:
1652:Drivers/STM32F3xx_HAL_Driver/Src/stm32f3xx_hal_i2c.c ****     }
1653:Drivers/STM32F3xx_HAL_Driver/Src/stm32f3xx_hal_i2c.c **** 
1654:Drivers/STM32F3xx_HAL_Driver/Src/stm32f3xx_hal_i2c.c ****     /* Send Slave Address */
1655:Drivers/STM32F3xx_HAL_Driver/Src/stm32f3xx_hal_i2c.c ****     /* Set NBYTES to write and reload if hi2c->XferCount > MAX_NBYTE_SIZE */
1656:Drivers/STM32F3xx_HAL_Driver/Src/stm32f3xx_hal_i2c.c ****     I2C_TransferConfig(hi2c, DevAddress, (uint8_t)hi2c->XferSize, xfermode, I2C_GENERATE_START_READ
 1919              		.loc 1 1656 0
 1920 00a0 FB68     		ldr	r3, [r7, #12]
 1921 00a2 1B8D     		ldrh	r3, [r3, #40]
 1922 00a4 DAB2     		uxtb	r2, r3
 1923 00a6 7989     		ldrh	r1, [r7, #10]
 1924 00a8 0C4B     		ldr	r3, .L89+8
 1925 00aa 0093     		str	r3, [sp]
 1926 00ac 7B69     		ldr	r3, [r7, #20]
 1927 00ae F868     		ldr	r0, [r7, #12]
 1928 00b0 FFF7FEFF 		bl	I2C_TransferConfig
1657:Drivers/STM32F3xx_HAL_Driver/Src/stm32f3xx_hal_i2c.c **** 
1658:Drivers/STM32F3xx_HAL_Driver/Src/stm32f3xx_hal_i2c.c ****     /* Process Unlocked */
1659:Drivers/STM32F3xx_HAL_Driver/Src/stm32f3xx_hal_i2c.c ****     __HAL_UNLOCK(hi2c);
 1929              		.loc 1 1659 0
 1930 00b4 FB68     		ldr	r3, [r7, #12]
 1931 00b6 0022     		movs	r2, #0
 1932 00b8 83F84020 		strb	r2, [r3, #64]
1660:Drivers/STM32F3xx_HAL_Driver/Src/stm32f3xx_hal_i2c.c **** 
1661:Drivers/STM32F3xx_HAL_Driver/Src/stm32f3xx_hal_i2c.c ****     /* Note : The I2C interrupts must be enabled after unlocking current process
1662:Drivers/STM32F3xx_HAL_Driver/Src/stm32f3xx_hal_i2c.c ****               to avoid the risk of I2C interrupt handle execution before current
1663:Drivers/STM32F3xx_HAL_Driver/Src/stm32f3xx_hal_i2c.c ****               process unlock */
1664:Drivers/STM32F3xx_HAL_Driver/Src/stm32f3xx_hal_i2c.c **** 
1665:Drivers/STM32F3xx_HAL_Driver/Src/stm32f3xx_hal_i2c.c ****     /* Enable ERR, TC, STOP, NACK, RXI interrupt */
1666:Drivers/STM32F3xx_HAL_Driver/Src/stm32f3xx_hal_i2c.c ****     /* possible to enable all of these */
1667:Drivers/STM32F3xx_HAL_Driver/Src/stm32f3xx_hal_i2c.c ****     /* I2C_IT_ERRI | I2C_IT_TCI| I2C_IT_STOPI| I2C_IT_NACKI | I2C_IT_ADDRI | I2C_IT_RXI | I2C_IT_TX
1668:Drivers/STM32F3xx_HAL_Driver/Src/stm32f3xx_hal_i2c.c ****     I2C_Enable_IRQ(hi2c, I2C_XFER_RX_IT);
 1933              		.loc 1 1668 0
 1934 00bc 0221     		movs	r1, #2
 1935 00be F868     		ldr	r0, [r7, #12]
 1936 00c0 FFF7FEFF 		bl	I2C_Enable_IRQ
1669:Drivers/STM32F3xx_HAL_Driver/Src/stm32f3xx_hal_i2c.c **** 
1670:Drivers/STM32F3xx_HAL_Driver/Src/stm32f3xx_hal_i2c.c ****     return HAL_OK;
ARM GAS  /tmp/cc7eKD0K.s 			page 64


 1937              		.loc 1 1670 0
 1938 00c4 0023     		movs	r3, #0
 1939 00c6 00E0     		b	.L85
 1940              	.L83:
1671:Drivers/STM32F3xx_HAL_Driver/Src/stm32f3xx_hal_i2c.c ****   }
1672:Drivers/STM32F3xx_HAL_Driver/Src/stm32f3xx_hal_i2c.c ****   else
1673:Drivers/STM32F3xx_HAL_Driver/Src/stm32f3xx_hal_i2c.c ****   {
1674:Drivers/STM32F3xx_HAL_Driver/Src/stm32f3xx_hal_i2c.c ****     return HAL_BUSY;
 1941              		.loc 1 1674 0
 1942 00c8 0223     		movs	r3, #2
 1943              	.L85:
1675:Drivers/STM32F3xx_HAL_Driver/Src/stm32f3xx_hal_i2c.c ****   }
1676:Drivers/STM32F3xx_HAL_Driver/Src/stm32f3xx_hal_i2c.c **** }
 1944              		.loc 1 1676 0
 1945 00ca 1846     		mov	r0, r3
 1946 00cc 1837     		adds	r7, r7, #24
 1947              	.LCFI50:
 1948              		.cfi_def_cfa_offset 8
 1949 00ce BD46     		mov	sp, r7
 1950              	.LCFI51:
 1951              		.cfi_def_cfa_register 13
 1952              		@ sp needed
 1953 00d0 80BD     		pop	{r7, pc}
 1954              	.L90:
 1955 00d2 00BF     		.align	2
 1956              	.L89:
 1957 00d4 0000FFFF 		.word	-65536
 1958 00d8 00000000 		.word	I2C_Master_ISR_IT
 1959 00dc 00240080 		.word	-2147474432
 1960              		.cfi_endproc
 1961              	.LFE132:
 1963              		.section	.text.HAL_I2C_Slave_Transmit_IT,"ax",%progbits
 1964              		.align	1
 1965              		.global	HAL_I2C_Slave_Transmit_IT
 1966              		.syntax unified
 1967              		.thumb
 1968              		.thumb_func
 1969              		.fpu fpv4-sp-d16
 1971              	HAL_I2C_Slave_Transmit_IT:
 1972              	.LFB133:
1677:Drivers/STM32F3xx_HAL_Driver/Src/stm32f3xx_hal_i2c.c **** 
1678:Drivers/STM32F3xx_HAL_Driver/Src/stm32f3xx_hal_i2c.c **** /**
1679:Drivers/STM32F3xx_HAL_Driver/Src/stm32f3xx_hal_i2c.c ****   * @brief  Transmit in slave mode an amount of data in non-blocking mode with Interrupt
1680:Drivers/STM32F3xx_HAL_Driver/Src/stm32f3xx_hal_i2c.c ****   * @param  hi2c Pointer to a I2C_HandleTypeDef structure that contains
1681:Drivers/STM32F3xx_HAL_Driver/Src/stm32f3xx_hal_i2c.c ****   *                the configuration information for the specified I2C.
1682:Drivers/STM32F3xx_HAL_Driver/Src/stm32f3xx_hal_i2c.c ****   * @param  pData Pointer to data buffer
1683:Drivers/STM32F3xx_HAL_Driver/Src/stm32f3xx_hal_i2c.c ****   * @param  Size Amount of data to be sent
1684:Drivers/STM32F3xx_HAL_Driver/Src/stm32f3xx_hal_i2c.c ****   * @retval HAL status
1685:Drivers/STM32F3xx_HAL_Driver/Src/stm32f3xx_hal_i2c.c ****   */
1686:Drivers/STM32F3xx_HAL_Driver/Src/stm32f3xx_hal_i2c.c **** HAL_StatusTypeDef HAL_I2C_Slave_Transmit_IT(I2C_HandleTypeDef *hi2c, uint8_t *pData, uint16_t Size)
1687:Drivers/STM32F3xx_HAL_Driver/Src/stm32f3xx_hal_i2c.c **** {
 1973              		.loc 1 1687 0
 1974              		.cfi_startproc
 1975              		@ args = 0, pretend = 0, frame = 16
 1976              		@ frame_needed = 1, uses_anonymous_args = 0
 1977 0000 80B5     		push	{r7, lr}
 1978              	.LCFI52:
ARM GAS  /tmp/cc7eKD0K.s 			page 65


 1979              		.cfi_def_cfa_offset 8
 1980              		.cfi_offset 7, -8
 1981              		.cfi_offset 14, -4
 1982 0002 84B0     		sub	sp, sp, #16
 1983              	.LCFI53:
 1984              		.cfi_def_cfa_offset 24
 1985 0004 00AF     		add	r7, sp, #0
 1986              	.LCFI54:
 1987              		.cfi_def_cfa_register 7
 1988 0006 F860     		str	r0, [r7, #12]
 1989 0008 B960     		str	r1, [r7, #8]
 1990 000a 1346     		mov	r3, r2
 1991 000c FB80     		strh	r3, [r7, #6]	@ movhi
1688:Drivers/STM32F3xx_HAL_Driver/Src/stm32f3xx_hal_i2c.c ****   if (hi2c->State == HAL_I2C_STATE_READY)
 1992              		.loc 1 1688 0
 1993 000e FB68     		ldr	r3, [r7, #12]
 1994 0010 93F84130 		ldrb	r3, [r3, #65]
 1995 0014 DBB2     		uxtb	r3, r3
 1996 0016 202B     		cmp	r3, #32
 1997 0018 38D1     		bne	.L92
1689:Drivers/STM32F3xx_HAL_Driver/Src/stm32f3xx_hal_i2c.c ****   {
1690:Drivers/STM32F3xx_HAL_Driver/Src/stm32f3xx_hal_i2c.c ****     /* Process Locked */
1691:Drivers/STM32F3xx_HAL_Driver/Src/stm32f3xx_hal_i2c.c ****     __HAL_LOCK(hi2c);
 1998              		.loc 1 1691 0
 1999 001a FB68     		ldr	r3, [r7, #12]
 2000 001c 93F84030 		ldrb	r3, [r3, #64]	@ zero_extendqisi2
 2001 0020 012B     		cmp	r3, #1
 2002 0022 01D1     		bne	.L93
 2003              		.loc 1 1691 0 is_stmt 0 discriminator 1
 2004 0024 0223     		movs	r3, #2
 2005 0026 32E0     		b	.L94
 2006              	.L93:
 2007              		.loc 1 1691 0 discriminator 2
 2008 0028 FB68     		ldr	r3, [r7, #12]
 2009 002a 0122     		movs	r2, #1
 2010 002c 83F84020 		strb	r2, [r3, #64]
1692:Drivers/STM32F3xx_HAL_Driver/Src/stm32f3xx_hal_i2c.c **** 
1693:Drivers/STM32F3xx_HAL_Driver/Src/stm32f3xx_hal_i2c.c ****     hi2c->State       = HAL_I2C_STATE_BUSY_TX;
 2011              		.loc 1 1693 0 is_stmt 1 discriminator 2
 2012 0030 FB68     		ldr	r3, [r7, #12]
 2013 0032 2122     		movs	r2, #33
 2014 0034 83F84120 		strb	r2, [r3, #65]
1694:Drivers/STM32F3xx_HAL_Driver/Src/stm32f3xx_hal_i2c.c ****     hi2c->Mode        = HAL_I2C_MODE_SLAVE;
 2015              		.loc 1 1694 0 discriminator 2
 2016 0038 FB68     		ldr	r3, [r7, #12]
 2017 003a 2022     		movs	r2, #32
