ARM GAS  /tmp/ccfCzef7.s 			page 1


   1              		.cpu cortex-m4
   2              		.eabi_attribute 27, 1
   3              		.eabi_attribute 28, 1
   4              		.eabi_attribute 20, 1
   5              		.eabi_attribute 21, 1
   6              		.eabi_attribute 23, 3
   7              		.eabi_attribute 24, 1
   8              		.eabi_attribute 25, 1
   9              		.eabi_attribute 26, 1
  10              		.eabi_attribute 30, 6
  11              		.eabi_attribute 34, 1
  12              		.eabi_attribute 18, 4
  13              		.file	"stm32f3xx_hal_uart.c"
  14              		.text
  15              	.Ltext0:
  16              		.cfi_sections	.debug_frame
  17              		.section	.text.HAL_UART_Init,"ax",%progbits
  18              		.align	1
  19              		.global	HAL_UART_Init
  20              		.syntax unified
  21              		.thumb
  22              		.thumb_func
  23              		.fpu fpv4-sp-d16
  25              	HAL_UART_Init:
  26              	.LFB123:
  27              		.file 1 "Drivers/STM32F3xx_HAL_Driver/Src/stm32f3xx_hal_uart.c"
   1:Drivers/STM32F3xx_HAL_Driver/Src/stm32f3xx_hal_uart.c **** /**
   2:Drivers/STM32F3xx_HAL_Driver/Src/stm32f3xx_hal_uart.c ****   ******************************************************************************
   3:Drivers/STM32F3xx_HAL_Driver/Src/stm32f3xx_hal_uart.c ****   * @file    stm32f3xx_hal_uart.c
   4:Drivers/STM32F3xx_HAL_Driver/Src/stm32f3xx_hal_uart.c ****   * @author  MCD Application Team
   5:Drivers/STM32F3xx_HAL_Driver/Src/stm32f3xx_hal_uart.c ****   * @brief   UART HAL module driver.
   6:Drivers/STM32F3xx_HAL_Driver/Src/stm32f3xx_hal_uart.c ****   *          This file provides firmware functions to manage the following
   7:Drivers/STM32F3xx_HAL_Driver/Src/stm32f3xx_hal_uart.c ****   *          functionalities of the Universal Asynchronous Receiver Transmitter Peripheral (UART).
   8:Drivers/STM32F3xx_HAL_Driver/Src/stm32f3xx_hal_uart.c ****   *           + Initialization and de-initialization functions
   9:Drivers/STM32F3xx_HAL_Driver/Src/stm32f3xx_hal_uart.c ****   *           + IO operation functions
  10:Drivers/STM32F3xx_HAL_Driver/Src/stm32f3xx_hal_uart.c ****   *           + Peripheral Control functions
  11:Drivers/STM32F3xx_HAL_Driver/Src/stm32f3xx_hal_uart.c ****   *
  12:Drivers/STM32F3xx_HAL_Driver/Src/stm32f3xx_hal_uart.c ****   *
  13:Drivers/STM32F3xx_HAL_Driver/Src/stm32f3xx_hal_uart.c ****   @verbatim
  14:Drivers/STM32F3xx_HAL_Driver/Src/stm32f3xx_hal_uart.c ****  ===============================================================================
  15:Drivers/STM32F3xx_HAL_Driver/Src/stm32f3xx_hal_uart.c ****                         ##### How to use this driver #####
  16:Drivers/STM32F3xx_HAL_Driver/Src/stm32f3xx_hal_uart.c ****  ===============================================================================
  17:Drivers/STM32F3xx_HAL_Driver/Src/stm32f3xx_hal_uart.c ****   [..]
  18:Drivers/STM32F3xx_HAL_Driver/Src/stm32f3xx_hal_uart.c ****     The UART HAL driver can be used as follows:
  19:Drivers/STM32F3xx_HAL_Driver/Src/stm32f3xx_hal_uart.c **** 
  20:Drivers/STM32F3xx_HAL_Driver/Src/stm32f3xx_hal_uart.c ****     (#) Declare a UART_HandleTypeDef handle structure (eg. UART_HandleTypeDef huart).
  21:Drivers/STM32F3xx_HAL_Driver/Src/stm32f3xx_hal_uart.c ****     (#) Initialize the UART low level resources by implementing the HAL_UART_MspInit() API:
  22:Drivers/STM32F3xx_HAL_Driver/Src/stm32f3xx_hal_uart.c ****         (++) Enable the USARTx interface clock.
  23:Drivers/STM32F3xx_HAL_Driver/Src/stm32f3xx_hal_uart.c ****         (++) UART pins configuration:
  24:Drivers/STM32F3xx_HAL_Driver/Src/stm32f3xx_hal_uart.c ****             (+++) Enable the clock for the UART GPIOs.
  25:Drivers/STM32F3xx_HAL_Driver/Src/stm32f3xx_hal_uart.c ****             (+++) Configure these UART pins as alternate function pull-up.
  26:Drivers/STM32F3xx_HAL_Driver/Src/stm32f3xx_hal_uart.c ****         (++) NVIC configuration if you need to use interrupt process (HAL_UART_Transmit_IT()
  27:Drivers/STM32F3xx_HAL_Driver/Src/stm32f3xx_hal_uart.c ****              and HAL_UART_Receive_IT() APIs):
  28:Drivers/STM32F3xx_HAL_Driver/Src/stm32f3xx_hal_uart.c ****             (+++) Configure the USARTx interrupt priority.
  29:Drivers/STM32F3xx_HAL_Driver/Src/stm32f3xx_hal_uart.c ****             (+++) Enable the NVIC USART IRQ handle.
  30:Drivers/STM32F3xx_HAL_Driver/Src/stm32f3xx_hal_uart.c ****         (++) UART interrupts handling:
  31:Drivers/STM32F3xx_HAL_Driver/Src/stm32f3xx_hal_uart.c ****               -@@-  The specific UART interrupts (Transmission complete interrupt,
ARM GAS  /tmp/ccfCzef7.s 			page 2


  32:Drivers/STM32F3xx_HAL_Driver/Src/stm32f3xx_hal_uart.c ****                 RXNE interrupt, RX/TX FIFOs related interrupts and Error Interrupts)
  33:Drivers/STM32F3xx_HAL_Driver/Src/stm32f3xx_hal_uart.c ****                 are managed using the macros __HAL_UART_ENABLE_IT() and __HAL_UART_DISABLE_IT()
  34:Drivers/STM32F3xx_HAL_Driver/Src/stm32f3xx_hal_uart.c ****                 inside the transmit and receive processes.
  35:Drivers/STM32F3xx_HAL_Driver/Src/stm32f3xx_hal_uart.c ****         (++) DMA Configuration if you need to use DMA process (HAL_UART_Transmit_DMA()
  36:Drivers/STM32F3xx_HAL_Driver/Src/stm32f3xx_hal_uart.c ****              and HAL_UART_Receive_DMA() APIs):
  37:Drivers/STM32F3xx_HAL_Driver/Src/stm32f3xx_hal_uart.c ****             (+++) Declare a DMA handle structure for the Tx/Rx channel.
  38:Drivers/STM32F3xx_HAL_Driver/Src/stm32f3xx_hal_uart.c ****             (+++) Enable the DMAx interface clock.
  39:Drivers/STM32F3xx_HAL_Driver/Src/stm32f3xx_hal_uart.c ****             (+++) Configure the declared DMA handle structure with the required Tx/Rx parameters.
  40:Drivers/STM32F3xx_HAL_Driver/Src/stm32f3xx_hal_uart.c ****             (+++) Configure the DMA Tx/Rx channel.
  41:Drivers/STM32F3xx_HAL_Driver/Src/stm32f3xx_hal_uart.c ****             (+++) Associate the initialized DMA handle to the UART DMA Tx/Rx handle.
  42:Drivers/STM32F3xx_HAL_Driver/Src/stm32f3xx_hal_uart.c ****             (+++) Configure the priority and enable the NVIC for the transfer complete interrupt on
  43:Drivers/STM32F3xx_HAL_Driver/Src/stm32f3xx_hal_uart.c **** 
  44:Drivers/STM32F3xx_HAL_Driver/Src/stm32f3xx_hal_uart.c ****     (#) Program the Baud Rate, Word Length, Stop Bit, Parity, Hardware
  45:Drivers/STM32F3xx_HAL_Driver/Src/stm32f3xx_hal_uart.c ****         flow control and Mode (Receiver/Transmitter) in the huart handle Init structure.
  46:Drivers/STM32F3xx_HAL_Driver/Src/stm32f3xx_hal_uart.c **** 
  47:Drivers/STM32F3xx_HAL_Driver/Src/stm32f3xx_hal_uart.c ****     (#) If required, program UART advanced features (TX/RX pins swap, auto Baud rate detection,...)
  48:Drivers/STM32F3xx_HAL_Driver/Src/stm32f3xx_hal_uart.c ****         in the huart handle AdvancedInit structure.
  49:Drivers/STM32F3xx_HAL_Driver/Src/stm32f3xx_hal_uart.c **** 
  50:Drivers/STM32F3xx_HAL_Driver/Src/stm32f3xx_hal_uart.c ****     (#) For the UART asynchronous mode, initialize the UART registers by calling
  51:Drivers/STM32F3xx_HAL_Driver/Src/stm32f3xx_hal_uart.c ****         the HAL_UART_Init() API.
  52:Drivers/STM32F3xx_HAL_Driver/Src/stm32f3xx_hal_uart.c **** 
  53:Drivers/STM32F3xx_HAL_Driver/Src/stm32f3xx_hal_uart.c ****     (#) For the UART Half duplex mode, initialize the UART registers by calling
  54:Drivers/STM32F3xx_HAL_Driver/Src/stm32f3xx_hal_uart.c ****         the HAL_HalfDuplex_Init() API.
  55:Drivers/STM32F3xx_HAL_Driver/Src/stm32f3xx_hal_uart.c **** 
  56:Drivers/STM32F3xx_HAL_Driver/Src/stm32f3xx_hal_uart.c ****     (#) For the UART LIN (Local Interconnection Network) mode, initialize the UART registers
  57:Drivers/STM32F3xx_HAL_Driver/Src/stm32f3xx_hal_uart.c ****         by calling the HAL_LIN_Init() API.
  58:Drivers/STM32F3xx_HAL_Driver/Src/stm32f3xx_hal_uart.c **** 
  59:Drivers/STM32F3xx_HAL_Driver/Src/stm32f3xx_hal_uart.c ****     (#) For the UART Multiprocessor mode, initialize the UART registers
  60:Drivers/STM32F3xx_HAL_Driver/Src/stm32f3xx_hal_uart.c ****         by calling the HAL_MultiProcessor_Init() API.
  61:Drivers/STM32F3xx_HAL_Driver/Src/stm32f3xx_hal_uart.c **** 
  62:Drivers/STM32F3xx_HAL_Driver/Src/stm32f3xx_hal_uart.c ****     (#) For the UART RS485 Driver Enabled mode, initialize the UART registers
  63:Drivers/STM32F3xx_HAL_Driver/Src/stm32f3xx_hal_uart.c ****         by calling the HAL_RS485Ex_Init() API.
  64:Drivers/STM32F3xx_HAL_Driver/Src/stm32f3xx_hal_uart.c **** 
  65:Drivers/STM32F3xx_HAL_Driver/Src/stm32f3xx_hal_uart.c ****     [..]
  66:Drivers/STM32F3xx_HAL_Driver/Src/stm32f3xx_hal_uart.c ****     (@) These API's (HAL_UART_Init(), HAL_HalfDuplex_Init(), HAL_LIN_Init(), HAL_MultiProcessor_Ini
  67:Drivers/STM32F3xx_HAL_Driver/Src/stm32f3xx_hal_uart.c ****         also configure the low level Hardware GPIO, CLOCK, CORTEX...etc) by
  68:Drivers/STM32F3xx_HAL_Driver/Src/stm32f3xx_hal_uart.c ****         calling the customized HAL_UART_MspInit() API.
  69:Drivers/STM32F3xx_HAL_Driver/Src/stm32f3xx_hal_uart.c **** 
  70:Drivers/STM32F3xx_HAL_Driver/Src/stm32f3xx_hal_uart.c ****     ##### Callback registration #####
  71:Drivers/STM32F3xx_HAL_Driver/Src/stm32f3xx_hal_uart.c ****     ==================================
  72:Drivers/STM32F3xx_HAL_Driver/Src/stm32f3xx_hal_uart.c **** 
  73:Drivers/STM32F3xx_HAL_Driver/Src/stm32f3xx_hal_uart.c ****     [..]
  74:Drivers/STM32F3xx_HAL_Driver/Src/stm32f3xx_hal_uart.c ****     The compilation define USE_HAL_UART_REGISTER_CALLBACKS when set to 1
  75:Drivers/STM32F3xx_HAL_Driver/Src/stm32f3xx_hal_uart.c ****     allows the user to configure dynamically the driver callbacks.
  76:Drivers/STM32F3xx_HAL_Driver/Src/stm32f3xx_hal_uart.c **** 
  77:Drivers/STM32F3xx_HAL_Driver/Src/stm32f3xx_hal_uart.c ****     [..]
  78:Drivers/STM32F3xx_HAL_Driver/Src/stm32f3xx_hal_uart.c ****     Use Function @ref HAL_UART_RegisterCallback() to register a user callback.
  79:Drivers/STM32F3xx_HAL_Driver/Src/stm32f3xx_hal_uart.c ****     Function @ref HAL_UART_RegisterCallback() allows to register following callbacks:
  80:Drivers/STM32F3xx_HAL_Driver/Src/stm32f3xx_hal_uart.c ****     (+) TxHalfCpltCallback        : Tx Half Complete Callback.
  81:Drivers/STM32F3xx_HAL_Driver/Src/stm32f3xx_hal_uart.c ****     (+) TxCpltCallback            : Tx Complete Callback.
  82:Drivers/STM32F3xx_HAL_Driver/Src/stm32f3xx_hal_uart.c ****     (+) RxHalfCpltCallback        : Rx Half Complete Callback.
  83:Drivers/STM32F3xx_HAL_Driver/Src/stm32f3xx_hal_uart.c ****     (+) RxCpltCallback            : Rx Complete Callback.
  84:Drivers/STM32F3xx_HAL_Driver/Src/stm32f3xx_hal_uart.c ****     (+) ErrorCallback             : Error Callback.
  85:Drivers/STM32F3xx_HAL_Driver/Src/stm32f3xx_hal_uart.c ****     (+) AbortCpltCallback         : Abort Complete Callback.
  86:Drivers/STM32F3xx_HAL_Driver/Src/stm32f3xx_hal_uart.c ****     (+) AbortTransmitCpltCallback : Abort Transmit Complete Callback.
  87:Drivers/STM32F3xx_HAL_Driver/Src/stm32f3xx_hal_uart.c ****     (+) AbortReceiveCpltCallback  : Abort Receive Complete Callback.
  88:Drivers/STM32F3xx_HAL_Driver/Src/stm32f3xx_hal_uart.c ****     (+) WakeupCallback            : Wakeup Callback.
ARM GAS  /tmp/ccfCzef7.s 			page 3


  89:Drivers/STM32F3xx_HAL_Driver/Src/stm32f3xx_hal_uart.c ****     (+) RxFifoFullCallback        : Rx Fifo Full Callback.
  90:Drivers/STM32F3xx_HAL_Driver/Src/stm32f3xx_hal_uart.c ****     (+) TxFifoEmptyCallback       : Tx Fifo Empty Callback.
  91:Drivers/STM32F3xx_HAL_Driver/Src/stm32f3xx_hal_uart.c ****     (+) MspInitCallback           : UART MspInit.
  92:Drivers/STM32F3xx_HAL_Driver/Src/stm32f3xx_hal_uart.c ****     (+) MspDeInitCallback         : UART MspDeInit.
  93:Drivers/STM32F3xx_HAL_Driver/Src/stm32f3xx_hal_uart.c ****     This function takes as parameters the HAL peripheral handle, the Callback ID
  94:Drivers/STM32F3xx_HAL_Driver/Src/stm32f3xx_hal_uart.c ****     and a pointer to the user callback function.
  95:Drivers/STM32F3xx_HAL_Driver/Src/stm32f3xx_hal_uart.c **** 
  96:Drivers/STM32F3xx_HAL_Driver/Src/stm32f3xx_hal_uart.c ****     [..]
  97:Drivers/STM32F3xx_HAL_Driver/Src/stm32f3xx_hal_uart.c ****     Use function @ref HAL_UART_UnRegisterCallback() to reset a callback to the default
  98:Drivers/STM32F3xx_HAL_Driver/Src/stm32f3xx_hal_uart.c ****     weak (surcharged) function.
  99:Drivers/STM32F3xx_HAL_Driver/Src/stm32f3xx_hal_uart.c ****     @ref HAL_UART_UnRegisterCallback() takes as parameters the HAL peripheral handle,
 100:Drivers/STM32F3xx_HAL_Driver/Src/stm32f3xx_hal_uart.c ****     and the Callback ID.
 101:Drivers/STM32F3xx_HAL_Driver/Src/stm32f3xx_hal_uart.c ****     This function allows to reset following callbacks:
 102:Drivers/STM32F3xx_HAL_Driver/Src/stm32f3xx_hal_uart.c ****     (+) TxHalfCpltCallback        : Tx Half Complete Callback.
 103:Drivers/STM32F3xx_HAL_Driver/Src/stm32f3xx_hal_uart.c ****     (+) TxCpltCallback            : Tx Complete Callback.
 104:Drivers/STM32F3xx_HAL_Driver/Src/stm32f3xx_hal_uart.c ****     (+) RxHalfCpltCallback        : Rx Half Complete Callback.
 105:Drivers/STM32F3xx_HAL_Driver/Src/stm32f3xx_hal_uart.c ****     (+) RxCpltCallback            : Rx Complete Callback.
 106:Drivers/STM32F3xx_HAL_Driver/Src/stm32f3xx_hal_uart.c ****     (+) ErrorCallback             : Error Callback.
 107:Drivers/STM32F3xx_HAL_Driver/Src/stm32f3xx_hal_uart.c ****     (+) AbortCpltCallback         : Abort Complete Callback.
 108:Drivers/STM32F3xx_HAL_Driver/Src/stm32f3xx_hal_uart.c ****     (+) AbortTransmitCpltCallback : Abort Transmit Complete Callback.
 109:Drivers/STM32F3xx_HAL_Driver/Src/stm32f3xx_hal_uart.c ****     (+) AbortReceiveCpltCallback  : Abort Receive Complete Callback.
 110:Drivers/STM32F3xx_HAL_Driver/Src/stm32f3xx_hal_uart.c ****     (+) WakeupCallback            : Wakeup Callback.
 111:Drivers/STM32F3xx_HAL_Driver/Src/stm32f3xx_hal_uart.c ****     (+) RxFifoFullCallback        : Rx Fifo Full Callback.
 112:Drivers/STM32F3xx_HAL_Driver/Src/stm32f3xx_hal_uart.c ****     (+) TxFifoEmptyCallback       : Tx Fifo Empty Callback.
 113:Drivers/STM32F3xx_HAL_Driver/Src/stm32f3xx_hal_uart.c ****     (+) MspInitCallback           : UART MspInit.
 114:Drivers/STM32F3xx_HAL_Driver/Src/stm32f3xx_hal_uart.c ****     (+) MspDeInitCallback         : UART MspDeInit.
 115:Drivers/STM32F3xx_HAL_Driver/Src/stm32f3xx_hal_uart.c **** 
 116:Drivers/STM32F3xx_HAL_Driver/Src/stm32f3xx_hal_uart.c ****     [..]
 117:Drivers/STM32F3xx_HAL_Driver/Src/stm32f3xx_hal_uart.c ****     By default, after the @ref HAL_UART_Init() and when the state is HAL_UART_STATE_RESET
 118:Drivers/STM32F3xx_HAL_Driver/Src/stm32f3xx_hal_uart.c ****     all callbacks are set to the corresponding weak (surcharged) functions:
 119:Drivers/STM32F3xx_HAL_Driver/Src/stm32f3xx_hal_uart.c ****     examples @ref HAL_UART_TxCpltCallback(), @ref HAL_UART_RxHalfCpltCallback().
 120:Drivers/STM32F3xx_HAL_Driver/Src/stm32f3xx_hal_uart.c ****     Exception done for MspInit and MspDeInit functions that are respectively
 121:Drivers/STM32F3xx_HAL_Driver/Src/stm32f3xx_hal_uart.c ****     reset to the legacy weak (surcharged) functions in the @ref HAL_UART_Init()
 122:Drivers/STM32F3xx_HAL_Driver/Src/stm32f3xx_hal_uart.c ****     and @ref HAL_UART_DeInit() only when these callbacks are null (not registered beforehand).
 123:Drivers/STM32F3xx_HAL_Driver/Src/stm32f3xx_hal_uart.c ****     If not, MspInit or MspDeInit are not null, the @ref HAL_UART_Init() and @ref HAL_UART_DeInit()
 124:Drivers/STM32F3xx_HAL_Driver/Src/stm32f3xx_hal_uart.c ****     keep and use the user MspInit/MspDeInit callbacks (registered beforehand).
 125:Drivers/STM32F3xx_HAL_Driver/Src/stm32f3xx_hal_uart.c **** 
 126:Drivers/STM32F3xx_HAL_Driver/Src/stm32f3xx_hal_uart.c ****     [..]
 127:Drivers/STM32F3xx_HAL_Driver/Src/stm32f3xx_hal_uart.c ****     Callbacks can be registered/unregistered in HAL_UART_STATE_READY state only.
 128:Drivers/STM32F3xx_HAL_Driver/Src/stm32f3xx_hal_uart.c ****     Exception done MspInit/MspDeInit that can be registered/unregistered
 129:Drivers/STM32F3xx_HAL_Driver/Src/stm32f3xx_hal_uart.c ****     in HAL_UART_STATE_READY or HAL_UART_STATE_RESET state, thus registered (user)
 130:Drivers/STM32F3xx_HAL_Driver/Src/stm32f3xx_hal_uart.c ****     MspInit/DeInit callbacks can be used during the Init/DeInit.
 131:Drivers/STM32F3xx_HAL_Driver/Src/stm32f3xx_hal_uart.c ****     In that case first register the MspInit/MspDeInit user callbacks
 132:Drivers/STM32F3xx_HAL_Driver/Src/stm32f3xx_hal_uart.c ****     using @ref HAL_UART_RegisterCallback() before calling @ref HAL_UART_DeInit()
 133:Drivers/STM32F3xx_HAL_Driver/Src/stm32f3xx_hal_uart.c ****     or @ref HAL_UART_Init() function.
 134:Drivers/STM32F3xx_HAL_Driver/Src/stm32f3xx_hal_uart.c **** 
 135:Drivers/STM32F3xx_HAL_Driver/Src/stm32f3xx_hal_uart.c ****     [..]
 136:Drivers/STM32F3xx_HAL_Driver/Src/stm32f3xx_hal_uart.c ****     When The compilation define USE_HAL_UART_REGISTER_CALLBACKS is set to 0 or
 137:Drivers/STM32F3xx_HAL_Driver/Src/stm32f3xx_hal_uart.c ****     not defined, the callback registration feature is not available
 138:Drivers/STM32F3xx_HAL_Driver/Src/stm32f3xx_hal_uart.c ****     and weak (surcharged) callbacks are used.
 139:Drivers/STM32F3xx_HAL_Driver/Src/stm32f3xx_hal_uart.c **** 
 140:Drivers/STM32F3xx_HAL_Driver/Src/stm32f3xx_hal_uart.c **** 
 141:Drivers/STM32F3xx_HAL_Driver/Src/stm32f3xx_hal_uart.c ****   @endverbatim
 142:Drivers/STM32F3xx_HAL_Driver/Src/stm32f3xx_hal_uart.c ****   ******************************************************************************
 143:Drivers/STM32F3xx_HAL_Driver/Src/stm32f3xx_hal_uart.c ****   * @attention
 144:Drivers/STM32F3xx_HAL_Driver/Src/stm32f3xx_hal_uart.c ****   *
 145:Drivers/STM32F3xx_HAL_Driver/Src/stm32f3xx_hal_uart.c ****   * <h2><center>&copy; Copyright (c) 2016 STMicroelectronics.
ARM GAS  /tmp/ccfCzef7.s 			page 4


 146:Drivers/STM32F3xx_HAL_Driver/Src/stm32f3xx_hal_uart.c ****   * All rights reserved.</center></h2>
 147:Drivers/STM32F3xx_HAL_Driver/Src/stm32f3xx_hal_uart.c ****   *
 148:Drivers/STM32F3xx_HAL_Driver/Src/stm32f3xx_hal_uart.c ****   * This software component is licensed by ST under BSD 3-Clause license,
 149:Drivers/STM32F3xx_HAL_Driver/Src/stm32f3xx_hal_uart.c ****   * the "License"; You may not use this file except in compliance with the
 150:Drivers/STM32F3xx_HAL_Driver/Src/stm32f3xx_hal_uart.c ****   * License. You may obtain a copy of the License at:
 151:Drivers/STM32F3xx_HAL_Driver/Src/stm32f3xx_hal_uart.c ****   *                        opensource.org/licenses/BSD-3-Clause
 152:Drivers/STM32F3xx_HAL_Driver/Src/stm32f3xx_hal_uart.c ****   *
 153:Drivers/STM32F3xx_HAL_Driver/Src/stm32f3xx_hal_uart.c ****   ******************************************************************************
 154:Drivers/STM32F3xx_HAL_Driver/Src/stm32f3xx_hal_uart.c ****   */
 155:Drivers/STM32F3xx_HAL_Driver/Src/stm32f3xx_hal_uart.c **** 
 156:Drivers/STM32F3xx_HAL_Driver/Src/stm32f3xx_hal_uart.c **** /* Includes ------------------------------------------------------------------*/
 157:Drivers/STM32F3xx_HAL_Driver/Src/stm32f3xx_hal_uart.c **** #include "stm32f3xx_hal.h"
 158:Drivers/STM32F3xx_HAL_Driver/Src/stm32f3xx_hal_uart.c **** 
 159:Drivers/STM32F3xx_HAL_Driver/Src/stm32f3xx_hal_uart.c **** /** @addtogroup STM32F3xx_HAL_Driver
 160:Drivers/STM32F3xx_HAL_Driver/Src/stm32f3xx_hal_uart.c ****   * @{
 161:Drivers/STM32F3xx_HAL_Driver/Src/stm32f3xx_hal_uart.c ****   */
 162:Drivers/STM32F3xx_HAL_Driver/Src/stm32f3xx_hal_uart.c **** 
 163:Drivers/STM32F3xx_HAL_Driver/Src/stm32f3xx_hal_uart.c **** /** @defgroup UART UART
 164:Drivers/STM32F3xx_HAL_Driver/Src/stm32f3xx_hal_uart.c ****   * @brief HAL UART module driver
 165:Drivers/STM32F3xx_HAL_Driver/Src/stm32f3xx_hal_uart.c ****   * @{
 166:Drivers/STM32F3xx_HAL_Driver/Src/stm32f3xx_hal_uart.c ****   */
 167:Drivers/STM32F3xx_HAL_Driver/Src/stm32f3xx_hal_uart.c **** 
 168:Drivers/STM32F3xx_HAL_Driver/Src/stm32f3xx_hal_uart.c **** #ifdef HAL_UART_MODULE_ENABLED
 169:Drivers/STM32F3xx_HAL_Driver/Src/stm32f3xx_hal_uart.c **** 
 170:Drivers/STM32F3xx_HAL_Driver/Src/stm32f3xx_hal_uart.c **** /* Private typedef -----------------------------------------------------------*/
 171:Drivers/STM32F3xx_HAL_Driver/Src/stm32f3xx_hal_uart.c **** /* Private define ------------------------------------------------------------*/
 172:Drivers/STM32F3xx_HAL_Driver/Src/stm32f3xx_hal_uart.c **** /** @defgroup UART_Private_Constants UART Private Constants
 173:Drivers/STM32F3xx_HAL_Driver/Src/stm32f3xx_hal_uart.c ****   * @{
 174:Drivers/STM32F3xx_HAL_Driver/Src/stm32f3xx_hal_uart.c ****   */
 175:Drivers/STM32F3xx_HAL_Driver/Src/stm32f3xx_hal_uart.c **** #define USART_CR1_FIELDS  ((uint32_t)(USART_CR1_M | USART_CR1_PCE | USART_CR1_PS | \
 176:Drivers/STM32F3xx_HAL_Driver/Src/stm32f3xx_hal_uart.c ****                                       USART_CR1_TE | USART_CR1_RE | USART_CR1_OVER8 )) /*!< UART or
 177:Drivers/STM32F3xx_HAL_Driver/Src/stm32f3xx_hal_uart.c **** 
 178:Drivers/STM32F3xx_HAL_Driver/Src/stm32f3xx_hal_uart.c **** #define USART_CR3_FIELDS  ((uint32_t)(USART_CR3_RTSE | USART_CR3_CTSE | USART_CR3_ONEBIT))  /*!< UA
 179:Drivers/STM32F3xx_HAL_Driver/Src/stm32f3xx_hal_uart.c **** 
 180:Drivers/STM32F3xx_HAL_Driver/Src/stm32f3xx_hal_uart.c **** 
 181:Drivers/STM32F3xx_HAL_Driver/Src/stm32f3xx_hal_uart.c **** #define UART_BRR_MIN    0x10U        /* UART BRR minimum authorized value */
 182:Drivers/STM32F3xx_HAL_Driver/Src/stm32f3xx_hal_uart.c **** #define UART_BRR_MAX    0x0000FFFFU  /* UART BRR maximum authorized value */
 183:Drivers/STM32F3xx_HAL_Driver/Src/stm32f3xx_hal_uart.c **** 
 184:Drivers/STM32F3xx_HAL_Driver/Src/stm32f3xx_hal_uart.c **** /**
 185:Drivers/STM32F3xx_HAL_Driver/Src/stm32f3xx_hal_uart.c ****   * @}
 186:Drivers/STM32F3xx_HAL_Driver/Src/stm32f3xx_hal_uart.c ****   */
 187:Drivers/STM32F3xx_HAL_Driver/Src/stm32f3xx_hal_uart.c **** 
 188:Drivers/STM32F3xx_HAL_Driver/Src/stm32f3xx_hal_uart.c **** /* Private macros ------------------------------------------------------------*/
 189:Drivers/STM32F3xx_HAL_Driver/Src/stm32f3xx_hal_uart.c **** /* Private variables ---------------------------------------------------------*/
 190:Drivers/STM32F3xx_HAL_Driver/Src/stm32f3xx_hal_uart.c **** /* Private function prototypes -----------------------------------------------*/
 191:Drivers/STM32F3xx_HAL_Driver/Src/stm32f3xx_hal_uart.c **** /** @addtogroup UART_Private_Functions
 192:Drivers/STM32F3xx_HAL_Driver/Src/stm32f3xx_hal_uart.c ****   * @{
 193:Drivers/STM32F3xx_HAL_Driver/Src/stm32f3xx_hal_uart.c ****   */
 194:Drivers/STM32F3xx_HAL_Driver/Src/stm32f3xx_hal_uart.c **** static void UART_EndTxTransfer(UART_HandleTypeDef *huart);
 195:Drivers/STM32F3xx_HAL_Driver/Src/stm32f3xx_hal_uart.c **** static void UART_EndRxTransfer(UART_HandleTypeDef *huart);
 196:Drivers/STM32F3xx_HAL_Driver/Src/stm32f3xx_hal_uart.c **** static void UART_DMATransmitCplt(DMA_HandleTypeDef *hdma);
 197:Drivers/STM32F3xx_HAL_Driver/Src/stm32f3xx_hal_uart.c **** static void UART_DMAReceiveCplt(DMA_HandleTypeDef *hdma);
 198:Drivers/STM32F3xx_HAL_Driver/Src/stm32f3xx_hal_uart.c **** static void UART_DMARxHalfCplt(DMA_HandleTypeDef *hdma);
 199:Drivers/STM32F3xx_HAL_Driver/Src/stm32f3xx_hal_uart.c **** static void UART_DMATxHalfCplt(DMA_HandleTypeDef *hdma);
 200:Drivers/STM32F3xx_HAL_Driver/Src/stm32f3xx_hal_uart.c **** static void UART_DMAError(DMA_HandleTypeDef *hdma);
 201:Drivers/STM32F3xx_HAL_Driver/Src/stm32f3xx_hal_uart.c **** static void UART_DMAAbortOnError(DMA_HandleTypeDef *hdma);
 202:Drivers/STM32F3xx_HAL_Driver/Src/stm32f3xx_hal_uart.c **** static void UART_DMATxAbortCallback(DMA_HandleTypeDef *hdma);
ARM GAS  /tmp/ccfCzef7.s 			page 5


 203:Drivers/STM32F3xx_HAL_Driver/Src/stm32f3xx_hal_uart.c **** static void UART_DMARxAbortCallback(DMA_HandleTypeDef *hdma);
 204:Drivers/STM32F3xx_HAL_Driver/Src/stm32f3xx_hal_uart.c **** static void UART_DMATxOnlyAbortCallback(DMA_HandleTypeDef *hdma);
 205:Drivers/STM32F3xx_HAL_Driver/Src/stm32f3xx_hal_uart.c **** static void UART_DMARxOnlyAbortCallback(DMA_HandleTypeDef *hdma);
 206:Drivers/STM32F3xx_HAL_Driver/Src/stm32f3xx_hal_uart.c **** static void UART_TxISR_8BIT(UART_HandleTypeDef *huart);
 207:Drivers/STM32F3xx_HAL_Driver/Src/stm32f3xx_hal_uart.c **** static void UART_TxISR_16BIT(UART_HandleTypeDef *huart);
 208:Drivers/STM32F3xx_HAL_Driver/Src/stm32f3xx_hal_uart.c **** static void UART_EndTransmit_IT(UART_HandleTypeDef *huart);
 209:Drivers/STM32F3xx_HAL_Driver/Src/stm32f3xx_hal_uart.c **** static void UART_RxISR_8BIT(UART_HandleTypeDef *huart);
 210:Drivers/STM32F3xx_HAL_Driver/Src/stm32f3xx_hal_uart.c **** static void UART_RxISR_16BIT(UART_HandleTypeDef *huart);
 211:Drivers/STM32F3xx_HAL_Driver/Src/stm32f3xx_hal_uart.c **** /**
 212:Drivers/STM32F3xx_HAL_Driver/Src/stm32f3xx_hal_uart.c ****   * @}
 213:Drivers/STM32F3xx_HAL_Driver/Src/stm32f3xx_hal_uart.c ****   */
 214:Drivers/STM32F3xx_HAL_Driver/Src/stm32f3xx_hal_uart.c **** 
 215:Drivers/STM32F3xx_HAL_Driver/Src/stm32f3xx_hal_uart.c **** /* Exported functions --------------------------------------------------------*/
 216:Drivers/STM32F3xx_HAL_Driver/Src/stm32f3xx_hal_uart.c **** 
 217:Drivers/STM32F3xx_HAL_Driver/Src/stm32f3xx_hal_uart.c **** /** @defgroup UART_Exported_Functions UART Exported Functions
 218:Drivers/STM32F3xx_HAL_Driver/Src/stm32f3xx_hal_uart.c ****   * @{
 219:Drivers/STM32F3xx_HAL_Driver/Src/stm32f3xx_hal_uart.c ****   */
 220:Drivers/STM32F3xx_HAL_Driver/Src/stm32f3xx_hal_uart.c **** 
 221:Drivers/STM32F3xx_HAL_Driver/Src/stm32f3xx_hal_uart.c **** /** @defgroup UART_Exported_Functions_Group1 Initialization and de-initialization functions
 222:Drivers/STM32F3xx_HAL_Driver/Src/stm32f3xx_hal_uart.c ****   *  @brief    Initialization and Configuration functions
 223:Drivers/STM32F3xx_HAL_Driver/Src/stm32f3xx_hal_uart.c ****   *
 224:Drivers/STM32F3xx_HAL_Driver/Src/stm32f3xx_hal_uart.c **** @verbatim
 225:Drivers/STM32F3xx_HAL_Driver/Src/stm32f3xx_hal_uart.c **** ===============================================================================
 226:Drivers/STM32F3xx_HAL_Driver/Src/stm32f3xx_hal_uart.c ****             ##### Initialization and Configuration functions #####
 227:Drivers/STM32F3xx_HAL_Driver/Src/stm32f3xx_hal_uart.c ****  ===============================================================================
 228:Drivers/STM32F3xx_HAL_Driver/Src/stm32f3xx_hal_uart.c ****     [..]
 229:Drivers/STM32F3xx_HAL_Driver/Src/stm32f3xx_hal_uart.c ****     This subsection provides a set of functions allowing to initialize the USARTx or the UARTy
 230:Drivers/STM32F3xx_HAL_Driver/Src/stm32f3xx_hal_uart.c ****     in asynchronous mode.
 231:Drivers/STM32F3xx_HAL_Driver/Src/stm32f3xx_hal_uart.c ****       (+) For the asynchronous mode the parameters below can be configured:
 232:Drivers/STM32F3xx_HAL_Driver/Src/stm32f3xx_hal_uart.c ****         (++) Baud Rate
 233:Drivers/STM32F3xx_HAL_Driver/Src/stm32f3xx_hal_uart.c ****         (++) Word Length
 234:Drivers/STM32F3xx_HAL_Driver/Src/stm32f3xx_hal_uart.c ****         (++) Stop Bit
 235:Drivers/STM32F3xx_HAL_Driver/Src/stm32f3xx_hal_uart.c ****         (++) Parity: If the parity is enabled, then the MSB bit of the data written
 236:Drivers/STM32F3xx_HAL_Driver/Src/stm32f3xx_hal_uart.c ****              in the data register is transmitted but is changed by the parity bit.
 237:Drivers/STM32F3xx_HAL_Driver/Src/stm32f3xx_hal_uart.c ****         (++) Hardware flow control
 238:Drivers/STM32F3xx_HAL_Driver/Src/stm32f3xx_hal_uart.c ****         (++) Receiver/transmitter modes
 239:Drivers/STM32F3xx_HAL_Driver/Src/stm32f3xx_hal_uart.c ****         (++) Over Sampling Method
 240:Drivers/STM32F3xx_HAL_Driver/Src/stm32f3xx_hal_uart.c ****         (++) One-Bit Sampling Method
 241:Drivers/STM32F3xx_HAL_Driver/Src/stm32f3xx_hal_uart.c ****       (+) For the asynchronous mode, the following advanced features can be configured as well:
 242:Drivers/STM32F3xx_HAL_Driver/Src/stm32f3xx_hal_uart.c ****         (++) TX and/or RX pin level inversion
 243:Drivers/STM32F3xx_HAL_Driver/Src/stm32f3xx_hal_uart.c ****         (++) data logical level inversion
 244:Drivers/STM32F3xx_HAL_Driver/Src/stm32f3xx_hal_uart.c ****         (++) RX and TX pins swap
 245:Drivers/STM32F3xx_HAL_Driver/Src/stm32f3xx_hal_uart.c ****         (++) RX overrun detection disabling
 246:Drivers/STM32F3xx_HAL_Driver/Src/stm32f3xx_hal_uart.c ****         (++) DMA disabling on RX error
 247:Drivers/STM32F3xx_HAL_Driver/Src/stm32f3xx_hal_uart.c ****         (++) MSB first on communication line
 248:Drivers/STM32F3xx_HAL_Driver/Src/stm32f3xx_hal_uart.c ****         (++) auto Baud rate detection
 249:Drivers/STM32F3xx_HAL_Driver/Src/stm32f3xx_hal_uart.c ****     [..]
 250:Drivers/STM32F3xx_HAL_Driver/Src/stm32f3xx_hal_uart.c ****     The HAL_UART_Init(), HAL_HalfDuplex_Init(), HAL_LIN_Init()and HAL_MultiProcessor_Init()API
 251:Drivers/STM32F3xx_HAL_Driver/Src/stm32f3xx_hal_uart.c ****     follow respectively the UART asynchronous, UART Half duplex, UART LIN mode
 252:Drivers/STM32F3xx_HAL_Driver/Src/stm32f3xx_hal_uart.c ****     and UART multiprocessor mode configuration procedures (details for the procedures
 253:Drivers/STM32F3xx_HAL_Driver/Src/stm32f3xx_hal_uart.c ****     are available in reference manual).
 254:Drivers/STM32F3xx_HAL_Driver/Src/stm32f3xx_hal_uart.c **** 
 255:Drivers/STM32F3xx_HAL_Driver/Src/stm32f3xx_hal_uart.c **** @endverbatim
 256:Drivers/STM32F3xx_HAL_Driver/Src/stm32f3xx_hal_uart.c **** 
 257:Drivers/STM32F3xx_HAL_Driver/Src/stm32f3xx_hal_uart.c ****   Depending on the frame length defined by the M1 and M0 bits (7-bit,
 258:Drivers/STM32F3xx_HAL_Driver/Src/stm32f3xx_hal_uart.c ****   8-bit or 9-bit), the possible UART formats are listed in the
 259:Drivers/STM32F3xx_HAL_Driver/Src/stm32f3xx_hal_uart.c ****   following table.
ARM GAS  /tmp/ccfCzef7.s 			page 6


 260:Drivers/STM32F3xx_HAL_Driver/Src/stm32f3xx_hal_uart.c **** 
 261:Drivers/STM32F3xx_HAL_Driver/Src/stm32f3xx_hal_uart.c ****   Table 1. UART frame format.
 262:Drivers/STM32F3xx_HAL_Driver/Src/stm32f3xx_hal_uart.c ****     +-----------------------------------------------------------------------+
 263:Drivers/STM32F3xx_HAL_Driver/Src/stm32f3xx_hal_uart.c ****     |  M1 bit |  M0 bit |  PCE bit  |             UART frame                |
 264:Drivers/STM32F3xx_HAL_Driver/Src/stm32f3xx_hal_uart.c ****     |---------|---------|-----------|---------------------------------------|
 265:Drivers/STM32F3xx_HAL_Driver/Src/stm32f3xx_hal_uart.c ****     |    0    |    0    |    0      |    | SB |    8 bit data   | STB |     |
 266:Drivers/STM32F3xx_HAL_Driver/Src/stm32f3xx_hal_uart.c ****     |---------|---------|-----------|---------------------------------------|
 267:Drivers/STM32F3xx_HAL_Driver/Src/stm32f3xx_hal_uart.c ****     |    0    |    0    |    1      |    | SB | 7 bit data | PB | STB |     |
 268:Drivers/STM32F3xx_HAL_Driver/Src/stm32f3xx_hal_uart.c ****     |---------|---------|-----------|---------------------------------------|
 269:Drivers/STM32F3xx_HAL_Driver/Src/stm32f3xx_hal_uart.c ****     |    0    |    1    |    0      |    | SB |    9 bit data   | STB |     |
 270:Drivers/STM32F3xx_HAL_Driver/Src/stm32f3xx_hal_uart.c ****     |---------|---------|-----------|---------------------------------------|
 271:Drivers/STM32F3xx_HAL_Driver/Src/stm32f3xx_hal_uart.c ****     |    0    |    1    |    1      |    | SB | 8 bit data | PB | STB |     |
 272:Drivers/STM32F3xx_HAL_Driver/Src/stm32f3xx_hal_uart.c ****     |---------|---------|-----------|---------------------------------------|
 273:Drivers/STM32F3xx_HAL_Driver/Src/stm32f3xx_hal_uart.c ****     |    1    |    0    |    0      |    | SB |    7 bit data   | STB |     |
 274:Drivers/STM32F3xx_HAL_Driver/Src/stm32f3xx_hal_uart.c ****     |---------|---------|-----------|---------------------------------------|
 275:Drivers/STM32F3xx_HAL_Driver/Src/stm32f3xx_hal_uart.c ****     |    1    |    0    |    1      |    | SB | 6 bit data | PB | STB |     |
 276:Drivers/STM32F3xx_HAL_Driver/Src/stm32f3xx_hal_uart.c ****     +-----------------------------------------------------------------------+
 277:Drivers/STM32F3xx_HAL_Driver/Src/stm32f3xx_hal_uart.c **** 
 278:Drivers/STM32F3xx_HAL_Driver/Src/stm32f3xx_hal_uart.c ****   * @{
 279:Drivers/STM32F3xx_HAL_Driver/Src/stm32f3xx_hal_uart.c ****   */
 280:Drivers/STM32F3xx_HAL_Driver/Src/stm32f3xx_hal_uart.c **** 
 281:Drivers/STM32F3xx_HAL_Driver/Src/stm32f3xx_hal_uart.c **** /**
 282:Drivers/STM32F3xx_HAL_Driver/Src/stm32f3xx_hal_uart.c ****   * @brief Initialize the UART mode according to the specified
 283:Drivers/STM32F3xx_HAL_Driver/Src/stm32f3xx_hal_uart.c ****   *        parameters in the UART_InitTypeDef and initialize the associated handle.
 284:Drivers/STM32F3xx_HAL_Driver/Src/stm32f3xx_hal_uart.c ****   * @param huart UART handle.
 285:Drivers/STM32F3xx_HAL_Driver/Src/stm32f3xx_hal_uart.c ****   * @retval HAL status
 286:Drivers/STM32F3xx_HAL_Driver/Src/stm32f3xx_hal_uart.c ****   */
 287:Drivers/STM32F3xx_HAL_Driver/Src/stm32f3xx_hal_uart.c **** HAL_StatusTypeDef HAL_UART_Init(UART_HandleTypeDef *huart)
 288:Drivers/STM32F3xx_HAL_Driver/Src/stm32f3xx_hal_uart.c **** {
  28              		.loc 1 288 0
  29              		.cfi_startproc
  30              		@ args = 0, pretend = 0, frame = 8
  31              		@ frame_needed = 1, uses_anonymous_args = 0
  32 0000 80B5     		push	{r7, lr}
  33              	.LCFI0:
  34              		.cfi_def_cfa_offset 8
  35              		.cfi_offset 7, -8
  36              		.cfi_offset 14, -4
  37 0002 82B0     		sub	sp, sp, #8
  38              	.LCFI1:
  39              		.cfi_def_cfa_offset 16
  40 0004 00AF     		add	r7, sp, #0
  41              	.LCFI2:
  42              		.cfi_def_cfa_register 7
  43 0006 7860     		str	r0, [r7, #4]
 289:Drivers/STM32F3xx_HAL_Driver/Src/stm32f3xx_hal_uart.c ****   /* Check the UART handle allocation */
 290:Drivers/STM32F3xx_HAL_Driver/Src/stm32f3xx_hal_uart.c ****   if (huart == NULL)
  44              		.loc 1 290 0
  45 0008 7B68     		ldr	r3, [r7, #4]
  46 000a 002B     		cmp	r3, #0
  47 000c 01D1     		bne	.L2
 291:Drivers/STM32F3xx_HAL_Driver/Src/stm32f3xx_hal_uart.c ****   {
 292:Drivers/STM32F3xx_HAL_Driver/Src/stm32f3xx_hal_uart.c ****     return HAL_ERROR;
  48              		.loc 1 292 0
  49 000e 0123     		movs	r3, #1
  50 0010 40E0     		b	.L3
  51              	.L2:
ARM GAS  /tmp/ccfCzef7.s 			page 7


 293:Drivers/STM32F3xx_HAL_Driver/Src/stm32f3xx_hal_uart.c ****   }
 294:Drivers/STM32F3xx_HAL_Driver/Src/stm32f3xx_hal_uart.c **** 
 295:Drivers/STM32F3xx_HAL_Driver/Src/stm32f3xx_hal_uart.c ****   if (huart->Init.HwFlowCtl != UART_HWCONTROL_NONE)
 296:Drivers/STM32F3xx_HAL_Driver/Src/stm32f3xx_hal_uart.c ****   {
 297:Drivers/STM32F3xx_HAL_Driver/Src/stm32f3xx_hal_uart.c ****     /* Check the parameters */
 298:Drivers/STM32F3xx_HAL_Driver/Src/stm32f3xx_hal_uart.c ****     assert_param(IS_UART_HWFLOW_INSTANCE(huart->Instance));
 299:Drivers/STM32F3xx_HAL_Driver/Src/stm32f3xx_hal_uart.c ****   }
 300:Drivers/STM32F3xx_HAL_Driver/Src/stm32f3xx_hal_uart.c ****   else
 301:Drivers/STM32F3xx_HAL_Driver/Src/stm32f3xx_hal_uart.c ****   {
 302:Drivers/STM32F3xx_HAL_Driver/Src/stm32f3xx_hal_uart.c ****     /* Check the parameters */
 303:Drivers/STM32F3xx_HAL_Driver/Src/stm32f3xx_hal_uart.c ****     assert_param(IS_UART_INSTANCE(huart->Instance));
 304:Drivers/STM32F3xx_HAL_Driver/Src/stm32f3xx_hal_uart.c ****   }
 305:Drivers/STM32F3xx_HAL_Driver/Src/stm32f3xx_hal_uart.c **** 
 306:Drivers/STM32F3xx_HAL_Driver/Src/stm32f3xx_hal_uart.c ****   if (huart->gState == HAL_UART_STATE_RESET)
  52              		.loc 1 306 0
  53 0012 7B68     		ldr	r3, [r7, #4]
  54 0014 5B6F     		ldr	r3, [r3, #116]
  55 0016 002B     		cmp	r3, #0
  56 0018 06D1     		bne	.L4
 307:Drivers/STM32F3xx_HAL_Driver/Src/stm32f3xx_hal_uart.c ****   {
 308:Drivers/STM32F3xx_HAL_Driver/Src/stm32f3xx_hal_uart.c ****     /* Allocate lock resource and initialize it */
 309:Drivers/STM32F3xx_HAL_Driver/Src/stm32f3xx_hal_uart.c ****     huart->Lock = HAL_UNLOCKED;
  57              		.loc 1 309 0
  58 001a 7B68     		ldr	r3, [r7, #4]
  59 001c 0022     		movs	r2, #0
  60 001e 83F87020 		strb	r2, [r3, #112]
 310:Drivers/STM32F3xx_HAL_Driver/Src/stm32f3xx_hal_uart.c **** 
 311:Drivers/STM32F3xx_HAL_Driver/Src/stm32f3xx_hal_uart.c **** #if (USE_HAL_UART_REGISTER_CALLBACKS == 1)
 312:Drivers/STM32F3xx_HAL_Driver/Src/stm32f3xx_hal_uart.c ****     UART_InitCallbacksToDefault(huart);
 313:Drivers/STM32F3xx_HAL_Driver/Src/stm32f3xx_hal_uart.c **** 
 314:Drivers/STM32F3xx_HAL_Driver/Src/stm32f3xx_hal_uart.c ****     if (huart->MspInitCallback == NULL)
 315:Drivers/STM32F3xx_HAL_Driver/Src/stm32f3xx_hal_uart.c ****     {
 316:Drivers/STM32F3xx_HAL_Driver/Src/stm32f3xx_hal_uart.c ****       huart->MspInitCallback = HAL_UART_MspInit;
 317:Drivers/STM32F3xx_HAL_Driver/Src/stm32f3xx_hal_uart.c ****     }
 318:Drivers/STM32F3xx_HAL_Driver/Src/stm32f3xx_hal_uart.c **** 
 319:Drivers/STM32F3xx_HAL_Driver/Src/stm32f3xx_hal_uart.c ****     /* Init the low level hardware */
 320:Drivers/STM32F3xx_HAL_Driver/Src/stm32f3xx_hal_uart.c ****     huart->MspInitCallback(huart);
 321:Drivers/STM32F3xx_HAL_Driver/Src/stm32f3xx_hal_uart.c **** #else
 322:Drivers/STM32F3xx_HAL_Driver/Src/stm32f3xx_hal_uart.c ****     /* Init the low level hardware : GPIO, CLOCK */
 323:Drivers/STM32F3xx_HAL_Driver/Src/stm32f3xx_hal_uart.c ****     HAL_UART_MspInit(huart);
  61              		.loc 1 323 0
  62 0022 7868     		ldr	r0, [r7, #4]
  63 0024 FFF7FEFF 		bl	HAL_UART_MspInit
  64              	.L4:
 324:Drivers/STM32F3xx_HAL_Driver/Src/stm32f3xx_hal_uart.c **** #endif /* (USE_HAL_UART_REGISTER_CALLBACKS) */
 325:Drivers/STM32F3xx_HAL_Driver/Src/stm32f3xx_hal_uart.c ****   }
 326:Drivers/STM32F3xx_HAL_Driver/Src/stm32f3xx_hal_uart.c **** 
 327:Drivers/STM32F3xx_HAL_Driver/Src/stm32f3xx_hal_uart.c ****   huart->gState = HAL_UART_STATE_BUSY;
  65              		.loc 1 327 0
  66 0028 7B68     		ldr	r3, [r7, #4]
  67 002a 2422     		movs	r2, #36
  68 002c 5A67     		str	r2, [r3, #116]
 328:Drivers/STM32F3xx_HAL_Driver/Src/stm32f3xx_hal_uart.c **** 
 329:Drivers/STM32F3xx_HAL_Driver/Src/stm32f3xx_hal_uart.c ****   __HAL_UART_DISABLE(huart);
  69              		.loc 1 329 0
  70 002e 7B68     		ldr	r3, [r7, #4]
  71 0030 1B68     		ldr	r3, [r3]
ARM GAS  /tmp/ccfCzef7.s 			page 8


  72 0032 1A68     		ldr	r2, [r3]
  73 0034 7B68     		ldr	r3, [r7, #4]
  74 0036 1B68     		ldr	r3, [r3]
  75 0038 22F00102 		bic	r2, r2, #1
  76 003c 1A60     		str	r2, [r3]
 330:Drivers/STM32F3xx_HAL_Driver/Src/stm32f3xx_hal_uart.c **** 
 331:Drivers/STM32F3xx_HAL_Driver/Src/stm32f3xx_hal_uart.c ****   /* Set the UART Communication parameters */
 332:Drivers/STM32F3xx_HAL_Driver/Src/stm32f3xx_hal_uart.c ****   if (UART_SetConfig(huart) == HAL_ERROR)
  77              		.loc 1 332 0
  78 003e 7868     		ldr	r0, [r7, #4]
  79 0040 FFF7FEFF 		bl	UART_SetConfig
  80 0044 0346     		mov	r3, r0
  81 0046 012B     		cmp	r3, #1
  82 0048 01D1     		bne	.L5
 333:Drivers/STM32F3xx_HAL_Driver/Src/stm32f3xx_hal_uart.c ****   {
 334:Drivers/STM32F3xx_HAL_Driver/Src/stm32f3xx_hal_uart.c ****     return HAL_ERROR;
  83              		.loc 1 334 0
  84 004a 0123     		movs	r3, #1
  85 004c 22E0     		b	.L3
  86              	.L5:
 335:Drivers/STM32F3xx_HAL_Driver/Src/stm32f3xx_hal_uart.c ****   }
 336:Drivers/STM32F3xx_HAL_Driver/Src/stm32f3xx_hal_uart.c **** 
 337:Drivers/STM32F3xx_HAL_Driver/Src/stm32f3xx_hal_uart.c ****   if (huart->AdvancedInit.AdvFeatureInit != UART_ADVFEATURE_NO_INIT)
  87              		.loc 1 337 0
  88 004e 7B68     		ldr	r3, [r7, #4]
  89 0050 5B6A     		ldr	r3, [r3, #36]
  90 0052 002B     		cmp	r3, #0
  91 0054 02D0     		beq	.L6
 338:Drivers/STM32F3xx_HAL_Driver/Src/stm32f3xx_hal_uart.c ****   {
 339:Drivers/STM32F3xx_HAL_Driver/Src/stm32f3xx_hal_uart.c ****     UART_AdvFeatureConfig(huart);
  92              		.loc 1 339 0
  93 0056 7868     		ldr	r0, [r7, #4]
  94 0058 FFF7FEFF 		bl	UART_AdvFeatureConfig
  95              	.L6:
 340:Drivers/STM32F3xx_HAL_Driver/Src/stm32f3xx_hal_uart.c ****   }
 341:Drivers/STM32F3xx_HAL_Driver/Src/stm32f3xx_hal_uart.c **** 
 342:Drivers/STM32F3xx_HAL_Driver/Src/stm32f3xx_hal_uart.c ****   /* In asynchronous mode, the following bits must be kept cleared:
 343:Drivers/STM32F3xx_HAL_Driver/Src/stm32f3xx_hal_uart.c ****   - LINEN and CLKEN bits in the USART_CR2 register,
 344:Drivers/STM32F3xx_HAL_Driver/Src/stm32f3xx_hal_uart.c ****   - SCEN, HDSEL and IREN  bits in the USART_CR3 register.*/
 345:Drivers/STM32F3xx_HAL_Driver/Src/stm32f3xx_hal_uart.c ****   CLEAR_BIT(huart->Instance->CR2, (USART_CR2_LINEN | USART_CR2_CLKEN));
  96              		.loc 1 345 0
  97 005c 7B68     		ldr	r3, [r7, #4]
  98 005e 1B68     		ldr	r3, [r3]
  99 0060 5A68     		ldr	r2, [r3, #4]
 100 0062 7B68     		ldr	r3, [r7, #4]
 101 0064 1B68     		ldr	r3, [r3]
 102 0066 22F49042 		bic	r2, r2, #18432
 103 006a 5A60     		str	r2, [r3, #4]
 346:Drivers/STM32F3xx_HAL_Driver/Src/stm32f3xx_hal_uart.c ****   CLEAR_BIT(huart->Instance->CR3, (USART_CR3_SCEN | USART_CR3_HDSEL | USART_CR3_IREN));
 104              		.loc 1 346 0
 105 006c 7B68     		ldr	r3, [r7, #4]
 106 006e 1B68     		ldr	r3, [r3]
 107 0070 9A68     		ldr	r2, [r3, #8]
 108 0072 7B68     		ldr	r3, [r7, #4]
 109 0074 1B68     		ldr	r3, [r3]
 110 0076 22F02A02 		bic	r2, r2, #42
 111 007a 9A60     		str	r2, [r3, #8]
ARM GAS  /tmp/ccfCzef7.s 			page 9


 347:Drivers/STM32F3xx_HAL_Driver/Src/stm32f3xx_hal_uart.c **** 
 348:Drivers/STM32F3xx_HAL_Driver/Src/stm32f3xx_hal_uart.c ****   __HAL_UART_ENABLE(huart);
 112              		.loc 1 348 0
 113 007c 7B68     		ldr	r3, [r7, #4]
 114 007e 1B68     		ldr	r3, [r3]
 115 0080 1A68     		ldr	r2, [r3]
 116 0082 7B68     		ldr	r3, [r7, #4]
 117 0084 1B68     		ldr	r3, [r3]
 118 0086 42F00102 		orr	r2, r2, #1
 119 008a 1A60     		str	r2, [r3]
 349:Drivers/STM32F3xx_HAL_Driver/Src/stm32f3xx_hal_uart.c **** 
 350:Drivers/STM32F3xx_HAL_Driver/Src/stm32f3xx_hal_uart.c ****   /* TEACK and/or REACK to check before moving huart->gState and huart->RxState to Ready */
 351:Drivers/STM32F3xx_HAL_Driver/Src/stm32f3xx_hal_uart.c ****   return (UART_CheckIdleState(huart));
 120              		.loc 1 351 0
 121 008c 7868     		ldr	r0, [r7, #4]
 122 008e FFF7FEFF 		bl	UART_CheckIdleState
 123 0092 0346     		mov	r3, r0
 124              	.L3:
 352:Drivers/STM32F3xx_HAL_Driver/Src/stm32f3xx_hal_uart.c **** }
 125              		.loc 1 352 0
 126 0094 1846     		mov	r0, r3
 127 0096 0837     		adds	r7, r7, #8
 128              	.LCFI3:
 129              		.cfi_def_cfa_offset 8
 130 0098 BD46     		mov	sp, r7
 131              	.LCFI4:
 132              		.cfi_def_cfa_register 13
 133              		@ sp needed
 134 009a 80BD     		pop	{r7, pc}
 135              		.cfi_endproc
 136              	.LFE123:
 138              		.section	.text.HAL_HalfDuplex_Init,"ax",%progbits
 139              		.align	1
 140              		.global	HAL_HalfDuplex_Init
 141              		.syntax unified
 142              		.thumb
 143              		.thumb_func
 144              		.fpu fpv4-sp-d16
 146              	HAL_HalfDuplex_Init:
 147              	.LFB124:
 353:Drivers/STM32F3xx_HAL_Driver/Src/stm32f3xx_hal_uart.c **** 
 354:Drivers/STM32F3xx_HAL_Driver/Src/stm32f3xx_hal_uart.c **** /**
 355:Drivers/STM32F3xx_HAL_Driver/Src/stm32f3xx_hal_uart.c ****   * @brief Initialize the half-duplex mode according to the specified
 356:Drivers/STM32F3xx_HAL_Driver/Src/stm32f3xx_hal_uart.c ****   *        parameters in the UART_InitTypeDef and creates the associated handle.
 357:Drivers/STM32F3xx_HAL_Driver/Src/stm32f3xx_hal_uart.c ****   * @param huart UART handle.
 358:Drivers/STM32F3xx_HAL_Driver/Src/stm32f3xx_hal_uart.c ****   * @retval HAL status
 359:Drivers/STM32F3xx_HAL_Driver/Src/stm32f3xx_hal_uart.c ****   */
 360:Drivers/STM32F3xx_HAL_Driver/Src/stm32f3xx_hal_uart.c **** HAL_StatusTypeDef HAL_HalfDuplex_Init(UART_HandleTypeDef *huart)
 361:Drivers/STM32F3xx_HAL_Driver/Src/stm32f3xx_hal_uart.c **** {
 148              		.loc 1 361 0
 149              		.cfi_startproc
 150              		@ args = 0, pretend = 0, frame = 8
 151              		@ frame_needed = 1, uses_anonymous_args = 0
 152 0000 80B5     		push	{r7, lr}
 153              	.LCFI5:
 154              		.cfi_def_cfa_offset 8
 155              		.cfi_offset 7, -8
ARM GAS  /tmp/ccfCzef7.s 			page 10


 156              		.cfi_offset 14, -4
 157 0002 82B0     		sub	sp, sp, #8
 158              	.LCFI6:
 159              		.cfi_def_cfa_offset 16
 160 0004 00AF     		add	r7, sp, #0
 161              	.LCFI7:
 162              		.cfi_def_cfa_register 7
 163 0006 7860     		str	r0, [r7, #4]
 362:Drivers/STM32F3xx_HAL_Driver/Src/stm32f3xx_hal_uart.c ****   /* Check the UART handle allocation */
 363:Drivers/STM32F3xx_HAL_Driver/Src/stm32f3xx_hal_uart.c ****   if (huart == NULL)
 164              		.loc 1 363 0
 165 0008 7B68     		ldr	r3, [r7, #4]
 166 000a 002B     		cmp	r3, #0
 167 000c 01D1     		bne	.L8
 364:Drivers/STM32F3xx_HAL_Driver/Src/stm32f3xx_hal_uart.c ****   {
 365:Drivers/STM32F3xx_HAL_Driver/Src/stm32f3xx_hal_uart.c ****     return HAL_ERROR;
 168              		.loc 1 365 0
 169 000e 0123     		movs	r3, #1
 170 0010 48E0     		b	.L9
 171              	.L8:
 366:Drivers/STM32F3xx_HAL_Driver/Src/stm32f3xx_hal_uart.c ****   }
 367:Drivers/STM32F3xx_HAL_Driver/Src/stm32f3xx_hal_uart.c **** 
 368:Drivers/STM32F3xx_HAL_Driver/Src/stm32f3xx_hal_uart.c ****   /* Check UART instance */
 369:Drivers/STM32F3xx_HAL_Driver/Src/stm32f3xx_hal_uart.c ****   assert_param(IS_UART_HALFDUPLEX_INSTANCE(huart->Instance));
 370:Drivers/STM32F3xx_HAL_Driver/Src/stm32f3xx_hal_uart.c **** 
 371:Drivers/STM32F3xx_HAL_Driver/Src/stm32f3xx_hal_uart.c ****   if (huart->gState == HAL_UART_STATE_RESET)
 172              		.loc 1 371 0
 173 0012 7B68     		ldr	r3, [r7, #4]
 174 0014 5B6F     		ldr	r3, [r3, #116]
 175 0016 002B     		cmp	r3, #0
 176 0018 06D1     		bne	.L10
 372:Drivers/STM32F3xx_HAL_Driver/Src/stm32f3xx_hal_uart.c ****   {
 373:Drivers/STM32F3xx_HAL_Driver/Src/stm32f3xx_hal_uart.c ****     /* Allocate lock resource and initialize it */
 374:Drivers/STM32F3xx_HAL_Driver/Src/stm32f3xx_hal_uart.c ****     huart->Lock = HAL_UNLOCKED;
 177              		.loc 1 374 0
 178 001a 7B68     		ldr	r3, [r7, #4]
 179 001c 0022     		movs	r2, #0
 180 001e 83F87020 		strb	r2, [r3, #112]
 375:Drivers/STM32F3xx_HAL_Driver/Src/stm32f3xx_hal_uart.c **** 
 376:Drivers/STM32F3xx_HAL_Driver/Src/stm32f3xx_hal_uart.c **** #if (USE_HAL_UART_REGISTER_CALLBACKS == 1)
 377:Drivers/STM32F3xx_HAL_Driver/Src/stm32f3xx_hal_uart.c ****     UART_InitCallbacksToDefault(huart);
 378:Drivers/STM32F3xx_HAL_Driver/Src/stm32f3xx_hal_uart.c **** 
 379:Drivers/STM32F3xx_HAL_Driver/Src/stm32f3xx_hal_uart.c ****     if (huart->MspInitCallback == NULL)
 380:Drivers/STM32F3xx_HAL_Driver/Src/stm32f3xx_hal_uart.c ****     {
 381:Drivers/STM32F3xx_HAL_Driver/Src/stm32f3xx_hal_uart.c ****       huart->MspInitCallback = HAL_UART_MspInit;
 382:Drivers/STM32F3xx_HAL_Driver/Src/stm32f3xx_hal_uart.c ****     }
 383:Drivers/STM32F3xx_HAL_Driver/Src/stm32f3xx_hal_uart.c **** 
 384:Drivers/STM32F3xx_HAL_Driver/Src/stm32f3xx_hal_uart.c ****     /* Init the low level hardware */
 385:Drivers/STM32F3xx_HAL_Driver/Src/stm32f3xx_hal_uart.c ****     huart->MspInitCallback(huart);
 386:Drivers/STM32F3xx_HAL_Driver/Src/stm32f3xx_hal_uart.c **** #else
 387:Drivers/STM32F3xx_HAL_Driver/Src/stm32f3xx_hal_uart.c ****     /* Init the low level hardware : GPIO, CLOCK */
 388:Drivers/STM32F3xx_HAL_Driver/Src/stm32f3xx_hal_uart.c ****     HAL_UART_MspInit(huart);
 181              		.loc 1 388 0
 182 0022 7868     		ldr	r0, [r7, #4]
 183 0024 FFF7FEFF 		bl	HAL_UART_MspInit
 184              	.L10:
 389:Drivers/STM32F3xx_HAL_Driver/Src/stm32f3xx_hal_uart.c **** #endif /* (USE_HAL_UART_REGISTER_CALLBACKS) */
ARM GAS  /tmp/ccfCzef7.s 			page 11


 390:Drivers/STM32F3xx_HAL_Driver/Src/stm32f3xx_hal_uart.c ****   }
 391:Drivers/STM32F3xx_HAL_Driver/Src/stm32f3xx_hal_uart.c **** 
 392:Drivers/STM32F3xx_HAL_Driver/Src/stm32f3xx_hal_uart.c ****   huart->gState = HAL_UART_STATE_BUSY;
 185              		.loc 1 392 0
 186 0028 7B68     		ldr	r3, [r7, #4]
 187 002a 2422     		movs	r2, #36
 188 002c 5A67     		str	r2, [r3, #116]
 393:Drivers/STM32F3xx_HAL_Driver/Src/stm32f3xx_hal_uart.c **** 
 394:Drivers/STM32F3xx_HAL_Driver/Src/stm32f3xx_hal_uart.c ****   __HAL_UART_DISABLE(huart);
 189              		.loc 1 394 0
 190 002e 7B68     		ldr	r3, [r7, #4]
 191 0030 1B68     		ldr	r3, [r3]
 192 0032 1A68     		ldr	r2, [r3]
 193 0034 7B68     		ldr	r3, [r7, #4]
 194 0036 1B68     		ldr	r3, [r3]
 195 0038 22F00102 		bic	r2, r2, #1
 196 003c 1A60     		str	r2, [r3]
 395:Drivers/STM32F3xx_HAL_Driver/Src/stm32f3xx_hal_uart.c **** 
 396:Drivers/STM32F3xx_HAL_Driver/Src/stm32f3xx_hal_uart.c ****   /* Set the UART Communication parameters */
 397:Drivers/STM32F3xx_HAL_Driver/Src/stm32f3xx_hal_uart.c ****   if (UART_SetConfig(huart) == HAL_ERROR)
 197              		.loc 1 397 0
 198 003e 7868     		ldr	r0, [r7, #4]
 199 0040 FFF7FEFF 		bl	UART_SetConfig
 200 0044 0346     		mov	r3, r0
 201 0046 012B     		cmp	r3, #1
 202 0048 01D1     		bne	.L11
 398:Drivers/STM32F3xx_HAL_Driver/Src/stm32f3xx_hal_uart.c ****   {
 399:Drivers/STM32F3xx_HAL_Driver/Src/stm32f3xx_hal_uart.c ****     return HAL_ERROR;
 203              		.loc 1 399 0
 204 004a 0123     		movs	r3, #1
 205 004c 2AE0     		b	.L9
 206              	.L11:
 400:Drivers/STM32F3xx_HAL_Driver/Src/stm32f3xx_hal_uart.c ****   }
 401:Drivers/STM32F3xx_HAL_Driver/Src/stm32f3xx_hal_uart.c **** 
 402:Drivers/STM32F3xx_HAL_Driver/Src/stm32f3xx_hal_uart.c ****   if (huart->AdvancedInit.AdvFeatureInit != UART_ADVFEATURE_NO_INIT)
 207              		.loc 1 402 0
 208 004e 7B68     		ldr	r3, [r7, #4]
 209 0050 5B6A     		ldr	r3, [r3, #36]
 210 0052 002B     		cmp	r3, #0
 211 0054 02D0     		beq	.L12
 403:Drivers/STM32F3xx_HAL_Driver/Src/stm32f3xx_hal_uart.c ****   {
 404:Drivers/STM32F3xx_HAL_Driver/Src/stm32f3xx_hal_uart.c ****     UART_AdvFeatureConfig(huart);
 212              		.loc 1 404 0
 213 0056 7868     		ldr	r0, [r7, #4]
 214 0058 FFF7FEFF 		bl	UART_AdvFeatureConfig
 215              	.L12:
 405:Drivers/STM32F3xx_HAL_Driver/Src/stm32f3xx_hal_uart.c ****   }
 406:Drivers/STM32F3xx_HAL_Driver/Src/stm32f3xx_hal_uart.c **** 
 407:Drivers/STM32F3xx_HAL_Driver/Src/stm32f3xx_hal_uart.c ****   /* In half-duplex mode, the following bits must be kept cleared:
 408:Drivers/STM32F3xx_HAL_Driver/Src/stm32f3xx_hal_uart.c ****   - LINEN and CLKEN bits in the USART_CR2 register,
 409:Drivers/STM32F3xx_HAL_Driver/Src/stm32f3xx_hal_uart.c ****   - SCEN and IREN bits in the USART_CR3 register.*/
 410:Drivers/STM32F3xx_HAL_Driver/Src/stm32f3xx_hal_uart.c ****   CLEAR_BIT(huart->Instance->CR2, (USART_CR2_LINEN | USART_CR2_CLKEN));
 216              		.loc 1 410 0
 217 005c 7B68     		ldr	r3, [r7, #4]
 218 005e 1B68     		ldr	r3, [r3]
 219 0060 5A68     		ldr	r2, [r3, #4]
 220 0062 7B68     		ldr	r3, [r7, #4]
ARM GAS  /tmp/ccfCzef7.s 			page 12


 221 0064 1B68     		ldr	r3, [r3]
 222 0066 22F49042 		bic	r2, r2, #18432
 223 006a 5A60     		str	r2, [r3, #4]
 411:Drivers/STM32F3xx_HAL_Driver/Src/stm32f3xx_hal_uart.c ****   CLEAR_BIT(huart->Instance->CR3, (USART_CR3_IREN | USART_CR3_SCEN));
 224              		.loc 1 411 0
 225 006c 7B68     		ldr	r3, [r7, #4]
 226 006e 1B68     		ldr	r3, [r3]
 227 0070 9A68     		ldr	r2, [r3, #8]
 228 0072 7B68     		ldr	r3, [r7, #4]
 229 0074 1B68     		ldr	r3, [r3]
 230 0076 22F02202 		bic	r2, r2, #34
 231 007a 9A60     		str	r2, [r3, #8]
 412:Drivers/STM32F3xx_HAL_Driver/Src/stm32f3xx_hal_uart.c **** 
 413:Drivers/STM32F3xx_HAL_Driver/Src/stm32f3xx_hal_uart.c ****   /* Enable the Half-Duplex mode by setting the HDSEL bit in the CR3 register */
 414:Drivers/STM32F3xx_HAL_Driver/Src/stm32f3xx_hal_uart.c ****   SET_BIT(huart->Instance->CR3, USART_CR3_HDSEL);
 232              		.loc 1 414 0
 233 007c 7B68     		ldr	r3, [r7, #4]
 234 007e 1B68     		ldr	r3, [r3]
 235 0080 9A68     		ldr	r2, [r3, #8]
 236 0082 7B68     		ldr	r3, [r7, #4]
 237 0084 1B68     		ldr	r3, [r3]
 238 0086 42F00802 		orr	r2, r2, #8
 239 008a 9A60     		str	r2, [r3, #8]
 415:Drivers/STM32F3xx_HAL_Driver/Src/stm32f3xx_hal_uart.c **** 
 416:Drivers/STM32F3xx_HAL_Driver/Src/stm32f3xx_hal_uart.c ****   __HAL_UART_ENABLE(huart);
 240              		.loc 1 416 0
 241 008c 7B68     		ldr	r3, [r7, #4]
 242 008e 1B68     		ldr	r3, [r3]
 243 0090 1A68     		ldr	r2, [r3]
 244 0092 7B68     		ldr	r3, [r7, #4]
 245 0094 1B68     		ldr	r3, [r3]
 246 0096 42F00102 		orr	r2, r2, #1
 247 009a 1A60     		str	r2, [r3]
 417:Drivers/STM32F3xx_HAL_Driver/Src/stm32f3xx_hal_uart.c **** 
 418:Drivers/STM32F3xx_HAL_Driver/Src/stm32f3xx_hal_uart.c ****   /* TEACK and/or REACK to check before moving huart->gState and huart->RxState to Ready */
 419:Drivers/STM32F3xx_HAL_Driver/Src/stm32f3xx_hal_uart.c ****   return (UART_CheckIdleState(huart));
 248              		.loc 1 419 0
 249 009c 7868     		ldr	r0, [r7, #4]
 250 009e FFF7FEFF 		bl	UART_CheckIdleState
 251 00a2 0346     		mov	r3, r0
 252              	.L9:
 420:Drivers/STM32F3xx_HAL_Driver/Src/stm32f3xx_hal_uart.c **** }
 253              		.loc 1 420 0
 254 00a4 1846     		mov	r0, r3
 255 00a6 0837     		adds	r7, r7, #8
 256              	.LCFI8:
 257              		.cfi_def_cfa_offset 8
 258 00a8 BD46     		mov	sp, r7
 259              	.LCFI9:
 260              		.cfi_def_cfa_register 13
 261              		@ sp needed
 262 00aa 80BD     		pop	{r7, pc}
 263              		.cfi_endproc
 264              	.LFE124:
 266              		.section	.text.HAL_LIN_Init,"ax",%progbits
 267              		.align	1
 268              		.global	HAL_LIN_Init
ARM GAS  /tmp/ccfCzef7.s 			page 13


 269              		.syntax unified
 270              		.thumb
 271              		.thumb_func
 272              		.fpu fpv4-sp-d16
 274              	HAL_LIN_Init:
 275              	.LFB125:
 421:Drivers/STM32F3xx_HAL_Driver/Src/stm32f3xx_hal_uart.c **** 
 422:Drivers/STM32F3xx_HAL_Driver/Src/stm32f3xx_hal_uart.c **** 
 423:Drivers/STM32F3xx_HAL_Driver/Src/stm32f3xx_hal_uart.c **** /**
 424:Drivers/STM32F3xx_HAL_Driver/Src/stm32f3xx_hal_uart.c ****   * @brief Initialize the LIN mode according to the specified
 425:Drivers/STM32F3xx_HAL_Driver/Src/stm32f3xx_hal_uart.c ****   *        parameters in the UART_InitTypeDef and creates the associated handle.
 426:Drivers/STM32F3xx_HAL_Driver/Src/stm32f3xx_hal_uart.c ****   * @param huart             UART handle.
 427:Drivers/STM32F3xx_HAL_Driver/Src/stm32f3xx_hal_uart.c ****   * @param BreakDetectLength Specifies the LIN break detection length.
 428:Drivers/STM32F3xx_HAL_Driver/Src/stm32f3xx_hal_uart.c ****   *        This parameter can be one of the following values:
 429:Drivers/STM32F3xx_HAL_Driver/Src/stm32f3xx_hal_uart.c ****   *          @arg @ref UART_LINBREAKDETECTLENGTH_10B 10-bit break detection
 430:Drivers/STM32F3xx_HAL_Driver/Src/stm32f3xx_hal_uart.c ****   *          @arg @ref UART_LINBREAKDETECTLENGTH_11B 11-bit break detection
 431:Drivers/STM32F3xx_HAL_Driver/Src/stm32f3xx_hal_uart.c ****   * @retval HAL status
 432:Drivers/STM32F3xx_HAL_Driver/Src/stm32f3xx_hal_uart.c ****   */
 433:Drivers/STM32F3xx_HAL_Driver/Src/stm32f3xx_hal_uart.c **** HAL_StatusTypeDef HAL_LIN_Init(UART_HandleTypeDef *huart, uint32_t BreakDetectLength)
 434:Drivers/STM32F3xx_HAL_Driver/Src/stm32f3xx_hal_uart.c **** {
 276              		.loc 1 434 0
 277              		.cfi_startproc
 278              		@ args = 0, pretend = 0, frame = 8
 279              		@ frame_needed = 1, uses_anonymous_args = 0
 280 0000 80B5     		push	{r7, lr}
 281              	.LCFI10:
 282              		.cfi_def_cfa_offset 8
 283              		.cfi_offset 7, -8
 284              		.cfi_offset 14, -4
 285 0002 82B0     		sub	sp, sp, #8
 286              	.LCFI11:
 287              		.cfi_def_cfa_offset 16
 288 0004 00AF     		add	r7, sp, #0
 289              	.LCFI12:
 290              		.cfi_def_cfa_register 7
 291 0006 7860     		str	r0, [r7, #4]
 292 0008 3960     		str	r1, [r7]
 435:Drivers/STM32F3xx_HAL_Driver/Src/stm32f3xx_hal_uart.c ****   /* Check the UART handle allocation */
 436:Drivers/STM32F3xx_HAL_Driver/Src/stm32f3xx_hal_uart.c ****   if (huart == NULL)
 293              		.loc 1 436 0
 294 000a 7B68     		ldr	r3, [r7, #4]
 295 000c 002B     		cmp	r3, #0
 296 000e 01D1     		bne	.L14
 437:Drivers/STM32F3xx_HAL_Driver/Src/stm32f3xx_hal_uart.c ****   {
 438:Drivers/STM32F3xx_HAL_Driver/Src/stm32f3xx_hal_uart.c ****     return HAL_ERROR;
 297              		.loc 1 438 0
 298 0010 0123     		movs	r3, #1
 299 0012 5FE0     		b	.L15
 300              	.L14:
 439:Drivers/STM32F3xx_HAL_Driver/Src/stm32f3xx_hal_uart.c ****   }
 440:Drivers/STM32F3xx_HAL_Driver/Src/stm32f3xx_hal_uart.c **** 
 441:Drivers/STM32F3xx_HAL_Driver/Src/stm32f3xx_hal_uart.c ****   /* Check the LIN UART instance */
 442:Drivers/STM32F3xx_HAL_Driver/Src/stm32f3xx_hal_uart.c ****   assert_param(IS_UART_LIN_INSTANCE(huart->Instance));
 443:Drivers/STM32F3xx_HAL_Driver/Src/stm32f3xx_hal_uart.c ****   /* Check the Break detection length parameter */
 444:Drivers/STM32F3xx_HAL_Driver/Src/stm32f3xx_hal_uart.c ****   assert_param(IS_UART_LIN_BREAK_DETECT_LENGTH(BreakDetectLength));
 445:Drivers/STM32F3xx_HAL_Driver/Src/stm32f3xx_hal_uart.c **** 
 446:Drivers/STM32F3xx_HAL_Driver/Src/stm32f3xx_hal_uart.c ****   /* LIN mode limited to 16-bit oversampling only */
ARM GAS  /tmp/ccfCzef7.s 			page 14


 447:Drivers/STM32F3xx_HAL_Driver/Src/stm32f3xx_hal_uart.c ****   if (huart->Init.OverSampling == UART_OVERSAMPLING_8)
 301              		.loc 1 447 0
 302 0014 7B68     		ldr	r3, [r7, #4]
 303 0016 DB69     		ldr	r3, [r3, #28]
 304 0018 B3F5004F 		cmp	r3, #32768
 305 001c 01D1     		bne	.L16
 448:Drivers/STM32F3xx_HAL_Driver/Src/stm32f3xx_hal_uart.c ****   {
 449:Drivers/STM32F3xx_HAL_Driver/Src/stm32f3xx_hal_uart.c ****     return HAL_ERROR;
 306              		.loc 1 449 0
 307 001e 0123     		movs	r3, #1
 308 0020 58E0     		b	.L15
 309              	.L16:
 450:Drivers/STM32F3xx_HAL_Driver/Src/stm32f3xx_hal_uart.c ****   }
 451:Drivers/STM32F3xx_HAL_Driver/Src/stm32f3xx_hal_uart.c ****   /* LIN mode limited to 8-bit data length */
 452:Drivers/STM32F3xx_HAL_Driver/Src/stm32f3xx_hal_uart.c ****   if (huart->Init.WordLength != UART_WORDLENGTH_8B)
 310              		.loc 1 452 0
 311 0022 7B68     		ldr	r3, [r7, #4]
 312 0024 9B68     		ldr	r3, [r3, #8]
 313 0026 002B     		cmp	r3, #0
 314 0028 01D0     		beq	.L17
 453:Drivers/STM32F3xx_HAL_Driver/Src/stm32f3xx_hal_uart.c ****   {
 454:Drivers/STM32F3xx_HAL_Driver/Src/stm32f3xx_hal_uart.c ****     return HAL_ERROR;
 315              		.loc 1 454 0
 316 002a 0123     		movs	r3, #1
 317 002c 52E0     		b	.L15
 318              	.L17:
 455:Drivers/STM32F3xx_HAL_Driver/Src/stm32f3xx_hal_uart.c ****   }
 456:Drivers/STM32F3xx_HAL_Driver/Src/stm32f3xx_hal_uart.c **** 
 457:Drivers/STM32F3xx_HAL_Driver/Src/stm32f3xx_hal_uart.c ****   if (huart->gState == HAL_UART_STATE_RESET)
 319              		.loc 1 457 0
 320 002e 7B68     		ldr	r3, [r7, #4]
 321 0030 5B6F     		ldr	r3, [r3, #116]
 322 0032 002B     		cmp	r3, #0
 323 0034 06D1     		bne	.L18
 458:Drivers/STM32F3xx_HAL_Driver/Src/stm32f3xx_hal_uart.c ****   {
 459:Drivers/STM32F3xx_HAL_Driver/Src/stm32f3xx_hal_uart.c ****     /* Allocate lock resource and initialize it */
 460:Drivers/STM32F3xx_HAL_Driver/Src/stm32f3xx_hal_uart.c ****     huart->Lock = HAL_UNLOCKED;
 324              		.loc 1 460 0
 325 0036 7B68     		ldr	r3, [r7, #4]
 326 0038 0022     		movs	r2, #0
 327 003a 83F87020 		strb	r2, [r3, #112]
 461:Drivers/STM32F3xx_HAL_Driver/Src/stm32f3xx_hal_uart.c **** 
 462:Drivers/STM32F3xx_HAL_Driver/Src/stm32f3xx_hal_uart.c **** #if (USE_HAL_UART_REGISTER_CALLBACKS == 1)
 463:Drivers/STM32F3xx_HAL_Driver/Src/stm32f3xx_hal_uart.c ****     UART_InitCallbacksToDefault(huart);
 464:Drivers/STM32F3xx_HAL_Driver/Src/stm32f3xx_hal_uart.c **** 
 465:Drivers/STM32F3xx_HAL_Driver/Src/stm32f3xx_hal_uart.c ****     if (huart->MspInitCallback == NULL)
 466:Drivers/STM32F3xx_HAL_Driver/Src/stm32f3xx_hal_uart.c ****     {
 467:Drivers/STM32F3xx_HAL_Driver/Src/stm32f3xx_hal_uart.c ****       huart->MspInitCallback = HAL_UART_MspInit;
 468:Drivers/STM32F3xx_HAL_Driver/Src/stm32f3xx_hal_uart.c ****     }
 469:Drivers/STM32F3xx_HAL_Driver/Src/stm32f3xx_hal_uart.c **** 
 470:Drivers/STM32F3xx_HAL_Driver/Src/stm32f3xx_hal_uart.c ****     /* Init the low level hardware */
 471:Drivers/STM32F3xx_HAL_Driver/Src/stm32f3xx_hal_uart.c ****     huart->MspInitCallback(huart);
 472:Drivers/STM32F3xx_HAL_Driver/Src/stm32f3xx_hal_uart.c **** #else
 473:Drivers/STM32F3xx_HAL_Driver/Src/stm32f3xx_hal_uart.c ****     /* Init the low level hardware : GPIO, CLOCK */
 474:Drivers/STM32F3xx_HAL_Driver/Src/stm32f3xx_hal_uart.c ****     HAL_UART_MspInit(huart);
 328              		.loc 1 474 0
 329 003e 7868     		ldr	r0, [r7, #4]
ARM GAS  /tmp/ccfCzef7.s 			page 15


 330 0040 FFF7FEFF 		bl	HAL_UART_MspInit
 331              	.L18:
 475:Drivers/STM32F3xx_HAL_Driver/Src/stm32f3xx_hal_uart.c **** #endif /* (USE_HAL_UART_REGISTER_CALLBACKS) */
 476:Drivers/STM32F3xx_HAL_Driver/Src/stm32f3xx_hal_uart.c ****   }
 477:Drivers/STM32F3xx_HAL_Driver/Src/stm32f3xx_hal_uart.c **** 
 478:Drivers/STM32F3xx_HAL_Driver/Src/stm32f3xx_hal_uart.c ****   huart->gState = HAL_UART_STATE_BUSY;
 332              		.loc 1 478 0
 333 0044 7B68     		ldr	r3, [r7, #4]
 334 0046 2422     		movs	r2, #36
 335 0048 5A67     		str	r2, [r3, #116]
 479:Drivers/STM32F3xx_HAL_Driver/Src/stm32f3xx_hal_uart.c **** 
 480:Drivers/STM32F3xx_HAL_Driver/Src/stm32f3xx_hal_uart.c ****   __HAL_UART_DISABLE(huart);
 336              		.loc 1 480 0
 337 004a 7B68     		ldr	r3, [r7, #4]
 338 004c 1B68     		ldr	r3, [r3]
 339 004e 1A68     		ldr	r2, [r3]
 340 0050 7B68     		ldr	r3, [r7, #4]
 341 0052 1B68     		ldr	r3, [r3]
 342 0054 22F00102 		bic	r2, r2, #1
 343 0058 1A60     		str	r2, [r3]
 481:Drivers/STM32F3xx_HAL_Driver/Src/stm32f3xx_hal_uart.c **** 
 482:Drivers/STM32F3xx_HAL_Driver/Src/stm32f3xx_hal_uart.c ****   /* Set the UART Communication parameters */
 483:Drivers/STM32F3xx_HAL_Driver/Src/stm32f3xx_hal_uart.c ****   if (UART_SetConfig(huart) == HAL_ERROR)
 344              		.loc 1 483 0
 345 005a 7868     		ldr	r0, [r7, #4]
 346 005c FFF7FEFF 		bl	UART_SetConfig
 347 0060 0346     		mov	r3, r0
 348 0062 012B     		cmp	r3, #1
 349 0064 01D1     		bne	.L19
 484:Drivers/STM32F3xx_HAL_Driver/Src/stm32f3xx_hal_uart.c ****   {
 485:Drivers/STM32F3xx_HAL_Driver/Src/stm32f3xx_hal_uart.c ****     return HAL_ERROR;
 350              		.loc 1 485 0
 351 0066 0123     		movs	r3, #1
 352 0068 34E0     		b	.L15
 353              	.L19:
 486:Drivers/STM32F3xx_HAL_Driver/Src/stm32f3xx_hal_uart.c ****   }
 487:Drivers/STM32F3xx_HAL_Driver/Src/stm32f3xx_hal_uart.c **** 
 488:Drivers/STM32F3xx_HAL_Driver/Src/stm32f3xx_hal_uart.c ****   if (huart->AdvancedInit.AdvFeatureInit != UART_ADVFEATURE_NO_INIT)
 354              		.loc 1 488 0
 355 006a 7B68     		ldr	r3, [r7, #4]
 356 006c 5B6A     		ldr	r3, [r3, #36]
 357 006e 002B     		cmp	r3, #0
 358 0070 02D0     		beq	.L20
 489:Drivers/STM32F3xx_HAL_Driver/Src/stm32f3xx_hal_uart.c ****   {
 490:Drivers/STM32F3xx_HAL_Driver/Src/stm32f3xx_hal_uart.c ****     UART_AdvFeatureConfig(huart);
 359              		.loc 1 490 0
 360 0072 7868     		ldr	r0, [r7, #4]
 361 0074 FFF7FEFF 		bl	UART_AdvFeatureConfig
 362              	.L20:
 491:Drivers/STM32F3xx_HAL_Driver/Src/stm32f3xx_hal_uart.c ****   }
 492:Drivers/STM32F3xx_HAL_Driver/Src/stm32f3xx_hal_uart.c **** 
 493:Drivers/STM32F3xx_HAL_Driver/Src/stm32f3xx_hal_uart.c ****   /* In LIN mode, the following bits must be kept cleared:
 494:Drivers/STM32F3xx_HAL_Driver/Src/stm32f3xx_hal_uart.c ****   - LINEN and CLKEN bits in the USART_CR2 register,
 495:Drivers/STM32F3xx_HAL_Driver/Src/stm32f3xx_hal_uart.c ****   - SCEN and IREN bits in the USART_CR3 register.*/
 496:Drivers/STM32F3xx_HAL_Driver/Src/stm32f3xx_hal_uart.c ****   CLEAR_BIT(huart->Instance->CR2, USART_CR2_CLKEN);
 363              		.loc 1 496 0
 364 0078 7B68     		ldr	r3, [r7, #4]
ARM GAS  /tmp/ccfCzef7.s 			page 16


 365 007a 1B68     		ldr	r3, [r3]
 366 007c 5A68     		ldr	r2, [r3, #4]
 367 007e 7B68     		ldr	r3, [r7, #4]
 368 0080 1B68     		ldr	r3, [r3]
 369 0082 22F40062 		bic	r2, r2, #2048
 370 0086 5A60     		str	r2, [r3, #4]
 497:Drivers/STM32F3xx_HAL_Driver/Src/stm32f3xx_hal_uart.c ****   CLEAR_BIT(huart->Instance->CR3, (USART_CR3_HDSEL | USART_CR3_IREN | USART_CR3_SCEN));
 371              		.loc 1 497 0
 372 0088 7B68     		ldr	r3, [r7, #4]
 373 008a 1B68     		ldr	r3, [r3]
 374 008c 9A68     		ldr	r2, [r3, #8]
 375 008e 7B68     		ldr	r3, [r7, #4]
 376 0090 1B68     		ldr	r3, [r3]
 377 0092 22F02A02 		bic	r2, r2, #42
 378 0096 9A60     		str	r2, [r3, #8]
 498:Drivers/STM32F3xx_HAL_Driver/Src/stm32f3xx_hal_uart.c **** 
 499:Drivers/STM32F3xx_HAL_Driver/Src/stm32f3xx_hal_uart.c ****   /* Enable the LIN mode by setting the LINEN bit in the CR2 register */
 500:Drivers/STM32F3xx_HAL_Driver/Src/stm32f3xx_hal_uart.c ****   SET_BIT(huart->Instance->CR2, USART_CR2_LINEN);
 379              		.loc 1 500 0
 380 0098 7B68     		ldr	r3, [r7, #4]
 381 009a 1B68     		ldr	r3, [r3]
 382 009c 5A68     		ldr	r2, [r3, #4]
 383 009e 7B68     		ldr	r3, [r7, #4]
 384 00a0 1B68     		ldr	r3, [r3]
 385 00a2 42F48042 		orr	r2, r2, #16384
 386 00a6 5A60     		str	r2, [r3, #4]
 501:Drivers/STM32F3xx_HAL_Driver/Src/stm32f3xx_hal_uart.c **** 
 502:Drivers/STM32F3xx_HAL_Driver/Src/stm32f3xx_hal_uart.c ****   /* Set the USART LIN Break detection length. */
 503:Drivers/STM32F3xx_HAL_Driver/Src/stm32f3xx_hal_uart.c ****   MODIFY_REG(huart->Instance->CR2, USART_CR2_LBDL, BreakDetectLength);
 387              		.loc 1 503 0
 388 00a8 7B68     		ldr	r3, [r7, #4]
 389 00aa 1B68     		ldr	r3, [r3]
 390 00ac 5B68     		ldr	r3, [r3, #4]
 391 00ae 23F02001 		bic	r1, r3, #32
 392 00b2 7B68     		ldr	r3, [r7, #4]
 393 00b4 1B68     		ldr	r3, [r3]
 394 00b6 3A68     		ldr	r2, [r7]
 395 00b8 0A43     		orrs	r2, r2, r1
 396 00ba 5A60     		str	r2, [r3, #4]
 504:Drivers/STM32F3xx_HAL_Driver/Src/stm32f3xx_hal_uart.c **** 
 505:Drivers/STM32F3xx_HAL_Driver/Src/stm32f3xx_hal_uart.c ****   __HAL_UART_ENABLE(huart);
 397              		.loc 1 505 0
 398 00bc 7B68     		ldr	r3, [r7, #4]
 399 00be 1B68     		ldr	r3, [r3]
 400 00c0 1A68     		ldr	r2, [r3]
 401 00c2 7B68     		ldr	r3, [r7, #4]
 402 00c4 1B68     		ldr	r3, [r3]
 403 00c6 42F00102 		orr	r2, r2, #1
 404 00ca 1A60     		str	r2, [r3]
 506:Drivers/STM32F3xx_HAL_Driver/Src/stm32f3xx_hal_uart.c **** 
 507:Drivers/STM32F3xx_HAL_Driver/Src/stm32f3xx_hal_uart.c ****   /* TEACK and/or REACK to check before moving huart->gState and huart->RxState to Ready */
 508:Drivers/STM32F3xx_HAL_Driver/Src/stm32f3xx_hal_uart.c ****   return (UART_CheckIdleState(huart));
 405              		.loc 1 508 0
 406 00cc 7868     		ldr	r0, [r7, #4]
 407 00ce FFF7FEFF 		bl	UART_CheckIdleState
 408 00d2 0346     		mov	r3, r0
 409              	.L15:
ARM GAS  /tmp/ccfCzef7.s 			page 17


 509:Drivers/STM32F3xx_HAL_Driver/Src/stm32f3xx_hal_uart.c **** }
 410              		.loc 1 509 0
 411 00d4 1846     		mov	r0, r3
 412 00d6 0837     		adds	r7, r7, #8
 413              	.LCFI13:
 414              		.cfi_def_cfa_offset 8
 415 00d8 BD46     		mov	sp, r7
 416              	.LCFI14:
 417              		.cfi_def_cfa_register 13
 418              		@ sp needed
 419 00da 80BD     		pop	{r7, pc}
 420              		.cfi_endproc
 421              	.LFE125:
 423              		.section	.text.HAL_MultiProcessor_Init,"ax",%progbits
 424              		.align	1
 425              		.global	HAL_MultiProcessor_Init
 426              		.syntax unified
 427              		.thumb
 428              		.thumb_func
 429              		.fpu fpv4-sp-d16
 431              	HAL_MultiProcessor_Init:
 432              	.LFB126:
 510:Drivers/STM32F3xx_HAL_Driver/Src/stm32f3xx_hal_uart.c **** 
 511:Drivers/STM32F3xx_HAL_Driver/Src/stm32f3xx_hal_uart.c **** 
 512:Drivers/STM32F3xx_HAL_Driver/Src/stm32f3xx_hal_uart.c **** /**
 513:Drivers/STM32F3xx_HAL_Driver/Src/stm32f3xx_hal_uart.c ****   * @brief Initialize the multiprocessor mode according to the specified
 514:Drivers/STM32F3xx_HAL_Driver/Src/stm32f3xx_hal_uart.c ****   *        parameters in the UART_InitTypeDef and initialize the associated handle.
 515:Drivers/STM32F3xx_HAL_Driver/Src/stm32f3xx_hal_uart.c ****   * @param huart        UART handle.
 516:Drivers/STM32F3xx_HAL_Driver/Src/stm32f3xx_hal_uart.c ****   * @param Address      UART node address (4-, 6-, 7- or 8-bit long).
 517:Drivers/STM32F3xx_HAL_Driver/Src/stm32f3xx_hal_uart.c ****   * @param WakeUpMethod Specifies the UART wakeup method.
 518:Drivers/STM32F3xx_HAL_Driver/Src/stm32f3xx_hal_uart.c ****   *        This parameter can be one of the following values:
 519:Drivers/STM32F3xx_HAL_Driver/Src/stm32f3xx_hal_uart.c ****   *          @arg @ref UART_WAKEUPMETHOD_IDLELINE WakeUp by an idle line detection
 520:Drivers/STM32F3xx_HAL_Driver/Src/stm32f3xx_hal_uart.c ****   *          @arg @ref UART_WAKEUPMETHOD_ADDRESSMARK WakeUp by an address mark
 521:Drivers/STM32F3xx_HAL_Driver/Src/stm32f3xx_hal_uart.c ****   * @note  If the user resorts to idle line detection wake up, the Address parameter
 522:Drivers/STM32F3xx_HAL_Driver/Src/stm32f3xx_hal_uart.c ****   *        is useless and ignored by the initialization function.
 523:Drivers/STM32F3xx_HAL_Driver/Src/stm32f3xx_hal_uart.c ****   * @note  If the user resorts to address mark wake up, the address length detection
 524:Drivers/STM32F3xx_HAL_Driver/Src/stm32f3xx_hal_uart.c ****   *        is configured by default to 4 bits only. For the UART to be able to
 525:Drivers/STM32F3xx_HAL_Driver/Src/stm32f3xx_hal_uart.c ****   *        manage 6-, 7- or 8-bit long addresses detection, the API
 526:Drivers/STM32F3xx_HAL_Driver/Src/stm32f3xx_hal_uart.c ****   *        HAL_MultiProcessorEx_AddressLength_Set() must be called after
 527:Drivers/STM32F3xx_HAL_Driver/Src/stm32f3xx_hal_uart.c ****   *        HAL_MultiProcessor_Init().
 528:Drivers/STM32F3xx_HAL_Driver/Src/stm32f3xx_hal_uart.c ****   * @retval HAL status
 529:Drivers/STM32F3xx_HAL_Driver/Src/stm32f3xx_hal_uart.c ****   */
 530:Drivers/STM32F3xx_HAL_Driver/Src/stm32f3xx_hal_uart.c **** HAL_StatusTypeDef HAL_MultiProcessor_Init(UART_HandleTypeDef *huart, uint8_t Address, uint32_t Wake
 531:Drivers/STM32F3xx_HAL_Driver/Src/stm32f3xx_hal_uart.c **** {
 433              		.loc 1 531 0
 434              		.cfi_startproc
 435              		@ args = 0, pretend = 0, frame = 16
 436              		@ frame_needed = 1, uses_anonymous_args = 0
 437 0000 80B5     		push	{r7, lr}
 438              	.LCFI15:
 439              		.cfi_def_cfa_offset 8
 440              		.cfi_offset 7, -8
 441              		.cfi_offset 14, -4
 442 0002 84B0     		sub	sp, sp, #16
 443              	.LCFI16:
 444              		.cfi_def_cfa_offset 24
 445 0004 00AF     		add	r7, sp, #0
ARM GAS  /tmp/ccfCzef7.s 			page 18


 446              	.LCFI17:
 447              		.cfi_def_cfa_register 7
 448 0006 F860     		str	r0, [r7, #12]
 449 0008 0B46     		mov	r3, r1
 450 000a 7A60     		str	r2, [r7, #4]
 451 000c FB72     		strb	r3, [r7, #11]
 532:Drivers/STM32F3xx_HAL_Driver/Src/stm32f3xx_hal_uart.c ****   /* Check the UART handle allocation */
 533:Drivers/STM32F3xx_HAL_Driver/Src/stm32f3xx_hal_uart.c ****   if (huart == NULL)
 452              		.loc 1 533 0
 453 000e FB68     		ldr	r3, [r7, #12]
 454 0010 002B     		cmp	r3, #0
 455 0012 01D1     		bne	.L22
 534:Drivers/STM32F3xx_HAL_Driver/Src/stm32f3xx_hal_uart.c ****   {
 535:Drivers/STM32F3xx_HAL_Driver/Src/stm32f3xx_hal_uart.c ****     return HAL_ERROR;
 456              		.loc 1 535 0
 457 0014 0123     		movs	r3, #1
 458 0016 59E0     		b	.L23
 459              	.L22:
 536:Drivers/STM32F3xx_HAL_Driver/Src/stm32f3xx_hal_uart.c ****   }
 537:Drivers/STM32F3xx_HAL_Driver/Src/stm32f3xx_hal_uart.c **** 
 538:Drivers/STM32F3xx_HAL_Driver/Src/stm32f3xx_hal_uart.c ****   /* Check the wake up method parameter */
 539:Drivers/STM32F3xx_HAL_Driver/Src/stm32f3xx_hal_uart.c ****   assert_param(IS_UART_WAKEUPMETHOD(WakeUpMethod));
 540:Drivers/STM32F3xx_HAL_Driver/Src/stm32f3xx_hal_uart.c **** 
 541:Drivers/STM32F3xx_HAL_Driver/Src/stm32f3xx_hal_uart.c ****   if (huart->gState == HAL_UART_STATE_RESET)
 460              		.loc 1 541 0
 461 0018 FB68     		ldr	r3, [r7, #12]
 462 001a 5B6F     		ldr	r3, [r3, #116]
 463 001c 002B     		cmp	r3, #0
 464 001e 06D1     		bne	.L24
 542:Drivers/STM32F3xx_HAL_Driver/Src/stm32f3xx_hal_uart.c ****   {
 543:Drivers/STM32F3xx_HAL_Driver/Src/stm32f3xx_hal_uart.c ****     /* Allocate lock resource and initialize it */
 544:Drivers/STM32F3xx_HAL_Driver/Src/stm32f3xx_hal_uart.c ****     huart->Lock = HAL_UNLOCKED;
 465              		.loc 1 544 0
 466 0020 FB68     		ldr	r3, [r7, #12]
 467 0022 0022     		movs	r2, #0
 468 0024 83F87020 		strb	r2, [r3, #112]
 545:Drivers/STM32F3xx_HAL_Driver/Src/stm32f3xx_hal_uart.c **** 
 546:Drivers/STM32F3xx_HAL_Driver/Src/stm32f3xx_hal_uart.c **** #if (USE_HAL_UART_REGISTER_CALLBACKS == 1)
 547:Drivers/STM32F3xx_HAL_Driver/Src/stm32f3xx_hal_uart.c ****     UART_InitCallbacksToDefault(huart);
 548:Drivers/STM32F3xx_HAL_Driver/Src/stm32f3xx_hal_uart.c **** 
 549:Drivers/STM32F3xx_HAL_Driver/Src/stm32f3xx_hal_uart.c ****     if (huart->MspInitCallback == NULL)
 550:Drivers/STM32F3xx_HAL_Driver/Src/stm32f3xx_hal_uart.c ****     {
 551:Drivers/STM32F3xx_HAL_Driver/Src/stm32f3xx_hal_uart.c ****       huart->MspInitCallback = HAL_UART_MspInit;
 552:Drivers/STM32F3xx_HAL_Driver/Src/stm32f3xx_hal_uart.c ****     }
 553:Drivers/STM32F3xx_HAL_Driver/Src/stm32f3xx_hal_uart.c **** 
 554:Drivers/STM32F3xx_HAL_Driver/Src/stm32f3xx_hal_uart.c ****     /* Init the low level hardware */
 555:Drivers/STM32F3xx_HAL_Driver/Src/stm32f3xx_hal_uart.c ****     huart->MspInitCallback(huart);
 556:Drivers/STM32F3xx_HAL_Driver/Src/stm32f3xx_hal_uart.c **** #else
 557:Drivers/STM32F3xx_HAL_Driver/Src/stm32f3xx_hal_uart.c ****     /* Init the low level hardware : GPIO, CLOCK */
 558:Drivers/STM32F3xx_HAL_Driver/Src/stm32f3xx_hal_uart.c ****     HAL_UART_MspInit(huart);
 469              		.loc 1 558 0
 470 0028 F868     		ldr	r0, [r7, #12]
 471 002a FFF7FEFF 		bl	HAL_UART_MspInit
 472              	.L24:
 559:Drivers/STM32F3xx_HAL_Driver/Src/stm32f3xx_hal_uart.c **** #endif /* (USE_HAL_UART_REGISTER_CALLBACKS) */
 560:Drivers/STM32F3xx_HAL_Driver/Src/stm32f3xx_hal_uart.c ****   }
 561:Drivers/STM32F3xx_HAL_Driver/Src/stm32f3xx_hal_uart.c **** 
ARM GAS  /tmp/ccfCzef7.s 			page 19


 562:Drivers/STM32F3xx_HAL_Driver/Src/stm32f3xx_hal_uart.c ****   huart->gState = HAL_UART_STATE_BUSY;
 473              		.loc 1 562 0
 474 002e FB68     		ldr	r3, [r7, #12]
 475 0030 2422     		movs	r2, #36
 476 0032 5A67     		str	r2, [r3, #116]
 563:Drivers/STM32F3xx_HAL_Driver/Src/stm32f3xx_hal_uart.c **** 
 564:Drivers/STM32F3xx_HAL_Driver/Src/stm32f3xx_hal_uart.c ****   __HAL_UART_DISABLE(huart);
 477              		.loc 1 564 0
 478 0034 FB68     		ldr	r3, [r7, #12]
 479 0036 1B68     		ldr	r3, [r3]
 480 0038 1A68     		ldr	r2, [r3]
 481 003a FB68     		ldr	r3, [r7, #12]
 482 003c 1B68     		ldr	r3, [r3]
 483 003e 22F00102 		bic	r2, r2, #1
 484 0042 1A60     		str	r2, [r3]
 565:Drivers/STM32F3xx_HAL_Driver/Src/stm32f3xx_hal_uart.c **** 
 566:Drivers/STM32F3xx_HAL_Driver/Src/stm32f3xx_hal_uart.c ****   /* Set the UART Communication parameters */
 567:Drivers/STM32F3xx_HAL_Driver/Src/stm32f3xx_hal_uart.c ****   if (UART_SetConfig(huart) == HAL_ERROR)
 485              		.loc 1 567 0
 486 0044 F868     		ldr	r0, [r7, #12]
 487 0046 FFF7FEFF 		bl	UART_SetConfig
 488 004a 0346     		mov	r3, r0
 489 004c 012B     		cmp	r3, #1
 490 004e 01D1     		bne	.L25
 568:Drivers/STM32F3xx_HAL_Driver/Src/stm32f3xx_hal_uart.c ****   {
 569:Drivers/STM32F3xx_HAL_Driver/Src/stm32f3xx_hal_uart.c ****     return HAL_ERROR;
 491              		.loc 1 569 0
 492 0050 0123     		movs	r3, #1
 493 0052 3BE0     		b	.L23
 494              	.L25:
 570:Drivers/STM32F3xx_HAL_Driver/Src/stm32f3xx_hal_uart.c ****   }
 571:Drivers/STM32F3xx_HAL_Driver/Src/stm32f3xx_hal_uart.c **** 
 572:Drivers/STM32F3xx_HAL_Driver/Src/stm32f3xx_hal_uart.c ****   if (huart->AdvancedInit.AdvFeatureInit != UART_ADVFEATURE_NO_INIT)
 495              		.loc 1 572 0
 496 0054 FB68     		ldr	r3, [r7, #12]
 497 0056 5B6A     		ldr	r3, [r3, #36]
 498 0058 002B     		cmp	r3, #0
 499 005a 02D0     		beq	.L26
 573:Drivers/STM32F3xx_HAL_Driver/Src/stm32f3xx_hal_uart.c ****   {
 574:Drivers/STM32F3xx_HAL_Driver/Src/stm32f3xx_hal_uart.c ****     UART_AdvFeatureConfig(huart);
 500              		.loc 1 574 0
 501 005c F868     		ldr	r0, [r7, #12]
 502 005e FFF7FEFF 		bl	UART_AdvFeatureConfig
 503              	.L26:
 575:Drivers/STM32F3xx_HAL_Driver/Src/stm32f3xx_hal_uart.c ****   }
 576:Drivers/STM32F3xx_HAL_Driver/Src/stm32f3xx_hal_uart.c **** 
 577:Drivers/STM32F3xx_HAL_Driver/Src/stm32f3xx_hal_uart.c ****   /* In multiprocessor mode, the following bits must be kept cleared:
 578:Drivers/STM32F3xx_HAL_Driver/Src/stm32f3xx_hal_uart.c ****   - LINEN and CLKEN bits in the USART_CR2 register,
 579:Drivers/STM32F3xx_HAL_Driver/Src/stm32f3xx_hal_uart.c ****   - SCEN, HDSEL and IREN  bits in the USART_CR3 register. */
 580:Drivers/STM32F3xx_HAL_Driver/Src/stm32f3xx_hal_uart.c ****   CLEAR_BIT(huart->Instance->CR2, (USART_CR2_LINEN | USART_CR2_CLKEN));
 504              		.loc 1 580 0
 505 0062 FB68     		ldr	r3, [r7, #12]
 506 0064 1B68     		ldr	r3, [r3]
 507 0066 5A68     		ldr	r2, [r3, #4]
 508 0068 FB68     		ldr	r3, [r7, #12]
 509 006a 1B68     		ldr	r3, [r3]
 510 006c 22F49042 		bic	r2, r2, #18432
ARM GAS  /tmp/ccfCzef7.s 			page 20


 511 0070 5A60     		str	r2, [r3, #4]
 581:Drivers/STM32F3xx_HAL_Driver/Src/stm32f3xx_hal_uart.c ****   CLEAR_BIT(huart->Instance->CR3, (USART_CR3_SCEN | USART_CR3_HDSEL | USART_CR3_IREN));
 512              		.loc 1 581 0
 513 0072 FB68     		ldr	r3, [r7, #12]
 514 0074 1B68     		ldr	r3, [r3]
 515 0076 9A68     		ldr	r2, [r3, #8]
 516 0078 FB68     		ldr	r3, [r7, #12]
 517 007a 1B68     		ldr	r3, [r3]
 518 007c 22F02A02 		bic	r2, r2, #42
 519 0080 9A60     		str	r2, [r3, #8]
 582:Drivers/STM32F3xx_HAL_Driver/Src/stm32f3xx_hal_uart.c **** 
 583:Drivers/STM32F3xx_HAL_Driver/Src/stm32f3xx_hal_uart.c ****   if (WakeUpMethod == UART_WAKEUPMETHOD_ADDRESSMARK)
 520              		.loc 1 583 0
 521 0082 7B68     		ldr	r3, [r7, #4]
 522 0084 B3F5006F 		cmp	r3, #2048
 523 0088 0AD1     		bne	.L27
 584:Drivers/STM32F3xx_HAL_Driver/Src/stm32f3xx_hal_uart.c ****   {
 585:Drivers/STM32F3xx_HAL_Driver/Src/stm32f3xx_hal_uart.c ****     /* If address mark wake up method is chosen, set the USART address node */
 586:Drivers/STM32F3xx_HAL_Driver/Src/stm32f3xx_hal_uart.c ****     MODIFY_REG(huart->Instance->CR2, USART_CR2_ADD, ((uint32_t)Address << UART_CR2_ADDRESS_LSB_POS)
 524              		.loc 1 586 0
 525 008a FB68     		ldr	r3, [r7, #12]
 526 008c 1B68     		ldr	r3, [r3]
 527 008e 5B68     		ldr	r3, [r3, #4]
 528 0090 23F07F41 		bic	r1, r3, #-16777216
 529 0094 FB7A     		ldrb	r3, [r7, #11]	@ zero_extendqisi2
 530 0096 1A06     		lsls	r2, r3, #24
 531 0098 FB68     		ldr	r3, [r7, #12]
 532 009a 1B68     		ldr	r3, [r3]
 533 009c 0A43     		orrs	r2, r2, r1
 534 009e 5A60     		str	r2, [r3, #4]
 535              	.L27:
 587:Drivers/STM32F3xx_HAL_Driver/Src/stm32f3xx_hal_uart.c ****   }
 588:Drivers/STM32F3xx_HAL_Driver/Src/stm32f3xx_hal_uart.c **** 
 589:Drivers/STM32F3xx_HAL_Driver/Src/stm32f3xx_hal_uart.c ****   /* Set the wake up method by setting the WAKE bit in the CR1 register */
 590:Drivers/STM32F3xx_HAL_Driver/Src/stm32f3xx_hal_uart.c ****   MODIFY_REG(huart->Instance->CR1, USART_CR1_WAKE, WakeUpMethod);
 536              		.loc 1 590 0
 537 00a0 FB68     		ldr	r3, [r7, #12]
 538 00a2 1B68     		ldr	r3, [r3]
 539 00a4 1B68     		ldr	r3, [r3]
 540 00a6 23F40061 		bic	r1, r3, #2048
 541 00aa FB68     		ldr	r3, [r7, #12]
 542 00ac 1B68     		ldr	r3, [r3]
 543 00ae 7A68     		ldr	r2, [r7, #4]
 544 00b0 0A43     		orrs	r2, r2, r1
 545 00b2 1A60     		str	r2, [r3]
 591:Drivers/STM32F3xx_HAL_Driver/Src/stm32f3xx_hal_uart.c **** 
 592:Drivers/STM32F3xx_HAL_Driver/Src/stm32f3xx_hal_uart.c ****   __HAL_UART_ENABLE(huart);
 546              		.loc 1 592 0
 547 00b4 FB68     		ldr	r3, [r7, #12]
 548 00b6 1B68     		ldr	r3, [r3]
 549 00b8 1A68     		ldr	r2, [r3]
 550 00ba FB68     		ldr	r3, [r7, #12]
 551 00bc 1B68     		ldr	r3, [r3]
 552 00be 42F00102 		orr	r2, r2, #1
 553 00c2 1A60     		str	r2, [r3]
 593:Drivers/STM32F3xx_HAL_Driver/Src/stm32f3xx_hal_uart.c **** 
 594:Drivers/STM32F3xx_HAL_Driver/Src/stm32f3xx_hal_uart.c ****   /* TEACK and/or REACK to check before moving huart->gState and huart->RxState to Ready */
ARM GAS  /tmp/ccfCzef7.s 			page 21


 595:Drivers/STM32F3xx_HAL_Driver/Src/stm32f3xx_hal_uart.c ****   return (UART_CheckIdleState(huart));
 554              		.loc 1 595 0
 555 00c4 F868     		ldr	r0, [r7, #12]
 556 00c6 FFF7FEFF 		bl	UART_CheckIdleState
 557 00ca 0346     		mov	r3, r0
 558              	.L23:
 596:Drivers/STM32F3xx_HAL_Driver/Src/stm32f3xx_hal_uart.c **** }
 559              		.loc 1 596 0
 560 00cc 1846     		mov	r0, r3
 561 00ce 1037     		adds	r7, r7, #16
 562              	.LCFI18:
 563              		.cfi_def_cfa_offset 8
 564 00d0 BD46     		mov	sp, r7
 565              	.LCFI19:
 566              		.cfi_def_cfa_register 13
 567              		@ sp needed
 568 00d2 80BD     		pop	{r7, pc}
 569              		.cfi_endproc
 570              	.LFE126:
 572              		.section	.text.HAL_UART_DeInit,"ax",%progbits
 573              		.align	1
 574              		.global	HAL_UART_DeInit
 575              		.syntax unified
 576              		.thumb
 577              		.thumb_func
 578              		.fpu fpv4-sp-d16
 580              	HAL_UART_DeInit:
 581              	.LFB127:
 597:Drivers/STM32F3xx_HAL_Driver/Src/stm32f3xx_hal_uart.c **** 
 598:Drivers/STM32F3xx_HAL_Driver/Src/stm32f3xx_hal_uart.c **** 
 599:Drivers/STM32F3xx_HAL_Driver/Src/stm32f3xx_hal_uart.c **** /**
 600:Drivers/STM32F3xx_HAL_Driver/Src/stm32f3xx_hal_uart.c ****   * @brief DeInitialize the UART peripheral.
 601:Drivers/STM32F3xx_HAL_Driver/Src/stm32f3xx_hal_uart.c ****   * @param huart UART handle.
 602:Drivers/STM32F3xx_HAL_Driver/Src/stm32f3xx_hal_uart.c ****   * @retval HAL status
 603:Drivers/STM32F3xx_HAL_Driver/Src/stm32f3xx_hal_uart.c ****   */
 604:Drivers/STM32F3xx_HAL_Driver/Src/stm32f3xx_hal_uart.c **** HAL_StatusTypeDef HAL_UART_DeInit(UART_HandleTypeDef *huart)
 605:Drivers/STM32F3xx_HAL_Driver/Src/stm32f3xx_hal_uart.c **** {
 582              		.loc 1 605 0
 583              		.cfi_startproc
 584              		@ args = 0, pretend = 0, frame = 8
 585              		@ frame_needed = 1, uses_anonymous_args = 0
 586 0000 80B5     		push	{r7, lr}
 587              	.LCFI20:
 588              		.cfi_def_cfa_offset 8
 589              		.cfi_offset 7, -8
 590              		.cfi_offset 14, -4
 591 0002 82B0     		sub	sp, sp, #8
 592              	.LCFI21:
 593              		.cfi_def_cfa_offset 16
 594 0004 00AF     		add	r7, sp, #0
 595              	.LCFI22:
 596              		.cfi_def_cfa_register 7
 597 0006 7860     		str	r0, [r7, #4]
 606:Drivers/STM32F3xx_HAL_Driver/Src/stm32f3xx_hal_uart.c ****   /* Check the UART handle allocation */
 607:Drivers/STM32F3xx_HAL_Driver/Src/stm32f3xx_hal_uart.c ****   if (huart == NULL)
 598              		.loc 1 607 0
 599 0008 7B68     		ldr	r3, [r7, #4]
ARM GAS  /tmp/ccfCzef7.s 			page 22


 600 000a 002B     		cmp	r3, #0
 601 000c 01D1     		bne	.L29
 608:Drivers/STM32F3xx_HAL_Driver/Src/stm32f3xx_hal_uart.c ****   {
 609:Drivers/STM32F3xx_HAL_Driver/Src/stm32f3xx_hal_uart.c ****     return HAL_ERROR;
 602              		.loc 1 609 0
 603 000e 0123     		movs	r3, #1
 604 0010 27E0     		b	.L30
 605              	.L29:
 610:Drivers/STM32F3xx_HAL_Driver/Src/stm32f3xx_hal_uart.c ****   }
 611:Drivers/STM32F3xx_HAL_Driver/Src/stm32f3xx_hal_uart.c **** 
 612:Drivers/STM32F3xx_HAL_Driver/Src/stm32f3xx_hal_uart.c ****   /* Check the parameters */
 613:Drivers/STM32F3xx_HAL_Driver/Src/stm32f3xx_hal_uart.c ****   assert_param(IS_UART_INSTANCE(huart->Instance));
 614:Drivers/STM32F3xx_HAL_Driver/Src/stm32f3xx_hal_uart.c **** 
 615:Drivers/STM32F3xx_HAL_Driver/Src/stm32f3xx_hal_uart.c ****   huart->gState = HAL_UART_STATE_BUSY;
 606              		.loc 1 615 0
 607 0012 7B68     		ldr	r3, [r7, #4]
 608 0014 2422     		movs	r2, #36
 609 0016 5A67     		str	r2, [r3, #116]
 616:Drivers/STM32F3xx_HAL_Driver/Src/stm32f3xx_hal_uart.c **** 
 617:Drivers/STM32F3xx_HAL_Driver/Src/stm32f3xx_hal_uart.c ****   __HAL_UART_DISABLE(huart);
 610              		.loc 1 617 0
 611 0018 7B68     		ldr	r3, [r7, #4]
 612 001a 1B68     		ldr	r3, [r3]
 613 001c 1A68     		ldr	r2, [r3]
 614 001e 7B68     		ldr	r3, [r7, #4]
 615 0020 1B68     		ldr	r3, [r3]
 616 0022 22F00102 		bic	r2, r2, #1
 617 0026 1A60     		str	r2, [r3]
 618:Drivers/STM32F3xx_HAL_Driver/Src/stm32f3xx_hal_uart.c **** 
 619:Drivers/STM32F3xx_HAL_Driver/Src/stm32f3xx_hal_uart.c ****   huart->Instance->CR1 = 0x0U;
 618              		.loc 1 619 0
 619 0028 7B68     		ldr	r3, [r7, #4]
 620 002a 1B68     		ldr	r3, [r3]
 621 002c 0022     		movs	r2, #0
 622 002e 1A60     		str	r2, [r3]
 620:Drivers/STM32F3xx_HAL_Driver/Src/stm32f3xx_hal_uart.c ****   huart->Instance->CR2 = 0x0U;
 623              		.loc 1 620 0
 624 0030 7B68     		ldr	r3, [r7, #4]
 625 0032 1B68     		ldr	r3, [r3]
 626 0034 0022     		movs	r2, #0
 627 0036 5A60     		str	r2, [r3, #4]
 621:Drivers/STM32F3xx_HAL_Driver/Src/stm32f3xx_hal_uart.c ****   huart->Instance->CR3 = 0x0U;
 628              		.loc 1 621 0
 629 0038 7B68     		ldr	r3, [r7, #4]
 630 003a 1B68     		ldr	r3, [r3]
 631 003c 0022     		movs	r2, #0
 632 003e 9A60     		str	r2, [r3, #8]
 622:Drivers/STM32F3xx_HAL_Driver/Src/stm32f3xx_hal_uart.c **** 
 623:Drivers/STM32F3xx_HAL_Driver/Src/stm32f3xx_hal_uart.c **** #if (USE_HAL_UART_REGISTER_CALLBACKS == 1)
 624:Drivers/STM32F3xx_HAL_Driver/Src/stm32f3xx_hal_uart.c ****   if (huart->MspDeInitCallback == NULL)
 625:Drivers/STM32F3xx_HAL_Driver/Src/stm32f3xx_hal_uart.c ****   {
 626:Drivers/STM32F3xx_HAL_Driver/Src/stm32f3xx_hal_uart.c ****     huart->MspDeInitCallback = HAL_UART_MspDeInit;
 627:Drivers/STM32F3xx_HAL_Driver/Src/stm32f3xx_hal_uart.c ****   }
 628:Drivers/STM32F3xx_HAL_Driver/Src/stm32f3xx_hal_uart.c ****   /* DeInit the low level hardware */
 629:Drivers/STM32F3xx_HAL_Driver/Src/stm32f3xx_hal_uart.c ****   huart->MspDeInitCallback(huart);
 630:Drivers/STM32F3xx_HAL_Driver/Src/stm32f3xx_hal_uart.c **** #else
 631:Drivers/STM32F3xx_HAL_Driver/Src/stm32f3xx_hal_uart.c ****   /* DeInit the low level hardware */
ARM GAS  /tmp/ccfCzef7.s 			page 23


 632:Drivers/STM32F3xx_HAL_Driver/Src/stm32f3xx_hal_uart.c ****   HAL_UART_MspDeInit(huart);
 633              		.loc 1 632 0
 634 0040 7868     		ldr	r0, [r7, #4]
 635 0042 FFF7FEFF 		bl	HAL_UART_MspDeInit
 633:Drivers/STM32F3xx_HAL_Driver/Src/stm32f3xx_hal_uart.c **** #endif /* (USE_HAL_UART_REGISTER_CALLBACKS) */
 634:Drivers/STM32F3xx_HAL_Driver/Src/stm32f3xx_hal_uart.c **** 
 635:Drivers/STM32F3xx_HAL_Driver/Src/stm32f3xx_hal_uart.c ****   huart->ErrorCode = HAL_UART_ERROR_NONE;
 636              		.loc 1 635 0
 637 0046 7B68     		ldr	r3, [r7, #4]
 638 0048 0022     		movs	r2, #0
 639 004a DA67     		str	r2, [r3, #124]
 636:Drivers/STM32F3xx_HAL_Driver/Src/stm32f3xx_hal_uart.c ****   huart->gState = HAL_UART_STATE_RESET;
 640              		.loc 1 636 0
 641 004c 7B68     		ldr	r3, [r7, #4]
 642 004e 0022     		movs	r2, #0
 643 0050 5A67     		str	r2, [r3, #116]
 637:Drivers/STM32F3xx_HAL_Driver/Src/stm32f3xx_hal_uart.c ****   huart->RxState = HAL_UART_STATE_RESET;
 644              		.loc 1 637 0
 645 0052 7B68     		ldr	r3, [r7, #4]
 646 0054 0022     		movs	r2, #0
 647 0056 9A67     		str	r2, [r3, #120]
 638:Drivers/STM32F3xx_HAL_Driver/Src/stm32f3xx_hal_uart.c **** 
 639:Drivers/STM32F3xx_HAL_Driver/Src/stm32f3xx_hal_uart.c ****   __HAL_UNLOCK(huart);
 648              		.loc 1 639 0
 649 0058 7B68     		ldr	r3, [r7, #4]
 650 005a 0022     		movs	r2, #0
 651 005c 83F87020 		strb	r2, [r3, #112]
 640:Drivers/STM32F3xx_HAL_Driver/Src/stm32f3xx_hal_uart.c **** 
 641:Drivers/STM32F3xx_HAL_Driver/Src/stm32f3xx_hal_uart.c ****   return HAL_OK;
 652              		.loc 1 641 0
 653 0060 0023     		movs	r3, #0
 654              	.L30:
 642:Drivers/STM32F3xx_HAL_Driver/Src/stm32f3xx_hal_uart.c **** }
 655              		.loc 1 642 0
 656 0062 1846     		mov	r0, r3
 657 0064 0837     		adds	r7, r7, #8
 658              	.LCFI23:
 659              		.cfi_def_cfa_offset 8
 660 0066 BD46     		mov	sp, r7
 661              	.LCFI24:
 662              		.cfi_def_cfa_register 13
 663              		@ sp needed
 664 0068 80BD     		pop	{r7, pc}
 665              		.cfi_endproc
 666              	.LFE127:
 668              		.section	.text.HAL_UART_MspInit,"ax",%progbits
 669              		.align	1
 670              		.weak	HAL_UART_MspInit
 671              		.syntax unified
 672              		.thumb
 673              		.thumb_func
 674              		.fpu fpv4-sp-d16
 676              	HAL_UART_MspInit:
 677              	.LFB128:
 643:Drivers/STM32F3xx_HAL_Driver/Src/stm32f3xx_hal_uart.c **** 
 644:Drivers/STM32F3xx_HAL_Driver/Src/stm32f3xx_hal_uart.c **** /**
 645:Drivers/STM32F3xx_HAL_Driver/Src/stm32f3xx_hal_uart.c ****   * @brief Initialize the UART MSP.
ARM GAS  /tmp/ccfCzef7.s 			page 24


 646:Drivers/STM32F3xx_HAL_Driver/Src/stm32f3xx_hal_uart.c ****   * @param huart UART handle.
 647:Drivers/STM32F3xx_HAL_Driver/Src/stm32f3xx_hal_uart.c ****   * @retval None
 648:Drivers/STM32F3xx_HAL_Driver/Src/stm32f3xx_hal_uart.c ****   */
 649:Drivers/STM32F3xx_HAL_Driver/Src/stm32f3xx_hal_uart.c **** __weak void HAL_UART_MspInit(UART_HandleTypeDef *huart)
 650:Drivers/STM32F3xx_HAL_Driver/Src/stm32f3xx_hal_uart.c **** {
 678              		.loc 1 650 0
 679              		.cfi_startproc
 680              		@ args = 0, pretend = 0, frame = 8
 681              		@ frame_needed = 1, uses_anonymous_args = 0
 682              		@ link register save eliminated.
 683 0000 80B4     		push	{r7}
 684              	.LCFI25:
 685              		.cfi_def_cfa_offset 4
 686              		.cfi_offset 7, -4
 687 0002 83B0     		sub	sp, sp, #12
 688              	.LCFI26:
 689              		.cfi_def_cfa_offset 16
 690 0004 00AF     		add	r7, sp, #0
 691              	.LCFI27:
 692              		.cfi_def_cfa_register 7
 693 0006 7860     		str	r0, [r7, #4]
 651:Drivers/STM32F3xx_HAL_Driver/Src/stm32f3xx_hal_uart.c ****   /* Prevent unused argument(s) compilation warning */
 652:Drivers/STM32F3xx_HAL_Driver/Src/stm32f3xx_hal_uart.c ****   UNUSED(huart);
 653:Drivers/STM32F3xx_HAL_Driver/Src/stm32f3xx_hal_uart.c **** 
 654:Drivers/STM32F3xx_HAL_Driver/Src/stm32f3xx_hal_uart.c ****   /* NOTE : This function should not be modified, when the callback is needed,
 655:Drivers/STM32F3xx_HAL_Driver/Src/stm32f3xx_hal_uart.c ****             the HAL_UART_MspInit can be implemented in the user file
 656:Drivers/STM32F3xx_HAL_Driver/Src/stm32f3xx_hal_uart.c ****    */
 657:Drivers/STM32F3xx_HAL_Driver/Src/stm32f3xx_hal_uart.c **** }
 694              		.loc 1 657 0
 695 0008 00BF     		nop
 696 000a 0C37     		adds	r7, r7, #12
 697              	.LCFI28:
 698              		.cfi_def_cfa_offset 4
 699 000c BD46     		mov	sp, r7
 700              	.LCFI29:
 701              		.cfi_def_cfa_register 13
 702              		@ sp needed
 703 000e 5DF8047B 		ldr	r7, [sp], #4
 704              	.LCFI30:
 705              		.cfi_restore 7
 706              		.cfi_def_cfa_offset 0
 707 0012 7047     		bx	lr
 708              		.cfi_endproc
 709              	.LFE128:
 711              		.section	.text.HAL_UART_MspDeInit,"ax",%progbits
 712              		.align	1
 713              		.weak	HAL_UART_MspDeInit
 714              		.syntax unified
 715              		.thumb
 716              		.thumb_func
 717              		.fpu fpv4-sp-d16
 719              	HAL_UART_MspDeInit:
 720              	.LFB129:
 658:Drivers/STM32F3xx_HAL_Driver/Src/stm32f3xx_hal_uart.c **** 
 659:Drivers/STM32F3xx_HAL_Driver/Src/stm32f3xx_hal_uart.c **** /**
 660:Drivers/STM32F3xx_HAL_Driver/Src/stm32f3xx_hal_uart.c ****   * @brief DeInitialize the UART MSP.
 661:Drivers/STM32F3xx_HAL_Driver/Src/stm32f3xx_hal_uart.c ****   * @param huart UART handle.
ARM GAS  /tmp/ccfCzef7.s 			page 25


 662:Drivers/STM32F3xx_HAL_Driver/Src/stm32f3xx_hal_uart.c ****   * @retval None
 663:Drivers/STM32F3xx_HAL_Driver/Src/stm32f3xx_hal_uart.c ****   */
 664:Drivers/STM32F3xx_HAL_Driver/Src/stm32f3xx_hal_uart.c **** __weak void HAL_UART_MspDeInit(UART_HandleTypeDef *huart)
 665:Drivers/STM32F3xx_HAL_Driver/Src/stm32f3xx_hal_uart.c **** {
 721              		.loc 1 665 0
 722              		.cfi_startproc
 723              		@ args = 0, pretend = 0, frame = 8
 724              		@ frame_needed = 1, uses_anonymous_args = 0
 725              		@ link register save eliminated.
 726 0000 80B4     		push	{r7}
 727              	.LCFI31:
 728              		.cfi_def_cfa_offset 4
 729              		.cfi_offset 7, -4
 730 0002 83B0     		sub	sp, sp, #12
 731              	.LCFI32:
 732              		.cfi_def_cfa_offset 16
 733 0004 00AF     		add	r7, sp, #0
 734              	.LCFI33:
 735              		.cfi_def_cfa_register 7
 736 0006 7860     		str	r0, [r7, #4]
 666:Drivers/STM32F3xx_HAL_Driver/Src/stm32f3xx_hal_uart.c ****   /* Prevent unused argument(s) compilation warning */
 667:Drivers/STM32F3xx_HAL_Driver/Src/stm32f3xx_hal_uart.c ****   UNUSED(huart);
 668:Drivers/STM32F3xx_HAL_Driver/Src/stm32f3xx_hal_uart.c **** 
 669:Drivers/STM32F3xx_HAL_Driver/Src/stm32f3xx_hal_uart.c ****   /* NOTE : This function should not be modified, when the callback is needed,
 670:Drivers/STM32F3xx_HAL_Driver/Src/stm32f3xx_hal_uart.c ****             the HAL_UART_MspDeInit can be implemented in the user file
 671:Drivers/STM32F3xx_HAL_Driver/Src/stm32f3xx_hal_uart.c ****    */
 672:Drivers/STM32F3xx_HAL_Driver/Src/stm32f3xx_hal_uart.c **** }
 737              		.loc 1 672 0
 738 0008 00BF     		nop
 739 000a 0C37     		adds	r7, r7, #12
 740              	.LCFI34:
 741              		.cfi_def_cfa_offset 4
 742 000c BD46     		mov	sp, r7
 743              	.LCFI35:
 744              		.cfi_def_cfa_register 13
 745              		@ sp needed
 746 000e 5DF8047B 		ldr	r7, [sp], #4
 747              	.LCFI36:
 748              		.cfi_restore 7
 749              		.cfi_def_cfa_offset 0
 750 0012 7047     		bx	lr
 751              		.cfi_endproc
 752              	.LFE129:
 754              		.section	.text.HAL_UART_Transmit,"ax",%progbits
 755              		.align	1
 756              		.global	HAL_UART_Transmit
 757              		.syntax unified
 758              		.thumb
 759              		.thumb_func
 760              		.fpu fpv4-sp-d16
 762              	HAL_UART_Transmit:
 763              	.LFB130:
 673:Drivers/STM32F3xx_HAL_Driver/Src/stm32f3xx_hal_uart.c **** 
 674:Drivers/STM32F3xx_HAL_Driver/Src/stm32f3xx_hal_uart.c **** #if (USE_HAL_UART_REGISTER_CALLBACKS == 1)
 675:Drivers/STM32F3xx_HAL_Driver/Src/stm32f3xx_hal_uart.c **** /**
 676:Drivers/STM32F3xx_HAL_Driver/Src/stm32f3xx_hal_uart.c ****   * @brief  Register a User UART Callback
 677:Drivers/STM32F3xx_HAL_Driver/Src/stm32f3xx_hal_uart.c ****   *         To be used instead of the weak predefined callback
ARM GAS  /tmp/ccfCzef7.s 			page 26


 678:Drivers/STM32F3xx_HAL_Driver/Src/stm32f3xx_hal_uart.c ****   * @param  huart uart handle
 679:Drivers/STM32F3xx_HAL_Driver/Src/stm32f3xx_hal_uart.c ****   * @param  CallbackID ID of the callback to be registered
 680:Drivers/STM32F3xx_HAL_Driver/Src/stm32f3xx_hal_uart.c ****   *         This parameter can be one of the following values:
 681:Drivers/STM32F3xx_HAL_Driver/Src/stm32f3xx_hal_uart.c ****   *           @arg @ref HAL_UART_TX_HALFCOMPLETE_CB_ID Tx Half Complete Callback ID
 682:Drivers/STM32F3xx_HAL_Driver/Src/stm32f3xx_hal_uart.c ****   *           @arg @ref HAL_UART_TX_COMPLETE_CB_ID Tx Complete Callback ID
 683:Drivers/STM32F3xx_HAL_Driver/Src/stm32f3xx_hal_uart.c ****   *           @arg @ref HAL_UART_RX_HALFCOMPLETE_CB_ID Rx Half Complete Callback ID
 684:Drivers/STM32F3xx_HAL_Driver/Src/stm32f3xx_hal_uart.c ****   *           @arg @ref HAL_UART_RX_COMPLETE_CB_ID Rx Complete Callback ID
 685:Drivers/STM32F3xx_HAL_Driver/Src/stm32f3xx_hal_uart.c ****   *           @arg @ref HAL_UART_ERROR_CB_ID Error Callback ID
 686:Drivers/STM32F3xx_HAL_Driver/Src/stm32f3xx_hal_uart.c ****   *           @arg @ref HAL_UART_ABORT_COMPLETE_CB_ID Abort Complete Callback ID
 687:Drivers/STM32F3xx_HAL_Driver/Src/stm32f3xx_hal_uart.c ****   *           @arg @ref HAL_UART_ABORT_TRANSMIT_COMPLETE_CB_ID Abort Transmit Complete Callback ID
 688:Drivers/STM32F3xx_HAL_Driver/Src/stm32f3xx_hal_uart.c ****   *           @arg @ref HAL_UART_ABORT_RECEIVE_COMPLETE_CB_ID Abort Receive Complete Callback ID
 689:Drivers/STM32F3xx_HAL_Driver/Src/stm32f3xx_hal_uart.c ****   *           @arg @ref HAL_UART_WAKEUP_CB_ID Wakeup Callback ID
 690:Drivers/STM32F3xx_HAL_Driver/Src/stm32f3xx_hal_uart.c ****   *           @arg @ref HAL_UART_RX_FIFO_FULL_CB_ID Rx Fifo Full Callback ID
 691:Drivers/STM32F3xx_HAL_Driver/Src/stm32f3xx_hal_uart.c ****   *           @arg @ref HAL_UART_TX_FIFO_EMPTY_CB_ID Tx Fifo Empty Callback ID
 692:Drivers/STM32F3xx_HAL_Driver/Src/stm32f3xx_hal_uart.c ****   *           @arg @ref HAL_UART_MSPINIT_CB_ID MspInit Callback ID
 693:Drivers/STM32F3xx_HAL_Driver/Src/stm32f3xx_hal_uart.c ****   *           @arg @ref HAL_UART_MSPDEINIT_CB_ID MspDeInit Callback ID
 694:Drivers/STM32F3xx_HAL_Driver/Src/stm32f3xx_hal_uart.c ****   * @param  pCallback pointer to the Callback function
 695:Drivers/STM32F3xx_HAL_Driver/Src/stm32f3xx_hal_uart.c ****   * @retval HAL status
 696:Drivers/STM32F3xx_HAL_Driver/Src/stm32f3xx_hal_uart.c ****   */
 697:Drivers/STM32F3xx_HAL_Driver/Src/stm32f3xx_hal_uart.c **** HAL_StatusTypeDef HAL_UART_RegisterCallback(UART_HandleTypeDef *huart, HAL_UART_CallbackIDTypeDef C
 698:Drivers/STM32F3xx_HAL_Driver/Src/stm32f3xx_hal_uart.c ****                                             pUART_CallbackTypeDef pCallback)
 699:Drivers/STM32F3xx_HAL_Driver/Src/stm32f3xx_hal_uart.c **** {
 700:Drivers/STM32F3xx_HAL_Driver/Src/stm32f3xx_hal_uart.c ****   HAL_StatusTypeDef status = HAL_OK;
 701:Drivers/STM32F3xx_HAL_Driver/Src/stm32f3xx_hal_uart.c **** 
 702:Drivers/STM32F3xx_HAL_Driver/Src/stm32f3xx_hal_uart.c ****   if (pCallback == NULL)
 703:Drivers/STM32F3xx_HAL_Driver/Src/stm32f3xx_hal_uart.c ****   {
 704:Drivers/STM32F3xx_HAL_Driver/Src/stm32f3xx_hal_uart.c ****     huart->ErrorCode |= HAL_UART_ERROR_INVALID_CALLBACK;
 705:Drivers/STM32F3xx_HAL_Driver/Src/stm32f3xx_hal_uart.c **** 
 706:Drivers/STM32F3xx_HAL_Driver/Src/stm32f3xx_hal_uart.c ****     return HAL_ERROR;
 707:Drivers/STM32F3xx_HAL_Driver/Src/stm32f3xx_hal_uart.c ****   }
 708:Drivers/STM32F3xx_HAL_Driver/Src/stm32f3xx_hal_uart.c **** 
 709:Drivers/STM32F3xx_HAL_Driver/Src/stm32f3xx_hal_uart.c ****   __HAL_LOCK(huart);
 710:Drivers/STM32F3xx_HAL_Driver/Src/stm32f3xx_hal_uart.c **** 
 711:Drivers/STM32F3xx_HAL_Driver/Src/stm32f3xx_hal_uart.c ****   if (huart->gState == HAL_UART_STATE_READY)
 712:Drivers/STM32F3xx_HAL_Driver/Src/stm32f3xx_hal_uart.c ****   {
 713:Drivers/STM32F3xx_HAL_Driver/Src/stm32f3xx_hal_uart.c ****     switch (CallbackID)
 714:Drivers/STM32F3xx_HAL_Driver/Src/stm32f3xx_hal_uart.c ****     {
 715:Drivers/STM32F3xx_HAL_Driver/Src/stm32f3xx_hal_uart.c ****       case HAL_UART_TX_HALFCOMPLETE_CB_ID :
 716:Drivers/STM32F3xx_HAL_Driver/Src/stm32f3xx_hal_uart.c ****         huart->TxHalfCpltCallback = pCallback;
 717:Drivers/STM32F3xx_HAL_Driver/Src/stm32f3xx_hal_uart.c ****         break;
 718:Drivers/STM32F3xx_HAL_Driver/Src/stm32f3xx_hal_uart.c **** 
 719:Drivers/STM32F3xx_HAL_Driver/Src/stm32f3xx_hal_uart.c ****       case HAL_UART_TX_COMPLETE_CB_ID :
 720:Drivers/STM32F3xx_HAL_Driver/Src/stm32f3xx_hal_uart.c ****         huart->TxCpltCallback = pCallback;
 721:Drivers/STM32F3xx_HAL_Driver/Src/stm32f3xx_hal_uart.c ****         break;
 722:Drivers/STM32F3xx_HAL_Driver/Src/stm32f3xx_hal_uart.c **** 
 723:Drivers/STM32F3xx_HAL_Driver/Src/stm32f3xx_hal_uart.c ****       case HAL_UART_RX_HALFCOMPLETE_CB_ID :
 724:Drivers/STM32F3xx_HAL_Driver/Src/stm32f3xx_hal_uart.c ****         huart->RxHalfCpltCallback = pCallback;
 725:Drivers/STM32F3xx_HAL_Driver/Src/stm32f3xx_hal_uart.c ****         break;
 726:Drivers/STM32F3xx_HAL_Driver/Src/stm32f3xx_hal_uart.c **** 
 727:Drivers/STM32F3xx_HAL_Driver/Src/stm32f3xx_hal_uart.c ****       case HAL_UART_RX_COMPLETE_CB_ID :
 728:Drivers/STM32F3xx_HAL_Driver/Src/stm32f3xx_hal_uart.c ****         huart->RxCpltCallback = pCallback;
 729:Drivers/STM32F3xx_HAL_Driver/Src/stm32f3xx_hal_uart.c ****         break;
 730:Drivers/STM32F3xx_HAL_Driver/Src/stm32f3xx_hal_uart.c **** 
 731:Drivers/STM32F3xx_HAL_Driver/Src/stm32f3xx_hal_uart.c ****       case HAL_UART_ERROR_CB_ID :
 732:Drivers/STM32F3xx_HAL_Driver/Src/stm32f3xx_hal_uart.c ****         huart->ErrorCallback = pCallback;
 733:Drivers/STM32F3xx_HAL_Driver/Src/stm32f3xx_hal_uart.c ****         break;
 734:Drivers/STM32F3xx_HAL_Driver/Src/stm32f3xx_hal_uart.c **** 
ARM GAS  /tmp/ccfCzef7.s 			page 27


 735:Drivers/STM32F3xx_HAL_Driver/Src/stm32f3xx_hal_uart.c ****       case HAL_UART_ABORT_COMPLETE_CB_ID :
 736:Drivers/STM32F3xx_HAL_Driver/Src/stm32f3xx_hal_uart.c ****         huart->AbortCpltCallback = pCallback;
 737:Drivers/STM32F3xx_HAL_Driver/Src/stm32f3xx_hal_uart.c ****         break;
 738:Drivers/STM32F3xx_HAL_Driver/Src/stm32f3xx_hal_uart.c **** 
 739:Drivers/STM32F3xx_HAL_Driver/Src/stm32f3xx_hal_uart.c ****       case HAL_UART_ABORT_TRANSMIT_COMPLETE_CB_ID :
 740:Drivers/STM32F3xx_HAL_Driver/Src/stm32f3xx_hal_uart.c ****         huart->AbortTransmitCpltCallback = pCallback;
 741:Drivers/STM32F3xx_HAL_Driver/Src/stm32f3xx_hal_uart.c ****         break;
 742:Drivers/STM32F3xx_HAL_Driver/Src/stm32f3xx_hal_uart.c **** 
 743:Drivers/STM32F3xx_HAL_Driver/Src/stm32f3xx_hal_uart.c ****       case HAL_UART_ABORT_RECEIVE_COMPLETE_CB_ID :
 744:Drivers/STM32F3xx_HAL_Driver/Src/stm32f3xx_hal_uart.c ****         huart->AbortReceiveCpltCallback = pCallback;
 745:Drivers/STM32F3xx_HAL_Driver/Src/stm32f3xx_hal_uart.c ****         break;
 746:Drivers/STM32F3xx_HAL_Driver/Src/stm32f3xx_hal_uart.c **** 
 747:Drivers/STM32F3xx_HAL_Driver/Src/stm32f3xx_hal_uart.c ****       case HAL_UART_WAKEUP_CB_ID :
 748:Drivers/STM32F3xx_HAL_Driver/Src/stm32f3xx_hal_uart.c ****         huart->WakeupCallback = pCallback;
 749:Drivers/STM32F3xx_HAL_Driver/Src/stm32f3xx_hal_uart.c ****         break;
 750:Drivers/STM32F3xx_HAL_Driver/Src/stm32f3xx_hal_uart.c **** 
 751:Drivers/STM32F3xx_HAL_Driver/Src/stm32f3xx_hal_uart.c **** 
 752:Drivers/STM32F3xx_HAL_Driver/Src/stm32f3xx_hal_uart.c ****       case HAL_UART_MSPINIT_CB_ID :
 753:Drivers/STM32F3xx_HAL_Driver/Src/stm32f3xx_hal_uart.c ****         huart->MspInitCallback = pCallback;
 754:Drivers/STM32F3xx_HAL_Driver/Src/stm32f3xx_hal_uart.c ****         break;
 755:Drivers/STM32F3xx_HAL_Driver/Src/stm32f3xx_hal_uart.c **** 
 756:Drivers/STM32F3xx_HAL_Driver/Src/stm32f3xx_hal_uart.c ****       case HAL_UART_MSPDEINIT_CB_ID :
 757:Drivers/STM32F3xx_HAL_Driver/Src/stm32f3xx_hal_uart.c ****         huart->MspDeInitCallback = pCallback;
 758:Drivers/STM32F3xx_HAL_Driver/Src/stm32f3xx_hal_uart.c ****         break;
 759:Drivers/STM32F3xx_HAL_Driver/Src/stm32f3xx_hal_uart.c **** 
 760:Drivers/STM32F3xx_HAL_Driver/Src/stm32f3xx_hal_uart.c ****       default :
 761:Drivers/STM32F3xx_HAL_Driver/Src/stm32f3xx_hal_uart.c ****         huart->ErrorCode |= HAL_UART_ERROR_INVALID_CALLBACK;
 762:Drivers/STM32F3xx_HAL_Driver/Src/stm32f3xx_hal_uart.c **** 
 763:Drivers/STM32F3xx_HAL_Driver/Src/stm32f3xx_hal_uart.c ****         status =  HAL_ERROR;
 764:Drivers/STM32F3xx_HAL_Driver/Src/stm32f3xx_hal_uart.c ****         break;
 765:Drivers/STM32F3xx_HAL_Driver/Src/stm32f3xx_hal_uart.c ****     }
 766:Drivers/STM32F3xx_HAL_Driver/Src/stm32f3xx_hal_uart.c ****   }
 767:Drivers/STM32F3xx_HAL_Driver/Src/stm32f3xx_hal_uart.c ****   else if (huart->gState == HAL_UART_STATE_RESET)
 768:Drivers/STM32F3xx_HAL_Driver/Src/stm32f3xx_hal_uart.c ****   {
 769:Drivers/STM32F3xx_HAL_Driver/Src/stm32f3xx_hal_uart.c ****     switch (CallbackID)
 770:Drivers/STM32F3xx_HAL_Driver/Src/stm32f3xx_hal_uart.c ****     {
 771:Drivers/STM32F3xx_HAL_Driver/Src/stm32f3xx_hal_uart.c ****       case HAL_UART_MSPINIT_CB_ID :
 772:Drivers/STM32F3xx_HAL_Driver/Src/stm32f3xx_hal_uart.c ****         huart->MspInitCallback = pCallback;
 773:Drivers/STM32F3xx_HAL_Driver/Src/stm32f3xx_hal_uart.c ****         break;
 774:Drivers/STM32F3xx_HAL_Driver/Src/stm32f3xx_hal_uart.c **** 
 775:Drivers/STM32F3xx_HAL_Driver/Src/stm32f3xx_hal_uart.c ****       case HAL_UART_MSPDEINIT_CB_ID :
 776:Drivers/STM32F3xx_HAL_Driver/Src/stm32f3xx_hal_uart.c ****         huart->MspDeInitCallback = pCallback;
 777:Drivers/STM32F3xx_HAL_Driver/Src/stm32f3xx_hal_uart.c ****         break;
 778:Drivers/STM32F3xx_HAL_Driver/Src/stm32f3xx_hal_uart.c **** 
 779:Drivers/STM32F3xx_HAL_Driver/Src/stm32f3xx_hal_uart.c ****       default :
 780:Drivers/STM32F3xx_HAL_Driver/Src/stm32f3xx_hal_uart.c ****         huart->ErrorCode |= HAL_UART_ERROR_INVALID_CALLBACK;
 781:Drivers/STM32F3xx_HAL_Driver/Src/stm32f3xx_hal_uart.c **** 
 782:Drivers/STM32F3xx_HAL_Driver/Src/stm32f3xx_hal_uart.c ****         status =  HAL_ERROR;
 783:Drivers/STM32F3xx_HAL_Driver/Src/stm32f3xx_hal_uart.c ****         break;
 784:Drivers/STM32F3xx_HAL_Driver/Src/stm32f3xx_hal_uart.c ****     }
 785:Drivers/STM32F3xx_HAL_Driver/Src/stm32f3xx_hal_uart.c ****   }
 786:Drivers/STM32F3xx_HAL_Driver/Src/stm32f3xx_hal_uart.c ****   else
 787:Drivers/STM32F3xx_HAL_Driver/Src/stm32f3xx_hal_uart.c ****   {
 788:Drivers/STM32F3xx_HAL_Driver/Src/stm32f3xx_hal_uart.c ****     huart->ErrorCode |= HAL_UART_ERROR_INVALID_CALLBACK;
 789:Drivers/STM32F3xx_HAL_Driver/Src/stm32f3xx_hal_uart.c **** 
 790:Drivers/STM32F3xx_HAL_Driver/Src/stm32f3xx_hal_uart.c ****     status =  HAL_ERROR;
 791:Drivers/STM32F3xx_HAL_Driver/Src/stm32f3xx_hal_uart.c ****   }
ARM GAS  /tmp/ccfCzef7.s 			page 28


 792:Drivers/STM32F3xx_HAL_Driver/Src/stm32f3xx_hal_uart.c **** 
 793:Drivers/STM32F3xx_HAL_Driver/Src/stm32f3xx_hal_uart.c ****   __HAL_UNLOCK(huart);
 794:Drivers/STM32F3xx_HAL_Driver/Src/stm32f3xx_hal_uart.c **** 
 795:Drivers/STM32F3xx_HAL_Driver/Src/stm32f3xx_hal_uart.c ****   return status;
 796:Drivers/STM32F3xx_HAL_Driver/Src/stm32f3xx_hal_uart.c **** }
 797:Drivers/STM32F3xx_HAL_Driver/Src/stm32f3xx_hal_uart.c **** 
 798:Drivers/STM32F3xx_HAL_Driver/Src/stm32f3xx_hal_uart.c **** /**
 799:Drivers/STM32F3xx_HAL_Driver/Src/stm32f3xx_hal_uart.c ****   * @brief  Unregister an UART Callback
 800:Drivers/STM32F3xx_HAL_Driver/Src/stm32f3xx_hal_uart.c ****   *         UART callaback is redirected to the weak predefined callback
 801:Drivers/STM32F3xx_HAL_Driver/Src/stm32f3xx_hal_uart.c ****   * @param  huart uart handle
 802:Drivers/STM32F3xx_HAL_Driver/Src/stm32f3xx_hal_uart.c ****   * @param  CallbackID ID of the callback to be unregistered
 803:Drivers/STM32F3xx_HAL_Driver/Src/stm32f3xx_hal_uart.c ****   *         This parameter can be one of the following values:
 804:Drivers/STM32F3xx_HAL_Driver/Src/stm32f3xx_hal_uart.c ****   *           @arg @ref HAL_UART_TX_HALFCOMPLETE_CB_ID Tx Half Complete Callback ID
 805:Drivers/STM32F3xx_HAL_Driver/Src/stm32f3xx_hal_uart.c ****   *           @arg @ref HAL_UART_TX_COMPLETE_CB_ID Tx Complete Callback ID
 806:Drivers/STM32F3xx_HAL_Driver/Src/stm32f3xx_hal_uart.c ****   *           @arg @ref HAL_UART_RX_HALFCOMPLETE_CB_ID Rx Half Complete Callback ID
 807:Drivers/STM32F3xx_HAL_Driver/Src/stm32f3xx_hal_uart.c ****   *           @arg @ref HAL_UART_RX_COMPLETE_CB_ID Rx Complete Callback ID
 808:Drivers/STM32F3xx_HAL_Driver/Src/stm32f3xx_hal_uart.c ****   *           @arg @ref HAL_UART_ERROR_CB_ID Error Callback ID
 809:Drivers/STM32F3xx_HAL_Driver/Src/stm32f3xx_hal_uart.c ****   *           @arg @ref HAL_UART_ABORT_COMPLETE_CB_ID Abort Complete Callback ID
 810:Drivers/STM32F3xx_HAL_Driver/Src/stm32f3xx_hal_uart.c ****   *           @arg @ref HAL_UART_ABORT_TRANSMIT_COMPLETE_CB_ID Abort Transmit Complete Callback ID
 811:Drivers/STM32F3xx_HAL_Driver/Src/stm32f3xx_hal_uart.c ****   *           @arg @ref HAL_UART_ABORT_RECEIVE_COMPLETE_CB_ID Abort Receive Complete Callback ID
 812:Drivers/STM32F3xx_HAL_Driver/Src/stm32f3xx_hal_uart.c ****   *           @arg @ref HAL_UART_WAKEUP_CB_ID Wakeup Callback ID
 813:Drivers/STM32F3xx_HAL_Driver/Src/stm32f3xx_hal_uart.c ****   *           @arg @ref HAL_UART_RX_FIFO_FULL_CB_ID Rx Fifo Full Callback ID
 814:Drivers/STM32F3xx_HAL_Driver/Src/stm32f3xx_hal_uart.c ****   *           @arg @ref HAL_UART_TX_FIFO_EMPTY_CB_ID Tx Fifo Empty Callback ID
 815:Drivers/STM32F3xx_HAL_Driver/Src/stm32f3xx_hal_uart.c ****   *           @arg @ref HAL_UART_MSPINIT_CB_ID MspInit Callback ID
 816:Drivers/STM32F3xx_HAL_Driver/Src/stm32f3xx_hal_uart.c ****   *           @arg @ref HAL_UART_MSPDEINIT_CB_ID MspDeInit Callback ID
 817:Drivers/STM32F3xx_HAL_Driver/Src/stm32f3xx_hal_uart.c ****   * @retval HAL status
 818:Drivers/STM32F3xx_HAL_Driver/Src/stm32f3xx_hal_uart.c ****   */
 819:Drivers/STM32F3xx_HAL_Driver/Src/stm32f3xx_hal_uart.c **** HAL_StatusTypeDef HAL_UART_UnRegisterCallback(UART_HandleTypeDef *huart, HAL_UART_CallbackIDTypeDef
 820:Drivers/STM32F3xx_HAL_Driver/Src/stm32f3xx_hal_uart.c **** {
 821:Drivers/STM32F3xx_HAL_Driver/Src/stm32f3xx_hal_uart.c ****   HAL_StatusTypeDef status = HAL_OK;
 822:Drivers/STM32F3xx_HAL_Driver/Src/stm32f3xx_hal_uart.c **** 
 823:Drivers/STM32F3xx_HAL_Driver/Src/stm32f3xx_hal_uart.c ****   __HAL_LOCK(huart);
 824:Drivers/STM32F3xx_HAL_Driver/Src/stm32f3xx_hal_uart.c **** 
 825:Drivers/STM32F3xx_HAL_Driver/Src/stm32f3xx_hal_uart.c ****   if (HAL_UART_STATE_READY == huart->gState)
 826:Drivers/STM32F3xx_HAL_Driver/Src/stm32f3xx_hal_uart.c ****   {
 827:Drivers/STM32F3xx_HAL_Driver/Src/stm32f3xx_hal_uart.c ****     switch (CallbackID)
 828:Drivers/STM32F3xx_HAL_Driver/Src/stm32f3xx_hal_uart.c ****     {
 829:Drivers/STM32F3xx_HAL_Driver/Src/stm32f3xx_hal_uart.c ****       case HAL_UART_TX_HALFCOMPLETE_CB_ID :
 830:Drivers/STM32F3xx_HAL_Driver/Src/stm32f3xx_hal_uart.c ****         huart->TxHalfCpltCallback = HAL_UART_TxHalfCpltCallback;               /* Legacy weak  TxHa
 831:Drivers/STM32F3xx_HAL_Driver/Src/stm32f3xx_hal_uart.c ****         break;
 832:Drivers/STM32F3xx_HAL_Driver/Src/stm32f3xx_hal_uart.c **** 
 833:Drivers/STM32F3xx_HAL_Driver/Src/stm32f3xx_hal_uart.c ****       case HAL_UART_TX_COMPLETE_CB_ID :
 834:Drivers/STM32F3xx_HAL_Driver/Src/stm32f3xx_hal_uart.c ****         huart->TxCpltCallback = HAL_UART_TxCpltCallback;                       /* Legacy weak TxCpl
 835:Drivers/STM32F3xx_HAL_Driver/Src/stm32f3xx_hal_uart.c ****         break;
 836:Drivers/STM32F3xx_HAL_Driver/Src/stm32f3xx_hal_uart.c **** 
 837:Drivers/STM32F3xx_HAL_Driver/Src/stm32f3xx_hal_uart.c ****       case HAL_UART_RX_HALFCOMPLETE_CB_ID :
 838:Drivers/STM32F3xx_HAL_Driver/Src/stm32f3xx_hal_uart.c ****         huart->RxHalfCpltCallback = HAL_UART_RxHalfCpltCallback;               /* Legacy weak RxHal
 839:Drivers/STM32F3xx_HAL_Driver/Src/stm32f3xx_hal_uart.c ****         break;
 840:Drivers/STM32F3xx_HAL_Driver/Src/stm32f3xx_hal_uart.c **** 
 841:Drivers/STM32F3xx_HAL_Driver/Src/stm32f3xx_hal_uart.c ****       case HAL_UART_RX_COMPLETE_CB_ID :
 842:Drivers/STM32F3xx_HAL_Driver/Src/stm32f3xx_hal_uart.c ****         huart->RxCpltCallback = HAL_UART_RxCpltCallback;                       /* Legacy weak RxCpl
 843:Drivers/STM32F3xx_HAL_Driver/Src/stm32f3xx_hal_uart.c ****         break;
 844:Drivers/STM32F3xx_HAL_Driver/Src/stm32f3xx_hal_uart.c **** 
 845:Drivers/STM32F3xx_HAL_Driver/Src/stm32f3xx_hal_uart.c ****       case HAL_UART_ERROR_CB_ID :
 846:Drivers/STM32F3xx_HAL_Driver/Src/stm32f3xx_hal_uart.c ****         huart->ErrorCallback = HAL_UART_ErrorCallback;                         /* Legacy weak Error
 847:Drivers/STM32F3xx_HAL_Driver/Src/stm32f3xx_hal_uart.c ****         break;
 848:Drivers/STM32F3xx_HAL_Driver/Src/stm32f3xx_hal_uart.c **** 
ARM GAS  /tmp/ccfCzef7.s 			page 29


 849:Drivers/STM32F3xx_HAL_Driver/Src/stm32f3xx_hal_uart.c ****       case HAL_UART_ABORT_COMPLETE_CB_ID :
 850:Drivers/STM32F3xx_HAL_Driver/Src/stm32f3xx_hal_uart.c ****         huart->AbortCpltCallback = HAL_UART_AbortCpltCallback;                 /* Legacy weak Abort
 851:Drivers/STM32F3xx_HAL_Driver/Src/stm32f3xx_hal_uart.c ****         break;
 852:Drivers/STM32F3xx_HAL_Driver/Src/stm32f3xx_hal_uart.c **** 
 853:Drivers/STM32F3xx_HAL_Driver/Src/stm32f3xx_hal_uart.c ****       case HAL_UART_ABORT_TRANSMIT_COMPLETE_CB_ID :
 854:Drivers/STM32F3xx_HAL_Driver/Src/stm32f3xx_hal_uart.c ****         huart->AbortTransmitCpltCallback = HAL_UART_AbortTransmitCpltCallback; /* Legacy weak Abort
 855:Drivers/STM32F3xx_HAL_Driver/Src/stm32f3xx_hal_uart.c ****         break;
 856:Drivers/STM32F3xx_HAL_Driver/Src/stm32f3xx_hal_uart.c **** 
 857:Drivers/STM32F3xx_HAL_Driver/Src/stm32f3xx_hal_uart.c ****       case HAL_UART_ABORT_RECEIVE_COMPLETE_CB_ID :
 858:Drivers/STM32F3xx_HAL_Driver/Src/stm32f3xx_hal_uart.c ****         huart->AbortReceiveCpltCallback = HAL_UART_AbortReceiveCpltCallback;   /* Legacy weak Abort
 859:Drivers/STM32F3xx_HAL_Driver/Src/stm32f3xx_hal_uart.c ****         break;
 860:Drivers/STM32F3xx_HAL_Driver/Src/stm32f3xx_hal_uart.c **** 
 861:Drivers/STM32F3xx_HAL_Driver/Src/stm32f3xx_hal_uart.c ****       case HAL_UART_WAKEUP_CB_ID :
 862:Drivers/STM32F3xx_HAL_Driver/Src/stm32f3xx_hal_uart.c ****         huart->WakeupCallback = HAL_UARTEx_WakeupCallback;                     /* Legacy weak Wakeu
 863:Drivers/STM32F3xx_HAL_Driver/Src/stm32f3xx_hal_uart.c ****         break;
 864:Drivers/STM32F3xx_HAL_Driver/Src/stm32f3xx_hal_uart.c **** 
 865:Drivers/STM32F3xx_HAL_Driver/Src/stm32f3xx_hal_uart.c ****       case HAL_UART_MSPINIT_CB_ID :
 866:Drivers/STM32F3xx_HAL_Driver/Src/stm32f3xx_hal_uart.c ****         huart->MspInitCallback = HAL_UART_MspInit;                             /* Legacy weak MspIn
 867:Drivers/STM32F3xx_HAL_Driver/Src/stm32f3xx_hal_uart.c ****         break;
 868:Drivers/STM32F3xx_HAL_Driver/Src/stm32f3xx_hal_uart.c **** 
 869:Drivers/STM32F3xx_HAL_Driver/Src/stm32f3xx_hal_uart.c ****       case HAL_UART_MSPDEINIT_CB_ID :
 870:Drivers/STM32F3xx_HAL_Driver/Src/stm32f3xx_hal_uart.c ****         huart->MspDeInitCallback = HAL_UART_MspDeInit;                         /* Legacy weak MspDe
 871:Drivers/STM32F3xx_HAL_Driver/Src/stm32f3xx_hal_uart.c ****         break;
 872:Drivers/STM32F3xx_HAL_Driver/Src/stm32f3xx_hal_uart.c **** 
 873:Drivers/STM32F3xx_HAL_Driver/Src/stm32f3xx_hal_uart.c ****       default :
 874:Drivers/STM32F3xx_HAL_Driver/Src/stm32f3xx_hal_uart.c ****         huart->ErrorCode |= HAL_UART_ERROR_INVALID_CALLBACK;
 875:Drivers/STM32F3xx_HAL_Driver/Src/stm32f3xx_hal_uart.c **** 
 876:Drivers/STM32F3xx_HAL_Driver/Src/stm32f3xx_hal_uart.c ****         status =  HAL_ERROR;
 877:Drivers/STM32F3xx_HAL_Driver/Src/stm32f3xx_hal_uart.c ****         break;
 878:Drivers/STM32F3xx_HAL_Driver/Src/stm32f3xx_hal_uart.c ****     }
 879:Drivers/STM32F3xx_HAL_Driver/Src/stm32f3xx_hal_uart.c ****   }
 880:Drivers/STM32F3xx_HAL_Driver/Src/stm32f3xx_hal_uart.c ****   else if (HAL_UART_STATE_RESET == huart->gState)
 881:Drivers/STM32F3xx_HAL_Driver/Src/stm32f3xx_hal_uart.c ****   {
 882:Drivers/STM32F3xx_HAL_Driver/Src/stm32f3xx_hal_uart.c ****     switch (CallbackID)
 883:Drivers/STM32F3xx_HAL_Driver/Src/stm32f3xx_hal_uart.c ****     {
 884:Drivers/STM32F3xx_HAL_Driver/Src/stm32f3xx_hal_uart.c ****       case HAL_UART_MSPINIT_CB_ID :
 885:Drivers/STM32F3xx_HAL_Driver/Src/stm32f3xx_hal_uart.c ****         huart->MspInitCallback = HAL_UART_MspInit;
 886:Drivers/STM32F3xx_HAL_Driver/Src/stm32f3xx_hal_uart.c ****         break;
 887:Drivers/STM32F3xx_HAL_Driver/Src/stm32f3xx_hal_uart.c **** 
 888:Drivers/STM32F3xx_HAL_Driver/Src/stm32f3xx_hal_uart.c ****       case HAL_UART_MSPDEINIT_CB_ID :
 889:Drivers/STM32F3xx_HAL_Driver/Src/stm32f3xx_hal_uart.c ****         huart->MspDeInitCallback = HAL_UART_MspDeInit;
 890:Drivers/STM32F3xx_HAL_Driver/Src/stm32f3xx_hal_uart.c ****         break;
 891:Drivers/STM32F3xx_HAL_Driver/Src/stm32f3xx_hal_uart.c **** 
 892:Drivers/STM32F3xx_HAL_Driver/Src/stm32f3xx_hal_uart.c ****       default :
 893:Drivers/STM32F3xx_HAL_Driver/Src/stm32f3xx_hal_uart.c ****         huart->ErrorCode |= HAL_UART_ERROR_INVALID_CALLBACK;
 894:Drivers/STM32F3xx_HAL_Driver/Src/stm32f3xx_hal_uart.c **** 
 895:Drivers/STM32F3xx_HAL_Driver/Src/stm32f3xx_hal_uart.c ****         status =  HAL_ERROR;
 896:Drivers/STM32F3xx_HAL_Driver/Src/stm32f3xx_hal_uart.c ****         break;
 897:Drivers/STM32F3xx_HAL_Driver/Src/stm32f3xx_hal_uart.c ****     }
 898:Drivers/STM32F3xx_HAL_Driver/Src/stm32f3xx_hal_uart.c ****   }
 899:Drivers/STM32F3xx_HAL_Driver/Src/stm32f3xx_hal_uart.c ****   else
 900:Drivers/STM32F3xx_HAL_Driver/Src/stm32f3xx_hal_uart.c ****   {
 901:Drivers/STM32F3xx_HAL_Driver/Src/stm32f3xx_hal_uart.c ****     huart->ErrorCode |= HAL_UART_ERROR_INVALID_CALLBACK;
 902:Drivers/STM32F3xx_HAL_Driver/Src/stm32f3xx_hal_uart.c **** 
 903:Drivers/STM32F3xx_HAL_Driver/Src/stm32f3xx_hal_uart.c ****     status =  HAL_ERROR;
 904:Drivers/STM32F3xx_HAL_Driver/Src/stm32f3xx_hal_uart.c ****   }
 905:Drivers/STM32F3xx_HAL_Driver/Src/stm32f3xx_hal_uart.c **** 
ARM GAS  /tmp/ccfCzef7.s 			page 30


 906:Drivers/STM32F3xx_HAL_Driver/Src/stm32f3xx_hal_uart.c ****   __HAL_UNLOCK(huart);
 907:Drivers/STM32F3xx_HAL_Driver/Src/stm32f3xx_hal_uart.c **** 
 908:Drivers/STM32F3xx_HAL_Driver/Src/stm32f3xx_hal_uart.c ****   return status;
 909:Drivers/STM32F3xx_HAL_Driver/Src/stm32f3xx_hal_uart.c **** }
 910:Drivers/STM32F3xx_HAL_Driver/Src/stm32f3xx_hal_uart.c **** #endif /* USE_HAL_UART_REGISTER_CALLBACKS */
 911:Drivers/STM32F3xx_HAL_Driver/Src/stm32f3xx_hal_uart.c **** 
 912:Drivers/STM32F3xx_HAL_Driver/Src/stm32f3xx_hal_uart.c **** /**
 913:Drivers/STM32F3xx_HAL_Driver/Src/stm32f3xx_hal_uart.c ****   * @}
 914:Drivers/STM32F3xx_HAL_Driver/Src/stm32f3xx_hal_uart.c ****   */
 915:Drivers/STM32F3xx_HAL_Driver/Src/stm32f3xx_hal_uart.c **** 
 916:Drivers/STM32F3xx_HAL_Driver/Src/stm32f3xx_hal_uart.c **** /** @defgroup UART_Exported_Functions_Group2 IO operation functions
 917:Drivers/STM32F3xx_HAL_Driver/Src/stm32f3xx_hal_uart.c ****   * @brief UART Transmit/Receive functions
 918:Drivers/STM32F3xx_HAL_Driver/Src/stm32f3xx_hal_uart.c ****   *
 919:Drivers/STM32F3xx_HAL_Driver/Src/stm32f3xx_hal_uart.c **** @verbatim
 920:Drivers/STM32F3xx_HAL_Driver/Src/stm32f3xx_hal_uart.c ****  ===============================================================================
 921:Drivers/STM32F3xx_HAL_Driver/Src/stm32f3xx_hal_uart.c ****                       ##### IO operation functions #####
 922:Drivers/STM32F3xx_HAL_Driver/Src/stm32f3xx_hal_uart.c ****  ===============================================================================
 923:Drivers/STM32F3xx_HAL_Driver/Src/stm32f3xx_hal_uart.c ****     This subsection provides a set of functions allowing to manage the UART asynchronous
 924:Drivers/STM32F3xx_HAL_Driver/Src/stm32f3xx_hal_uart.c ****     and Half duplex data transfers.
 925:Drivers/STM32F3xx_HAL_Driver/Src/stm32f3xx_hal_uart.c **** 
 926:Drivers/STM32F3xx_HAL_Driver/Src/stm32f3xx_hal_uart.c ****     (#) There are two mode of transfer:
 927:Drivers/STM32F3xx_HAL_Driver/Src/stm32f3xx_hal_uart.c ****        (+) Blocking mode: The communication is performed in polling mode.
 928:Drivers/STM32F3xx_HAL_Driver/Src/stm32f3xx_hal_uart.c ****            The HAL status of all data processing is returned by the same function
 929:Drivers/STM32F3xx_HAL_Driver/Src/stm32f3xx_hal_uart.c ****            after finishing transfer.
 930:Drivers/STM32F3xx_HAL_Driver/Src/stm32f3xx_hal_uart.c ****        (+) Non-Blocking mode: The communication is performed using Interrupts
 931:Drivers/STM32F3xx_HAL_Driver/Src/stm32f3xx_hal_uart.c ****            or DMA, These API's return the HAL status.
 932:Drivers/STM32F3xx_HAL_Driver/Src/stm32f3xx_hal_uart.c ****            The end of the data processing will be indicated through the
 933:Drivers/STM32F3xx_HAL_Driver/Src/stm32f3xx_hal_uart.c ****            dedicated UART IRQ when using Interrupt mode or the DMA IRQ when
 934:Drivers/STM32F3xx_HAL_Driver/Src/stm32f3xx_hal_uart.c ****            using DMA mode.
 935:Drivers/STM32F3xx_HAL_Driver/Src/stm32f3xx_hal_uart.c ****            The HAL_UART_TxCpltCallback(), HAL_UART_RxCpltCallback() user callbacks
 936:Drivers/STM32F3xx_HAL_Driver/Src/stm32f3xx_hal_uart.c ****            will be executed respectively at the end of the transmit or Receive process
 937:Drivers/STM32F3xx_HAL_Driver/Src/stm32f3xx_hal_uart.c ****            The HAL_UART_ErrorCallback()user callback will be executed when a communication error is
 938:Drivers/STM32F3xx_HAL_Driver/Src/stm32f3xx_hal_uart.c **** 
 939:Drivers/STM32F3xx_HAL_Driver/Src/stm32f3xx_hal_uart.c ****     (#) Blocking mode API's are :
 940:Drivers/STM32F3xx_HAL_Driver/Src/stm32f3xx_hal_uart.c ****         (+) HAL_UART_Transmit()
 941:Drivers/STM32F3xx_HAL_Driver/Src/stm32f3xx_hal_uart.c ****         (+) HAL_UART_Receive()
 942:Drivers/STM32F3xx_HAL_Driver/Src/stm32f3xx_hal_uart.c **** 
 943:Drivers/STM32F3xx_HAL_Driver/Src/stm32f3xx_hal_uart.c ****     (#) Non-Blocking mode API's with Interrupt are :
 944:Drivers/STM32F3xx_HAL_Driver/Src/stm32f3xx_hal_uart.c ****         (+) HAL_UART_Transmit_IT()
 945:Drivers/STM32F3xx_HAL_Driver/Src/stm32f3xx_hal_uart.c ****         (+) HAL_UART_Receive_IT()
 946:Drivers/STM32F3xx_HAL_Driver/Src/stm32f3xx_hal_uart.c ****         (+) HAL_UART_IRQHandler()
 947:Drivers/STM32F3xx_HAL_Driver/Src/stm32f3xx_hal_uart.c **** 
 948:Drivers/STM32F3xx_HAL_Driver/Src/stm32f3xx_hal_uart.c ****     (#) Non-Blocking mode API's with DMA are :
 949:Drivers/STM32F3xx_HAL_Driver/Src/stm32f3xx_hal_uart.c ****         (+) HAL_UART_Transmit_DMA()
 950:Drivers/STM32F3xx_HAL_Driver/Src/stm32f3xx_hal_uart.c ****         (+) HAL_UART_Receive_DMA()
 951:Drivers/STM32F3xx_HAL_Driver/Src/stm32f3xx_hal_uart.c ****         (+) HAL_UART_DMAPause()
 952:Drivers/STM32F3xx_HAL_Driver/Src/stm32f3xx_hal_uart.c ****         (+) HAL_UART_DMAResume()
 953:Drivers/STM32F3xx_HAL_Driver/Src/stm32f3xx_hal_uart.c ****         (+) HAL_UART_DMAStop()
 954:Drivers/STM32F3xx_HAL_Driver/Src/stm32f3xx_hal_uart.c **** 
 955:Drivers/STM32F3xx_HAL_Driver/Src/stm32f3xx_hal_uart.c ****     (#) A set of Transfer Complete Callbacks are provided in Non_Blocking mode:
 956:Drivers/STM32F3xx_HAL_Driver/Src/stm32f3xx_hal_uart.c ****         (+) HAL_UART_TxHalfCpltCallback()
 957:Drivers/STM32F3xx_HAL_Driver/Src/stm32f3xx_hal_uart.c ****         (+) HAL_UART_TxCpltCallback()
 958:Drivers/STM32F3xx_HAL_Driver/Src/stm32f3xx_hal_uart.c ****         (+) HAL_UART_RxHalfCpltCallback()
 959:Drivers/STM32F3xx_HAL_Driver/Src/stm32f3xx_hal_uart.c ****         (+) HAL_UART_RxCpltCallback()
 960:Drivers/STM32F3xx_HAL_Driver/Src/stm32f3xx_hal_uart.c ****         (+) HAL_UART_ErrorCallback()
 961:Drivers/STM32F3xx_HAL_Driver/Src/stm32f3xx_hal_uart.c **** 
 962:Drivers/STM32F3xx_HAL_Driver/Src/stm32f3xx_hal_uart.c ****     (#) Non-Blocking mode transfers could be aborted using Abort API's :
ARM GAS  /tmp/ccfCzef7.s 			page 31


 963:Drivers/STM32F3xx_HAL_Driver/Src/stm32f3xx_hal_uart.c ****         (+) HAL_UART_Abort()
 964:Drivers/STM32F3xx_HAL_Driver/Src/stm32f3xx_hal_uart.c ****         (+) HAL_UART_AbortTransmit()
 965:Drivers/STM32F3xx_HAL_Driver/Src/stm32f3xx_hal_uart.c ****         (+) HAL_UART_AbortReceive()
 966:Drivers/STM32F3xx_HAL_Driver/Src/stm32f3xx_hal_uart.c ****         (+) HAL_UART_Abort_IT()
 967:Drivers/STM32F3xx_HAL_Driver/Src/stm32f3xx_hal_uart.c ****         (+) HAL_UART_AbortTransmit_IT()
 968:Drivers/STM32F3xx_HAL_Driver/Src/stm32f3xx_hal_uart.c ****         (+) HAL_UART_AbortReceive_IT()
 969:Drivers/STM32F3xx_HAL_Driver/Src/stm32f3xx_hal_uart.c **** 
 970:Drivers/STM32F3xx_HAL_Driver/Src/stm32f3xx_hal_uart.c ****     (#) For Abort services based on interrupts (HAL_UART_Abortxxx_IT), a set of Abort Complete Call
 971:Drivers/STM32F3xx_HAL_Driver/Src/stm32f3xx_hal_uart.c ****         (+) HAL_UART_AbortCpltCallback()
 972:Drivers/STM32F3xx_HAL_Driver/Src/stm32f3xx_hal_uart.c ****         (+) HAL_UART_AbortTransmitCpltCallback()
 973:Drivers/STM32F3xx_HAL_Driver/Src/stm32f3xx_hal_uart.c ****         (+) HAL_UART_AbortReceiveCpltCallback()
 974:Drivers/STM32F3xx_HAL_Driver/Src/stm32f3xx_hal_uart.c **** 
 975:Drivers/STM32F3xx_HAL_Driver/Src/stm32f3xx_hal_uart.c ****     (#) In Non-Blocking mode transfers, possible errors are split into 2 categories.
 976:Drivers/STM32F3xx_HAL_Driver/Src/stm32f3xx_hal_uart.c ****         Errors are handled as follows :
 977:Drivers/STM32F3xx_HAL_Driver/Src/stm32f3xx_hal_uart.c ****        (+) Error is considered as Recoverable and non blocking : Transfer could go till end, but er
 978:Drivers/STM32F3xx_HAL_Driver/Src/stm32f3xx_hal_uart.c ****            to be evaluated by user : this concerns Frame Error, Parity Error or Noise Error in Inte
 979:Drivers/STM32F3xx_HAL_Driver/Src/stm32f3xx_hal_uart.c ****            Received character is then retrieved and stored in Rx buffer, Error code is set to allow
 980:Drivers/STM32F3xx_HAL_Driver/Src/stm32f3xx_hal_uart.c ****            and HAL_UART_ErrorCallback() user callback is executed. Transfer is kept ongoing on UART
 981:Drivers/STM32F3xx_HAL_Driver/Src/stm32f3xx_hal_uart.c ****            If user wants to abort it, Abort services should be called by user.
 982:Drivers/STM32F3xx_HAL_Driver/Src/stm32f3xx_hal_uart.c ****        (+) Error is considered as Blocking : Transfer could not be completed properly and is aborte
 983:Drivers/STM32F3xx_HAL_Driver/Src/stm32f3xx_hal_uart.c ****            This concerns Overrun Error In Interrupt mode reception and all errors in DMA mode.
 984:Drivers/STM32F3xx_HAL_Driver/Src/stm32f3xx_hal_uart.c ****            Error code is set to allow user to identify error type, and HAL_UART_ErrorCallback() use
 985:Drivers/STM32F3xx_HAL_Driver/Src/stm32f3xx_hal_uart.c **** 
 986:Drivers/STM32F3xx_HAL_Driver/Src/stm32f3xx_hal_uart.c ****     -@- In the Half duplex communication, it is forbidden to run the transmit
 987:Drivers/STM32F3xx_HAL_Driver/Src/stm32f3xx_hal_uart.c ****         and receive process in parallel, the UART state HAL_UART_STATE_BUSY_TX_RX can't be useful.
 988:Drivers/STM32F3xx_HAL_Driver/Src/stm32f3xx_hal_uart.c **** 
 989:Drivers/STM32F3xx_HAL_Driver/Src/stm32f3xx_hal_uart.c **** @endverbatim
 990:Drivers/STM32F3xx_HAL_Driver/Src/stm32f3xx_hal_uart.c ****   * @{
 991:Drivers/STM32F3xx_HAL_Driver/Src/stm32f3xx_hal_uart.c ****   */
 992:Drivers/STM32F3xx_HAL_Driver/Src/stm32f3xx_hal_uart.c **** 
 993:Drivers/STM32F3xx_HAL_Driver/Src/stm32f3xx_hal_uart.c **** /**
 994:Drivers/STM32F3xx_HAL_Driver/Src/stm32f3xx_hal_uart.c ****   * @brief Send an amount of data in blocking mode.
 995:Drivers/STM32F3xx_HAL_Driver/Src/stm32f3xx_hal_uart.c ****   * @note   When UART parity is not enabled (PCE = 0), and Word Length is configured to 9 bits (M1-
 996:Drivers/STM32F3xx_HAL_Driver/Src/stm32f3xx_hal_uart.c ****   *         the sent data is handled as a set of u16. In this case, Size must indicate the number
 997:Drivers/STM32F3xx_HAL_Driver/Src/stm32f3xx_hal_uart.c ****   *         of u16 provided through pData.
 998:Drivers/STM32F3xx_HAL_Driver/Src/stm32f3xx_hal_uart.c ****   * @param huart   UART handle.
 999:Drivers/STM32F3xx_HAL_Driver/Src/stm32f3xx_hal_uart.c ****   * @param pData   Pointer to data buffer (u8 or u16 data elements).
1000:Drivers/STM32F3xx_HAL_Driver/Src/stm32f3xx_hal_uart.c ****   * @param Size    Amount of data elements (u8 or u16) to be sent.
1001:Drivers/STM32F3xx_HAL_Driver/Src/stm32f3xx_hal_uart.c ****   * @param Timeout Timeout duration.
1002:Drivers/STM32F3xx_HAL_Driver/Src/stm32f3xx_hal_uart.c ****   * @retval HAL status
1003:Drivers/STM32F3xx_HAL_Driver/Src/stm32f3xx_hal_uart.c ****   */
1004:Drivers/STM32F3xx_HAL_Driver/Src/stm32f3xx_hal_uart.c **** HAL_StatusTypeDef HAL_UART_Transmit(UART_HandleTypeDef *huart, uint8_t *pData, uint16_t Size, uint3
1005:Drivers/STM32F3xx_HAL_Driver/Src/stm32f3xx_hal_uart.c **** {
 764              		.loc 1 1005 0
 765              		.cfi_startproc
 766              		@ args = 0, pretend = 0, frame = 32
 767              		@ frame_needed = 1, uses_anonymous_args = 0
 768 0000 80B5     		push	{r7, lr}
 769              	.LCFI37:
 770              		.cfi_def_cfa_offset 8
 771              		.cfi_offset 7, -8
 772              		.cfi_offset 14, -4
 773 0002 8AB0     		sub	sp, sp, #40
 774              	.LCFI38:
 775              		.cfi_def_cfa_offset 48
 776 0004 02AF     		add	r7, sp, #8
 777              	.LCFI39:
ARM GAS  /tmp/ccfCzef7.s 			page 32


 778              		.cfi_def_cfa 7, 40
 779 0006 F860     		str	r0, [r7, #12]
 780 0008 B960     		str	r1, [r7, #8]
 781 000a 3B60     		str	r3, [r7]
 782 000c 1346     		mov	r3, r2	@ movhi
 783 000e FB80     		strh	r3, [r7, #6]	@ movhi
1006:Drivers/STM32F3xx_HAL_Driver/Src/stm32f3xx_hal_uart.c ****   uint8_t  *pdata8bits;
1007:Drivers/STM32F3xx_HAL_Driver/Src/stm32f3xx_hal_uart.c ****   uint16_t *pdata16bits;
1008:Drivers/STM32F3xx_HAL_Driver/Src/stm32f3xx_hal_uart.c ****   uint32_t tickstart;
1009:Drivers/STM32F3xx_HAL_Driver/Src/stm32f3xx_hal_uart.c **** 
1010:Drivers/STM32F3xx_HAL_Driver/Src/stm32f3xx_hal_uart.c ****   /* Check that a Tx process is not already ongoing */
1011:Drivers/STM32F3xx_HAL_Driver/Src/stm32f3xx_hal_uart.c ****   if (huart->gState == HAL_UART_STATE_READY)
 784              		.loc 1 1011 0
 785 0010 FB68     		ldr	r3, [r7, #12]
 786 0012 5B6F     		ldr	r3, [r3, #116]
 787 0014 202B     		cmp	r3, #32
 788 0016 40F08180 		bne	.L34
1012:Drivers/STM32F3xx_HAL_Driver/Src/stm32f3xx_hal_uart.c ****   {
1013:Drivers/STM32F3xx_HAL_Driver/Src/stm32f3xx_hal_uart.c ****     if ((pData == NULL) || (Size == 0U))
 789              		.loc 1 1013 0
 790 001a BB68     		ldr	r3, [r7, #8]
 791 001c 002B     		cmp	r3, #0
 792 001e 02D0     		beq	.L35
 793              		.loc 1 1013 0 is_stmt 0 discriminator 1
 794 0020 FB88     		ldrh	r3, [r7, #6]
 795 0022 002B     		cmp	r3, #0
 796 0024 01D1     		bne	.L36
 797              	.L35:
1014:Drivers/STM32F3xx_HAL_Driver/Src/stm32f3xx_hal_uart.c ****     {
1015:Drivers/STM32F3xx_HAL_Driver/Src/stm32f3xx_hal_uart.c ****       return  HAL_ERROR;
 798              		.loc 1 1015 0 is_stmt 1
 799 0026 0123     		movs	r3, #1
 800 0028 79E0     		b	.L37
 801              	.L36:
1016:Drivers/STM32F3xx_HAL_Driver/Src/stm32f3xx_hal_uart.c ****     }
1017:Drivers/STM32F3xx_HAL_Driver/Src/stm32f3xx_hal_uart.c **** 
1018:Drivers/STM32F3xx_HAL_Driver/Src/stm32f3xx_hal_uart.c ****     __HAL_LOCK(huart);
 802              		.loc 1 1018 0
 803 002a FB68     		ldr	r3, [r7, #12]
 804 002c 93F87030 		ldrb	r3, [r3, #112]	@ zero_extendqisi2
 805 0030 012B     		cmp	r3, #1
 806 0032 01D1     		bne	.L38
 807              		.loc 1 1018 0 is_stmt 0 discriminator 1
 808 0034 0223     		movs	r3, #2
 809 0036 72E0     		b	.L37
 810              	.L38:
 811              		.loc 1 1018 0 discriminator 2
 812 0038 FB68     		ldr	r3, [r7, #12]
 813 003a 0122     		movs	r2, #1
 814 003c 83F87020 		strb	r2, [r3, #112]
1019:Drivers/STM32F3xx_HAL_Driver/Src/stm32f3xx_hal_uart.c **** 
1020:Drivers/STM32F3xx_HAL_Driver/Src/stm32f3xx_hal_uart.c ****     huart->ErrorCode = HAL_UART_ERROR_NONE;
 815              		.loc 1 1020 0 is_stmt 1 discriminator 2
 816 0040 FB68     		ldr	r3, [r7, #12]
 817 0042 0022     		movs	r2, #0
 818 0044 DA67     		str	r2, [r3, #124]
1021:Drivers/STM32F3xx_HAL_Driver/Src/stm32f3xx_hal_uart.c ****     huart->gState = HAL_UART_STATE_BUSY_TX;
ARM GAS  /tmp/ccfCzef7.s 			page 33


 819              		.loc 1 1021 0 discriminator 2
 820 0046 FB68     		ldr	r3, [r7, #12]
 821 0048 2122     		movs	r2, #33
 822 004a 5A67     		str	r2, [r3, #116]
1022:Drivers/STM32F3xx_HAL_Driver/Src/stm32f3xx_hal_uart.c **** 
1023:Drivers/STM32F3xx_HAL_Driver/Src/stm32f3xx_hal_uart.c ****     /* Init tickstart for timeout managment*/
1024:Drivers/STM32F3xx_HAL_Driver/Src/stm32f3xx_hal_uart.c ****     tickstart = HAL_GetTick();
 823              		.loc 1 1024 0 discriminator 2
 824 004c FFF7FEFF 		bl	HAL_GetTick
 825 0050 7861     		str	r0, [r7, #20]
1025:Drivers/STM32F3xx_HAL_Driver/Src/stm32f3xx_hal_uart.c **** 
1026:Drivers/STM32F3xx_HAL_Driver/Src/stm32f3xx_hal_uart.c ****     huart->TxXferSize  = Size;
 826              		.loc 1 1026 0 discriminator 2
 827 0052 FB68     		ldr	r3, [r7, #12]
 828 0054 FA88     		ldrh	r2, [r7, #6]	@ movhi
 829 0056 A3F85020 		strh	r2, [r3, #80]	@ movhi
1027:Drivers/STM32F3xx_HAL_Driver/Src/stm32f3xx_hal_uart.c ****     huart->TxXferCount = Size;
 830              		.loc 1 1027 0 discriminator 2
 831 005a FB68     		ldr	r3, [r7, #12]
 832 005c FA88     		ldrh	r2, [r7, #6]	@ movhi
 833 005e A3F85220 		strh	r2, [r3, #82]	@ movhi
1028:Drivers/STM32F3xx_HAL_Driver/Src/stm32f3xx_hal_uart.c **** 
1029:Drivers/STM32F3xx_HAL_Driver/Src/stm32f3xx_hal_uart.c ****     /* In case of 9bits/No Parity transfer, pData needs to be handled as a uint16_t pointer */
1030:Drivers/STM32F3xx_HAL_Driver/Src/stm32f3xx_hal_uart.c ****     if ((huart->Init.WordLength == UART_WORDLENGTH_9B) && (huart->Init.Parity == UART_PARITY_NONE))
 834              		.loc 1 1030 0 discriminator 2
 835 0062 FB68     		ldr	r3, [r7, #12]
 836 0064 9B68     		ldr	r3, [r3, #8]
 837 0066 B3F5805F 		cmp	r3, #4096
 838 006a 08D1     		bne	.L39
 839              		.loc 1 1030 0 is_stmt 0 discriminator 1
 840 006c FB68     		ldr	r3, [r7, #12]
 841 006e 1B69     		ldr	r3, [r3, #16]
 842 0070 002B     		cmp	r3, #0
 843 0072 04D1     		bne	.L39
1031:Drivers/STM32F3xx_HAL_Driver/Src/stm32f3xx_hal_uart.c ****     {
1032:Drivers/STM32F3xx_HAL_Driver/Src/stm32f3xx_hal_uart.c ****       pdata8bits  = NULL;
 844              		.loc 1 1032 0 is_stmt 1
 845 0074 0023     		movs	r3, #0
 846 0076 FB61     		str	r3, [r7, #28]
1033:Drivers/STM32F3xx_HAL_Driver/Src/stm32f3xx_hal_uart.c ****       pdata16bits = (uint16_t *) pData;
 847              		.loc 1 1033 0
 848 0078 BB68     		ldr	r3, [r7, #8]
 849 007a BB61     		str	r3, [r7, #24]
 850 007c 03E0     		b	.L40
 851              	.L39:
1034:Drivers/STM32F3xx_HAL_Driver/Src/stm32f3xx_hal_uart.c ****     }
1035:Drivers/STM32F3xx_HAL_Driver/Src/stm32f3xx_hal_uart.c ****     else
1036:Drivers/STM32F3xx_HAL_Driver/Src/stm32f3xx_hal_uart.c ****     {
1037:Drivers/STM32F3xx_HAL_Driver/Src/stm32f3xx_hal_uart.c ****       pdata8bits  = pData;
 852              		.loc 1 1037 0
 853 007e BB68     		ldr	r3, [r7, #8]
 854 0080 FB61     		str	r3, [r7, #28]
1038:Drivers/STM32F3xx_HAL_Driver/Src/stm32f3xx_hal_uart.c ****       pdata16bits = NULL;
 855              		.loc 1 1038 0
 856 0082 0023     		movs	r3, #0
 857 0084 BB61     		str	r3, [r7, #24]
 858              	.L40:
ARM GAS  /tmp/ccfCzef7.s 			page 34


1039:Drivers/STM32F3xx_HAL_Driver/Src/stm32f3xx_hal_uart.c ****     }
1040:Drivers/STM32F3xx_HAL_Driver/Src/stm32f3xx_hal_uart.c **** 
1041:Drivers/STM32F3xx_HAL_Driver/Src/stm32f3xx_hal_uart.c ****     while (huart->TxXferCount > 0U)
 859              		.loc 1 1041 0
 860 0086 2DE0     		b	.L41
 861              	.L45:
1042:Drivers/STM32F3xx_HAL_Driver/Src/stm32f3xx_hal_uart.c ****     {
1043:Drivers/STM32F3xx_HAL_Driver/Src/stm32f3xx_hal_uart.c ****       if (UART_WaitOnFlagUntilTimeout(huart, UART_FLAG_TXE, RESET, tickstart, Timeout) != HAL_OK)
 862              		.loc 1 1043 0
 863 0088 3B68     		ldr	r3, [r7]
 864 008a 0093     		str	r3, [sp]
 865 008c 7B69     		ldr	r3, [r7, #20]
 866 008e 0022     		movs	r2, #0
 867 0090 8021     		movs	r1, #128
 868 0092 F868     		ldr	r0, [r7, #12]
 869 0094 FFF7FEFF 		bl	UART_WaitOnFlagUntilTimeout
 870 0098 0346     		mov	r3, r0
 871 009a 002B     		cmp	r3, #0
 872 009c 01D0     		beq	.L42
1044:Drivers/STM32F3xx_HAL_Driver/Src/stm32f3xx_hal_uart.c ****       {
1045:Drivers/STM32F3xx_HAL_Driver/Src/stm32f3xx_hal_uart.c ****         return HAL_TIMEOUT;
 873              		.loc 1 1045 0
 874 009e 0323     		movs	r3, #3
 875 00a0 3DE0     		b	.L37
 876              	.L42:
1046:Drivers/STM32F3xx_HAL_Driver/Src/stm32f3xx_hal_uart.c ****       }
1047:Drivers/STM32F3xx_HAL_Driver/Src/stm32f3xx_hal_uart.c ****       if (pdata8bits == NULL)
 877              		.loc 1 1047 0
 878 00a2 FB69     		ldr	r3, [r7, #28]
 879 00a4 002B     		cmp	r3, #0
 880 00a6 0BD1     		bne	.L43
1048:Drivers/STM32F3xx_HAL_Driver/Src/stm32f3xx_hal_uart.c ****       {
1049:Drivers/STM32F3xx_HAL_Driver/Src/stm32f3xx_hal_uart.c ****         huart->Instance->TDR = (uint16_t)(*pdata16bits & 0x01FFU);
 881              		.loc 1 1049 0
 882 00a8 BB69     		ldr	r3, [r7, #24]
 883 00aa 1A88     		ldrh	r2, [r3]
 884 00ac FB68     		ldr	r3, [r7, #12]
 885 00ae 1B68     		ldr	r3, [r3]
 886 00b0 C2F30802 		ubfx	r2, r2, #0, #9
 887 00b4 92B2     		uxth	r2, r2
 888 00b6 1A85     		strh	r2, [r3, #40]	@ movhi
1050:Drivers/STM32F3xx_HAL_Driver/Src/stm32f3xx_hal_uart.c ****         pdata16bits++;
 889              		.loc 1 1050 0
 890 00b8 BB69     		ldr	r3, [r7, #24]
 891 00ba 0233     		adds	r3, r3, #2
 892 00bc BB61     		str	r3, [r7, #24]
 893 00be 08E0     		b	.L44
 894              	.L43:
1051:Drivers/STM32F3xx_HAL_Driver/Src/stm32f3xx_hal_uart.c ****       }
1052:Drivers/STM32F3xx_HAL_Driver/Src/stm32f3xx_hal_uart.c ****       else
1053:Drivers/STM32F3xx_HAL_Driver/Src/stm32f3xx_hal_uart.c ****       {
1054:Drivers/STM32F3xx_HAL_Driver/Src/stm32f3xx_hal_uart.c ****         huart->Instance->TDR = (uint8_t)(*pdata8bits & 0xFFU);
 895              		.loc 1 1054 0
 896 00c0 FB69     		ldr	r3, [r7, #28]
 897 00c2 1A78     		ldrb	r2, [r3]	@ zero_extendqisi2
 898 00c4 FB68     		ldr	r3, [r7, #12]
 899 00c6 1B68     		ldr	r3, [r3]
ARM GAS  /tmp/ccfCzef7.s 			page 35


 900 00c8 92B2     		uxth	r2, r2
 901 00ca 1A85     		strh	r2, [r3, #40]	@ movhi
1055:Drivers/STM32F3xx_HAL_Driver/Src/stm32f3xx_hal_uart.c ****         pdata8bits++;
 902              		.loc 1 1055 0
 903 00cc FB69     		ldr	r3, [r7, #28]
 904 00ce 0133     		adds	r3, r3, #1
 905 00d0 FB61     		str	r3, [r7, #28]
 906              	.L44:
1056:Drivers/STM32F3xx_HAL_Driver/Src/stm32f3xx_hal_uart.c ****       }
1057:Drivers/STM32F3xx_HAL_Driver/Src/stm32f3xx_hal_uart.c ****       huart->TxXferCount--;
 907              		.loc 1 1057 0
 908 00d2 FB68     		ldr	r3, [r7, #12]
 909 00d4 B3F85230 		ldrh	r3, [r3, #82]	@ movhi
 910 00d8 9BB2     		uxth	r3, r3
 911 00da 013B     		subs	r3, r3, #1
 912 00dc 9AB2     		uxth	r2, r3
 913 00de FB68     		ldr	r3, [r7, #12]
 914 00e0 A3F85220 		strh	r2, [r3, #82]	@ movhi
 915              	.L41:
1041:Drivers/STM32F3xx_HAL_Driver/Src/stm32f3xx_hal_uart.c ****     {
 916              		.loc 1 1041 0
 917 00e4 FB68     		ldr	r3, [r7, #12]
 918 00e6 B3F85230 		ldrh	r3, [r3, #82]	@ movhi
 919 00ea 9BB2     		uxth	r3, r3
 920 00ec 002B     		cmp	r3, #0
 921 00ee CBD1     		bne	.L45
1058:Drivers/STM32F3xx_HAL_Driver/Src/stm32f3xx_hal_uart.c ****     }
1059:Drivers/STM32F3xx_HAL_Driver/Src/stm32f3xx_hal_uart.c **** 
1060:Drivers/STM32F3xx_HAL_Driver/Src/stm32f3xx_hal_uart.c ****     if (UART_WaitOnFlagUntilTimeout(huart, UART_FLAG_TC, RESET, tickstart, Timeout) != HAL_OK)
 922              		.loc 1 1060 0
 923 00f0 3B68     		ldr	r3, [r7]
 924 00f2 0093     		str	r3, [sp]
 925 00f4 7B69     		ldr	r3, [r7, #20]
 926 00f6 0022     		movs	r2, #0
 927 00f8 4021     		movs	r1, #64
 928 00fa F868     		ldr	r0, [r7, #12]
 929 00fc FFF7FEFF 		bl	UART_WaitOnFlagUntilTimeout
 930 0100 0346     		mov	r3, r0
 931 0102 002B     		cmp	r3, #0
 932 0104 01D0     		beq	.L46
1061:Drivers/STM32F3xx_HAL_Driver/Src/stm32f3xx_hal_uart.c ****     {
1062:Drivers/STM32F3xx_HAL_Driver/Src/stm32f3xx_hal_uart.c ****       return HAL_TIMEOUT;
 933              		.loc 1 1062 0
 934 0106 0323     		movs	r3, #3
 935 0108 09E0     		b	.L37
 936              	.L46:
1063:Drivers/STM32F3xx_HAL_Driver/Src/stm32f3xx_hal_uart.c ****     }
1064:Drivers/STM32F3xx_HAL_Driver/Src/stm32f3xx_hal_uart.c **** 
1065:Drivers/STM32F3xx_HAL_Driver/Src/stm32f3xx_hal_uart.c ****     /* At end of Tx process, restore huart->gState to Ready */
1066:Drivers/STM32F3xx_HAL_Driver/Src/stm32f3xx_hal_uart.c ****     huart->gState = HAL_UART_STATE_READY;
 937              		.loc 1 1066 0
 938 010a FB68     		ldr	r3, [r7, #12]
 939 010c 2022     		movs	r2, #32
 940 010e 5A67     		str	r2, [r3, #116]
1067:Drivers/STM32F3xx_HAL_Driver/Src/stm32f3xx_hal_uart.c **** 
1068:Drivers/STM32F3xx_HAL_Driver/Src/stm32f3xx_hal_uart.c ****     __HAL_UNLOCK(huart);
 941              		.loc 1 1068 0
ARM GAS  /tmp/ccfCzef7.s 			page 36


 942 0110 FB68     		ldr	r3, [r7, #12]
 943 0112 0022     		movs	r2, #0
 944 0114 83F87020 		strb	r2, [r3, #112]
1069:Drivers/STM32F3xx_HAL_Driver/Src/stm32f3xx_hal_uart.c **** 
1070:Drivers/STM32F3xx_HAL_Driver/Src/stm32f3xx_hal_uart.c ****     return HAL_OK;
 945              		.loc 1 1070 0
 946 0118 0023     		movs	r3, #0
 947 011a 00E0     		b	.L37
 948              	.L34:
1071:Drivers/STM32F3xx_HAL_Driver/Src/stm32f3xx_hal_uart.c ****   }
1072:Drivers/STM32F3xx_HAL_Driver/Src/stm32f3xx_hal_uart.c ****   else
1073:Drivers/STM32F3xx_HAL_Driver/Src/stm32f3xx_hal_uart.c ****   {
1074:Drivers/STM32F3xx_HAL_Driver/Src/stm32f3xx_hal_uart.c ****     return HAL_BUSY;
 949              		.loc 1 1074 0
 950 011c 0223     		movs	r3, #2
 951              	.L37:
1075:Drivers/STM32F3xx_HAL_Driver/Src/stm32f3xx_hal_uart.c ****   }
1076:Drivers/STM32F3xx_HAL_Driver/Src/stm32f3xx_hal_uart.c **** }
 952              		.loc 1 1076 0
 953 011e 1846     		mov	r0, r3
 954 0120 2037     		adds	r7, r7, #32
 955              	.LCFI40:
 956              		.cfi_def_cfa_offset 8
 957 0122 BD46     		mov	sp, r7
 958              	.LCFI41:
 959              		.cfi_def_cfa_register 13
 960              		@ sp needed
 961 0124 80BD     		pop	{r7, pc}
 962              		.cfi_endproc
 963              	.LFE130:
 965              		.section	.text.HAL_UART_Receive,"ax",%progbits
 966              		.align	1
 967              		.global	HAL_UART_Receive
 968              		.syntax unified
 969              		.thumb
 970              		.thumb_func
 971              		.fpu fpv4-sp-d16
 973              	HAL_UART_Receive:
 974              	.LFB131:
1077:Drivers/STM32F3xx_HAL_Driver/Src/stm32f3xx_hal_uart.c **** 
1078:Drivers/STM32F3xx_HAL_Driver/Src/stm32f3xx_hal_uart.c **** /**
1079:Drivers/STM32F3xx_HAL_Driver/Src/stm32f3xx_hal_uart.c ****   * @brief Receive an amount of data in blocking mode.
1080:Drivers/STM32F3xx_HAL_Driver/Src/stm32f3xx_hal_uart.c ****   * @note   When UART parity is not enabled (PCE = 0), and Word Length is configured to 9 bits (M1-
1081:Drivers/STM32F3xx_HAL_Driver/Src/stm32f3xx_hal_uart.c ****   *         the received data is handled as a set of u16. In this case, Size must indicate the numb
1082:Drivers/STM32F3xx_HAL_Driver/Src/stm32f3xx_hal_uart.c ****   *         of u16 available through pData.
1083:Drivers/STM32F3xx_HAL_Driver/Src/stm32f3xx_hal_uart.c ****   * @param huart   UART handle.
1084:Drivers/STM32F3xx_HAL_Driver/Src/stm32f3xx_hal_uart.c ****   * @param pData   Pointer to data buffer (u8 or u16 data elements).
1085:Drivers/STM32F3xx_HAL_Driver/Src/stm32f3xx_hal_uart.c ****   * @param Size    Amount of data elements (u8 or u16) to be received.
1086:Drivers/STM32F3xx_HAL_Driver/Src/stm32f3xx_hal_uart.c ****   * @param Timeout Timeout duration.
1087:Drivers/STM32F3xx_HAL_Driver/Src/stm32f3xx_hal_uart.c ****   * @retval HAL status
1088:Drivers/STM32F3xx_HAL_Driver/Src/stm32f3xx_hal_uart.c ****   */
1089:Drivers/STM32F3xx_HAL_Driver/Src/stm32f3xx_hal_uart.c **** HAL_StatusTypeDef HAL_UART_Receive(UART_HandleTypeDef *huart, uint8_t *pData, uint16_t Size, uint32
1090:Drivers/STM32F3xx_HAL_Driver/Src/stm32f3xx_hal_uart.c **** {
 975              		.loc 1 1090 0
 976              		.cfi_startproc
 977              		@ args = 0, pretend = 0, frame = 32
 978              		@ frame_needed = 1, uses_anonymous_args = 0
ARM GAS  /tmp/ccfCzef7.s 			page 37


 979 0000 80B5     		push	{r7, lr}
 980              	.LCFI42:
 981              		.cfi_def_cfa_offset 8
 982              		.cfi_offset 7, -8
 983              		.cfi_offset 14, -4
 984 0002 8AB0     		sub	sp, sp, #40
 985              	.LCFI43:
 986              		.cfi_def_cfa_offset 48
 987 0004 02AF     		add	r7, sp, #8
 988              	.LCFI44:
 989              		.cfi_def_cfa 7, 40
 990 0006 F860     		str	r0, [r7, #12]
 991 0008 B960     		str	r1, [r7, #8]
 992 000a 3B60     		str	r3, [r7]
 993 000c 1346     		mov	r3, r2	@ movhi
 994 000e FB80     		strh	r3, [r7, #6]	@ movhi
1091:Drivers/STM32F3xx_HAL_Driver/Src/stm32f3xx_hal_uart.c ****   uint8_t  *pdata8bits;
1092:Drivers/STM32F3xx_HAL_Driver/Src/stm32f3xx_hal_uart.c ****   uint16_t *pdata16bits;
1093:Drivers/STM32F3xx_HAL_Driver/Src/stm32f3xx_hal_uart.c ****   uint16_t uhMask;
1094:Drivers/STM32F3xx_HAL_Driver/Src/stm32f3xx_hal_uart.c ****   uint32_t tickstart;
1095:Drivers/STM32F3xx_HAL_Driver/Src/stm32f3xx_hal_uart.c **** 
1096:Drivers/STM32F3xx_HAL_Driver/Src/stm32f3xx_hal_uart.c ****   /* Check that a Rx process is not already ongoing */
1097:Drivers/STM32F3xx_HAL_Driver/Src/stm32f3xx_hal_uart.c ****   if (huart->RxState == HAL_UART_STATE_READY)
 995              		.loc 1 1097 0
 996 0010 FB68     		ldr	r3, [r7, #12]
 997 0012 9B6F     		ldr	r3, [r3, #120]
 998 0014 202B     		cmp	r3, #32
 999 0016 40F0BB80 		bne	.L48
1098:Drivers/STM32F3xx_HAL_Driver/Src/stm32f3xx_hal_uart.c ****   {
1099:Drivers/STM32F3xx_HAL_Driver/Src/stm32f3xx_hal_uart.c ****     if ((pData == NULL) || (Size == 0U))
 1000              		.loc 1 1099 0
 1001 001a BB68     		ldr	r3, [r7, #8]
 1002 001c 002B     		cmp	r3, #0
 1003 001e 02D0     		beq	.L49
 1004              		.loc 1 1099 0 is_stmt 0 discriminator 1
 1005 0020 FB88     		ldrh	r3, [r7, #6]
 1006 0022 002B     		cmp	r3, #0
 1007 0024 01D1     		bne	.L50
 1008              	.L49:
1100:Drivers/STM32F3xx_HAL_Driver/Src/stm32f3xx_hal_uart.c ****     {
1101:Drivers/STM32F3xx_HAL_Driver/Src/stm32f3xx_hal_uart.c ****       return  HAL_ERROR;
 1009              		.loc 1 1101 0 is_stmt 1
 1010 0026 0123     		movs	r3, #1
 1011 0028 B3E0     		b	.L51
 1012              	.L50:
1102:Drivers/STM32F3xx_HAL_Driver/Src/stm32f3xx_hal_uart.c ****     }
1103:Drivers/STM32F3xx_HAL_Driver/Src/stm32f3xx_hal_uart.c **** 
1104:Drivers/STM32F3xx_HAL_Driver/Src/stm32f3xx_hal_uart.c ****     __HAL_LOCK(huart);
 1013              		.loc 1 1104 0
 1014 002a FB68     		ldr	r3, [r7, #12]
 1015 002c 93F87030 		ldrb	r3, [r3, #112]	@ zero_extendqisi2
 1016 0030 012B     		cmp	r3, #1
 1017 0032 01D1     		bne	.L52
 1018              		.loc 1 1104 0 is_stmt 0 discriminator 1
 1019 0034 0223     		movs	r3, #2
 1020 0036 ACE0     		b	.L51
 1021              	.L52:
ARM GAS  /tmp/ccfCzef7.s 			page 38


 1022              		.loc 1 1104 0 discriminator 2
 1023 0038 FB68     		ldr	r3, [r7, #12]
 1024 003a 0122     		movs	r2, #1
 1025 003c 83F87020 		strb	r2, [r3, #112]
1105:Drivers/STM32F3xx_HAL_Driver/Src/stm32f3xx_hal_uart.c **** 
1106:Drivers/STM32F3xx_HAL_Driver/Src/stm32f3xx_hal_uart.c ****     huart->ErrorCode = HAL_UART_ERROR_NONE;
 1026              		.loc 1 1106 0 is_stmt 1 discriminator 2
 1027 0040 FB68     		ldr	r3, [r7, #12]
 1028 0042 0022     		movs	r2, #0
 1029 0044 DA67     		str	r2, [r3, #124]
1107:Drivers/STM32F3xx_HAL_Driver/Src/stm32f3xx_hal_uart.c ****     huart->RxState = HAL_UART_STATE_BUSY_RX;
 1030              		.loc 1 1107 0 discriminator 2
 1031 0046 FB68     		ldr	r3, [r7, #12]
 1032 0048 2222     		movs	r2, #34
 1033 004a 9A67     		str	r2, [r3, #120]
1108:Drivers/STM32F3xx_HAL_Driver/Src/stm32f3xx_hal_uart.c **** 
1109:Drivers/STM32F3xx_HAL_Driver/Src/stm32f3xx_hal_uart.c ****     /* Init tickstart for timeout managment*/
1110:Drivers/STM32F3xx_HAL_Driver/Src/stm32f3xx_hal_uart.c ****     tickstart = HAL_GetTick();
 1034              		.loc 1 1110 0 discriminator 2
 1035 004c FFF7FEFF 		bl	HAL_GetTick
 1036 0050 7861     		str	r0, [r7, #20]
1111:Drivers/STM32F3xx_HAL_Driver/Src/stm32f3xx_hal_uart.c **** 
1112:Drivers/STM32F3xx_HAL_Driver/Src/stm32f3xx_hal_uart.c ****     huart->RxXferSize  = Size;
 1037              		.loc 1 1112 0 discriminator 2
 1038 0052 FB68     		ldr	r3, [r7, #12]
 1039 0054 FA88     		ldrh	r2, [r7, #6]	@ movhi
 1040 0056 A3F85820 		strh	r2, [r3, #88]	@ movhi
1113:Drivers/STM32F3xx_HAL_Driver/Src/stm32f3xx_hal_uart.c ****     huart->RxXferCount = Size;
 1041              		.loc 1 1113 0 discriminator 2
 1042 005a FB68     		ldr	r3, [r7, #12]
 1043 005c FA88     		ldrh	r2, [r7, #6]	@ movhi
 1044 005e A3F85A20 		strh	r2, [r3, #90]	@ movhi
1114:Drivers/STM32F3xx_HAL_Driver/Src/stm32f3xx_hal_uart.c **** 
1115:Drivers/STM32F3xx_HAL_Driver/Src/stm32f3xx_hal_uart.c ****     /* Computation of UART mask to apply to RDR register */
1116:Drivers/STM32F3xx_HAL_Driver/Src/stm32f3xx_hal_uart.c ****     UART_MASK_COMPUTATION(huart);
 1045              		.loc 1 1116 0 discriminator 2
 1046 0062 FB68     		ldr	r3, [r7, #12]
 1047 0064 9B68     		ldr	r3, [r3, #8]
 1048 0066 B3F5805F 		cmp	r3, #4096
 1049 006a 0ED1     		bne	.L53
 1050              		.loc 1 1116 0 is_stmt 0 discriminator 1
 1051 006c FB68     		ldr	r3, [r7, #12]
 1052 006e 1B69     		ldr	r3, [r3, #16]
 1053 0070 002B     		cmp	r3, #0
 1054 0072 05D1     		bne	.L54
 1055              		.loc 1 1116 0 discriminator 3
 1056 0074 FB68     		ldr	r3, [r7, #12]
 1057 0076 40F2FF12 		movw	r2, #511
 1058 007a A3F85C20 		strh	r2, [r3, #92]	@ movhi
 1059 007e 2DE0     		b	.L56
 1060              	.L54:
 1061              		.loc 1 1116 0 discriminator 4
 1062 0080 FB68     		ldr	r3, [r7, #12]
 1063 0082 FF22     		movs	r2, #255
 1064 0084 A3F85C20 		strh	r2, [r3, #92]	@ movhi
 1065 0088 28E0     		b	.L56
 1066              	.L53:
ARM GAS  /tmp/ccfCzef7.s 			page 39


 1067              		.loc 1 1116 0 discriminator 2
 1068 008a FB68     		ldr	r3, [r7, #12]
 1069 008c 9B68     		ldr	r3, [r3, #8]
 1070 008e 002B     		cmp	r3, #0
 1071 0090 0DD1     		bne	.L57
 1072              		.loc 1 1116 0 discriminator 5
 1073 0092 FB68     		ldr	r3, [r7, #12]
 1074 0094 1B69     		ldr	r3, [r3, #16]
 1075 0096 002B     		cmp	r3, #0
 1076 0098 04D1     		bne	.L58
 1077              		.loc 1 1116 0 discriminator 7
 1078 009a FB68     		ldr	r3, [r7, #12]
 1079 009c FF22     		movs	r2, #255
 1080 009e A3F85C20 		strh	r2, [r3, #92]	@ movhi
 1081 00a2 1BE0     		b	.L56
 1082              	.L58:
 1083              		.loc 1 1116 0 discriminator 8
 1084 00a4 FB68     		ldr	r3, [r7, #12]
 1085 00a6 7F22     		movs	r2, #127
 1086 00a8 A3F85C20 		strh	r2, [r3, #92]	@ movhi
 1087 00ac 16E0     		b	.L56
 1088              	.L57:
 1089              		.loc 1 1116 0 discriminator 6
 1090 00ae FB68     		ldr	r3, [r7, #12]
 1091 00b0 9B68     		ldr	r3, [r3, #8]
 1092 00b2 B3F1805F 		cmp	r3, #268435456
 1093 00b6 0DD1     		bne	.L60
 1094              		.loc 1 1116 0 discriminator 9
 1095 00b8 FB68     		ldr	r3, [r7, #12]
 1096 00ba 1B69     		ldr	r3, [r3, #16]
 1097 00bc 002B     		cmp	r3, #0
 1098 00be 04D1     		bne	.L61
 1099              		.loc 1 1116 0 discriminator 11
 1100 00c0 FB68     		ldr	r3, [r7, #12]
 1101 00c2 7F22     		movs	r2, #127
 1102 00c4 A3F85C20 		strh	r2, [r3, #92]	@ movhi
 1103 00c8 08E0     		b	.L56
 1104              	.L61:
 1105              		.loc 1 1116 0 discriminator 12
 1106 00ca FB68     		ldr	r3, [r7, #12]
 1107 00cc 3F22     		movs	r2, #63
 1108 00ce A3F85C20 		strh	r2, [r3, #92]	@ movhi
 1109 00d2 03E0     		b	.L56
 1110              	.L60:
 1111              		.loc 1 1116 0 discriminator 10
 1112 00d4 FB68     		ldr	r3, [r7, #12]
 1113 00d6 0022     		movs	r2, #0
 1114 00d8 A3F85C20 		strh	r2, [r3, #92]	@ movhi
 1115              	.L56:
1117:Drivers/STM32F3xx_HAL_Driver/Src/stm32f3xx_hal_uart.c ****     uhMask = huart->Mask;
 1116              		.loc 1 1117 0 is_stmt 1
 1117 00dc FB68     		ldr	r3, [r7, #12]
 1118 00de B3F85C30 		ldrh	r3, [r3, #92]	@ movhi
 1119 00e2 7B82     		strh	r3, [r7, #18]	@ movhi
1118:Drivers/STM32F3xx_HAL_Driver/Src/stm32f3xx_hal_uart.c **** 
1119:Drivers/STM32F3xx_HAL_Driver/Src/stm32f3xx_hal_uart.c ****     /* In case of 9bits/No Parity transfer, pRxData needs to be handled as a uint16_t pointer */
1120:Drivers/STM32F3xx_HAL_Driver/Src/stm32f3xx_hal_uart.c ****     if ((huart->Init.WordLength == UART_WORDLENGTH_9B) && (huart->Init.Parity == UART_PARITY_NONE))
ARM GAS  /tmp/ccfCzef7.s 			page 40


 1120              		.loc 1 1120 0
 1121 00e4 FB68     		ldr	r3, [r7, #12]
 1122 00e6 9B68     		ldr	r3, [r3, #8]
 1123 00e8 B3F5805F 		cmp	r3, #4096
 1124 00ec 08D1     		bne	.L63
 1125              		.loc 1 1120 0 is_stmt 0 discriminator 1
 1126 00ee FB68     		ldr	r3, [r7, #12]
 1127 00f0 1B69     		ldr	r3, [r3, #16]
 1128 00f2 002B     		cmp	r3, #0
 1129 00f4 04D1     		bne	.L63
1121:Drivers/STM32F3xx_HAL_Driver/Src/stm32f3xx_hal_uart.c ****     {
1122:Drivers/STM32F3xx_HAL_Driver/Src/stm32f3xx_hal_uart.c ****       pdata8bits  = NULL;
 1130              		.loc 1 1122 0 is_stmt 1
 1131 00f6 0023     		movs	r3, #0
 1132 00f8 FB61     		str	r3, [r7, #28]
1123:Drivers/STM32F3xx_HAL_Driver/Src/stm32f3xx_hal_uart.c ****       pdata16bits = (uint16_t *) pData;
 1133              		.loc 1 1123 0
 1134 00fa BB68     		ldr	r3, [r7, #8]
 1135 00fc BB61     		str	r3, [r7, #24]
 1136 00fe 03E0     		b	.L64
 1137              	.L63:
1124:Drivers/STM32F3xx_HAL_Driver/Src/stm32f3xx_hal_uart.c ****     }
1125:Drivers/STM32F3xx_HAL_Driver/Src/stm32f3xx_hal_uart.c ****     else
1126:Drivers/STM32F3xx_HAL_Driver/Src/stm32f3xx_hal_uart.c ****     {
1127:Drivers/STM32F3xx_HAL_Driver/Src/stm32f3xx_hal_uart.c ****       pdata8bits  = pData;
 1138              		.loc 1 1127 0
 1139 0100 BB68     		ldr	r3, [r7, #8]
 1140 0102 FB61     		str	r3, [r7, #28]
1128:Drivers/STM32F3xx_HAL_Driver/Src/stm32f3xx_hal_uart.c ****       pdata16bits = NULL;
 1141              		.loc 1 1128 0
 1142 0104 0023     		movs	r3, #0
 1143 0106 BB61     		str	r3, [r7, #24]
 1144              	.L64:
1129:Drivers/STM32F3xx_HAL_Driver/Src/stm32f3xx_hal_uart.c ****     }
1130:Drivers/STM32F3xx_HAL_Driver/Src/stm32f3xx_hal_uart.c **** 
1131:Drivers/STM32F3xx_HAL_Driver/Src/stm32f3xx_hal_uart.c ****     /* as long as data have to be received */
1132:Drivers/STM32F3xx_HAL_Driver/Src/stm32f3xx_hal_uart.c ****     while (huart->RxXferCount > 0U)
 1145              		.loc 1 1132 0
 1146 0108 33E0     		b	.L65
 1147              	.L69:
1133:Drivers/STM32F3xx_HAL_Driver/Src/stm32f3xx_hal_uart.c ****     {
1134:Drivers/STM32F3xx_HAL_Driver/Src/stm32f3xx_hal_uart.c ****       if (UART_WaitOnFlagUntilTimeout(huart, UART_FLAG_RXNE, RESET, tickstart, Timeout) != HAL_OK)
 1148              		.loc 1 1134 0
 1149 010a 3B68     		ldr	r3, [r7]
 1150 010c 0093     		str	r3, [sp]
 1151 010e 7B69     		ldr	r3, [r7, #20]
 1152 0110 0022     		movs	r2, #0
 1153 0112 2021     		movs	r1, #32
 1154 0114 F868     		ldr	r0, [r7, #12]
 1155 0116 FFF7FEFF 		bl	UART_WaitOnFlagUntilTimeout
 1156 011a 0346     		mov	r3, r0
 1157 011c 002B     		cmp	r3, #0
 1158 011e 01D0     		beq	.L66
1135:Drivers/STM32F3xx_HAL_Driver/Src/stm32f3xx_hal_uart.c ****       {
1136:Drivers/STM32F3xx_HAL_Driver/Src/stm32f3xx_hal_uart.c ****         return HAL_TIMEOUT;
 1159              		.loc 1 1136 0
 1160 0120 0323     		movs	r3, #3
ARM GAS  /tmp/ccfCzef7.s 			page 41


 1161 0122 36E0     		b	.L51
 1162              	.L66:
1137:Drivers/STM32F3xx_HAL_Driver/Src/stm32f3xx_hal_uart.c ****       }
1138:Drivers/STM32F3xx_HAL_Driver/Src/stm32f3xx_hal_uart.c ****       if (pdata8bits == NULL)
 1163              		.loc 1 1138 0
 1164 0124 FB69     		ldr	r3, [r7, #28]
 1165 0126 002B     		cmp	r3, #0
 1166 0128 0CD1     		bne	.L67
1139:Drivers/STM32F3xx_HAL_Driver/Src/stm32f3xx_hal_uart.c ****       {
1140:Drivers/STM32F3xx_HAL_Driver/Src/stm32f3xx_hal_uart.c ****         *pdata16bits = (uint16_t)(huart->Instance->RDR & uhMask);
 1167              		.loc 1 1140 0
 1168 012a FB68     		ldr	r3, [r7, #12]
 1169 012c 1B68     		ldr	r3, [r3]
 1170 012e 9B8C     		ldrh	r3, [r3, #36]	@ movhi
 1171 0130 9AB2     		uxth	r2, r3
 1172 0132 7B8A     		ldrh	r3, [r7, #18]	@ movhi
 1173 0134 1340     		ands	r3, r3, r2
 1174 0136 9AB2     		uxth	r2, r3
 1175 0138 BB69     		ldr	r3, [r7, #24]
 1176 013a 1A80     		strh	r2, [r3]	@ movhi
1141:Drivers/STM32F3xx_HAL_Driver/Src/stm32f3xx_hal_uart.c ****         pdata16bits++;
 1177              		.loc 1 1141 0
 1178 013c BB69     		ldr	r3, [r7, #24]
 1179 013e 0233     		adds	r3, r3, #2
 1180 0140 BB61     		str	r3, [r7, #24]
 1181 0142 0DE0     		b	.L68
 1182              	.L67:
1142:Drivers/STM32F3xx_HAL_Driver/Src/stm32f3xx_hal_uart.c ****       }
1143:Drivers/STM32F3xx_HAL_Driver/Src/stm32f3xx_hal_uart.c ****       else
1144:Drivers/STM32F3xx_HAL_Driver/Src/stm32f3xx_hal_uart.c ****       {
1145:Drivers/STM32F3xx_HAL_Driver/Src/stm32f3xx_hal_uart.c ****         *pdata8bits = (uint8_t)(huart->Instance->RDR & (uint8_t)uhMask);
 1183              		.loc 1 1145 0
 1184 0144 FB68     		ldr	r3, [r7, #12]
 1185 0146 1B68     		ldr	r3, [r3]
 1186 0148 9B8C     		ldrh	r3, [r3, #36]	@ movhi
 1187 014a 9BB2     		uxth	r3, r3
 1188 014c DAB2     		uxtb	r2, r3
 1189 014e 7B8A     		ldrh	r3, [r7, #18]	@ movhi
 1190 0150 DBB2     		uxtb	r3, r3
 1191 0152 1340     		ands	r3, r3, r2
 1192 0154 DAB2     		uxtb	r2, r3
 1193 0156 FB69     		ldr	r3, [r7, #28]
 1194 0158 1A70     		strb	r2, [r3]
1146:Drivers/STM32F3xx_HAL_Driver/Src/stm32f3xx_hal_uart.c ****         pdata8bits++;
 1195              		.loc 1 1146 0
 1196 015a FB69     		ldr	r3, [r7, #28]
 1197 015c 0133     		adds	r3, r3, #1
 1198 015e FB61     		str	r3, [r7, #28]
 1199              	.L68:
1147:Drivers/STM32F3xx_HAL_Driver/Src/stm32f3xx_hal_uart.c ****       }
1148:Drivers/STM32F3xx_HAL_Driver/Src/stm32f3xx_hal_uart.c ****       huart->RxXferCount--;
 1200              		.loc 1 1148 0
 1201 0160 FB68     		ldr	r3, [r7, #12]
 1202 0162 B3F85A30 		ldrh	r3, [r3, #90]	@ movhi
 1203 0166 9BB2     		uxth	r3, r3
 1204 0168 013B     		subs	r3, r3, #1
 1205 016a 9AB2     		uxth	r2, r3
ARM GAS  /tmp/ccfCzef7.s 			page 42


 1206 016c FB68     		ldr	r3, [r7, #12]
 1207 016e A3F85A20 		strh	r2, [r3, #90]	@ movhi
 1208              	.L65:
1132:Drivers/STM32F3xx_HAL_Driver/Src/stm32f3xx_hal_uart.c ****     {
 1209              		.loc 1 1132 0
 1210 0172 FB68     		ldr	r3, [r7, #12]
 1211 0174 B3F85A30 		ldrh	r3, [r3, #90]	@ movhi
 1212 0178 9BB2     		uxth	r3, r3
 1213 017a 002B     		cmp	r3, #0
 1214 017c C5D1     		bne	.L69
1149:Drivers/STM32F3xx_HAL_Driver/Src/stm32f3xx_hal_uart.c ****     }
1150:Drivers/STM32F3xx_HAL_Driver/Src/stm32f3xx_hal_uart.c **** 
1151:Drivers/STM32F3xx_HAL_Driver/Src/stm32f3xx_hal_uart.c ****     /* At end of Rx process, restore huart->RxState to Ready */
1152:Drivers/STM32F3xx_HAL_Driver/Src/stm32f3xx_hal_uart.c ****     huart->RxState = HAL_UART_STATE_READY;
 1215              		.loc 1 1152 0
 1216 017e FB68     		ldr	r3, [r7, #12]
 1217 0180 2022     		movs	r2, #32
 1218 0182 9A67     		str	r2, [r3, #120]
1153:Drivers/STM32F3xx_HAL_Driver/Src/stm32f3xx_hal_uart.c **** 
1154:Drivers/STM32F3xx_HAL_Driver/Src/stm32f3xx_hal_uart.c ****     __HAL_UNLOCK(huart);
 1219              		.loc 1 1154 0
 1220 0184 FB68     		ldr	r3, [r7, #12]
 1221 0186 0022     		movs	r2, #0
 1222 0188 83F87020 		strb	r2, [r3, #112]
1155:Drivers/STM32F3xx_HAL_Driver/Src/stm32f3xx_hal_uart.c **** 
1156:Drivers/STM32F3xx_HAL_Driver/Src/stm32f3xx_hal_uart.c ****     return HAL_OK;
 1223              		.loc 1 1156 0
 1224 018c 0023     		movs	r3, #0
 1225 018e 00E0     		b	.L51
 1226              	.L48:
1157:Drivers/STM32F3xx_HAL_Driver/Src/stm32f3xx_hal_uart.c ****   }
1158:Drivers/STM32F3xx_HAL_Driver/Src/stm32f3xx_hal_uart.c ****   else
1159:Drivers/STM32F3xx_HAL_Driver/Src/stm32f3xx_hal_uart.c ****   {
1160:Drivers/STM32F3xx_HAL_Driver/Src/stm32f3xx_hal_uart.c ****     return HAL_BUSY;
 1227              		.loc 1 1160 0
 1228 0190 0223     		movs	r3, #2
 1229              	.L51:
1161:Drivers/STM32F3xx_HAL_Driver/Src/stm32f3xx_hal_uart.c ****   }
1162:Drivers/STM32F3xx_HAL_Driver/Src/stm32f3xx_hal_uart.c **** }
 1230              		.loc 1 1162 0
 1231 0192 1846     		mov	r0, r3
 1232 0194 2037     		adds	r7, r7, #32
 1233              	.LCFI45:
 1234              		.cfi_def_cfa_offset 8
 1235 0196 BD46     		mov	sp, r7
 1236              	.LCFI46:
 1237              		.cfi_def_cfa_register 13
 1238              		@ sp needed
 1239 0198 80BD     		pop	{r7, pc}
 1240              		.cfi_endproc
 1241              	.LFE131:
 1243              		.section	.text.HAL_UART_Transmit_IT,"ax",%progbits
 1244              		.align	1
 1245              		.global	HAL_UART_Transmit_IT
 1246              		.syntax unified
 1247              		.thumb
 1248              		.thumb_func
ARM GAS  /tmp/ccfCzef7.s 			page 43


 1249              		.fpu fpv4-sp-d16
 1251              	HAL_UART_Transmit_IT:
 1252              	.LFB132:
1163:Drivers/STM32F3xx_HAL_Driver/Src/stm32f3xx_hal_uart.c **** 
1164:Drivers/STM32F3xx_HAL_Driver/Src/stm32f3xx_hal_uart.c **** /**
1165:Drivers/STM32F3xx_HAL_Driver/Src/stm32f3xx_hal_uart.c ****   * @brief Send an amount of data in interrupt mode.
1166:Drivers/STM32F3xx_HAL_Driver/Src/stm32f3xx_hal_uart.c ****   * @note   When UART parity is not enabled (PCE = 0), and Word Length is configured to 9 bits (M1-
1167:Drivers/STM32F3xx_HAL_Driver/Src/stm32f3xx_hal_uart.c ****   *         the sent data is handled as a set of u16. In this case, Size must indicate the number
1168:Drivers/STM32F3xx_HAL_Driver/Src/stm32f3xx_hal_uart.c ****   *         of u16 provided through pData.
1169:Drivers/STM32F3xx_HAL_Driver/Src/stm32f3xx_hal_uart.c ****   * @param huart UART handle.
1170:Drivers/STM32F3xx_HAL_Driver/Src/stm32f3xx_hal_uart.c ****   * @param pData Pointer to data buffer (u8 or u16 data elements).
1171:Drivers/STM32F3xx_HAL_Driver/Src/stm32f3xx_hal_uart.c ****   * @param Size  Amount of data elements (u8 or u16) to be sent.
1172:Drivers/STM32F3xx_HAL_Driver/Src/stm32f3xx_hal_uart.c ****   * @retval HAL status
1173:Drivers/STM32F3xx_HAL_Driver/Src/stm32f3xx_hal_uart.c ****   */
1174:Drivers/STM32F3xx_HAL_Driver/Src/stm32f3xx_hal_uart.c **** HAL_StatusTypeDef HAL_UART_Transmit_IT(UART_HandleTypeDef *huart, uint8_t *pData, uint16_t Size)
1175:Drivers/STM32F3xx_HAL_Driver/Src/stm32f3xx_hal_uart.c **** {
 1253              		.loc 1 1175 0
 1254              		.cfi_startproc
 1255              		@ args = 0, pretend = 0, frame = 16
 1256              		@ frame_needed = 1, uses_anonymous_args = 0
 1257              		@ link register save eliminated.
 1258 0000 80B4     		push	{r7}
 1259              	.LCFI47:
 1260              		.cfi_def_cfa_offset 4
 1261              		.cfi_offset 7, -4
 1262 0002 85B0     		sub	sp, sp, #20
 1263              	.LCFI48:
 1264              		.cfi_def_cfa_offset 24
 1265 0004 00AF     		add	r7, sp, #0
 1266              	.LCFI49:
 1267              		.cfi_def_cfa_register 7
 1268 0006 F860     		str	r0, [r7, #12]
 1269 0008 B960     		str	r1, [r7, #8]
 1270 000a 1346     		mov	r3, r2
 1271 000c FB80     		strh	r3, [r7, #6]	@ movhi
1176:Drivers/STM32F3xx_HAL_Driver/Src/stm32f3xx_hal_uart.c ****   /* Check that a Tx process is not already ongoing */
1177:Drivers/STM32F3xx_HAL_Driver/Src/stm32f3xx_hal_uart.c ****   if (huart->gState == HAL_UART_STATE_READY)
 1272              		.loc 1 1177 0
 1273 000e FB68     		ldr	r3, [r7, #12]
 1274 0010 5B6F     		ldr	r3, [r3, #116]
 1275 0012 202B     		cmp	r3, #32
 1276 0014 44D1     		bne	.L71
1178:Drivers/STM32F3xx_HAL_Driver/Src/stm32f3xx_hal_uart.c ****   {
1179:Drivers/STM32F3xx_HAL_Driver/Src/stm32f3xx_hal_uart.c ****     if ((pData == NULL) || (Size == 0U))
 1277              		.loc 1 1179 0
 1278 0016 BB68     		ldr	r3, [r7, #8]
 1279 0018 002B     		cmp	r3, #0
 1280 001a 02D0     		beq	.L72
 1281              		.loc 1 1179 0 is_stmt 0 discriminator 1
 1282 001c FB88     		ldrh	r3, [r7, #6]
 1283 001e 002B     		cmp	r3, #0
 1284 0020 01D1     		bne	.L73
 1285              	.L72:
1180:Drivers/STM32F3xx_HAL_Driver/Src/stm32f3xx_hal_uart.c ****     {
1181:Drivers/STM32F3xx_HAL_Driver/Src/stm32f3xx_hal_uart.c ****       return HAL_ERROR;
 1286              		.loc 1 1181 0 is_stmt 1
 1287 0022 0123     		movs	r3, #1
ARM GAS  /tmp/ccfCzef7.s 			page 44


 1288 0024 3DE0     		b	.L74
 1289              	.L73:
1182:Drivers/STM32F3xx_HAL_Driver/Src/stm32f3xx_hal_uart.c ****     }
1183:Drivers/STM32F3xx_HAL_Driver/Src/stm32f3xx_hal_uart.c **** 
1184:Drivers/STM32F3xx_HAL_Driver/Src/stm32f3xx_hal_uart.c ****     __HAL_LOCK(huart);
 1290              		.loc 1 1184 0
 1291 0026 FB68     		ldr	r3, [r7, #12]
 1292 0028 93F87030 		ldrb	r3, [r3, #112]	@ zero_extendqisi2
 1293 002c 012B     		cmp	r3, #1
 1294 002e 01D1     		bne	.L75
 1295              		.loc 1 1184 0 is_stmt 0 discriminator 1
 1296 0030 0223     		movs	r3, #2
 1297 0032 36E0     		b	.L74
 1298              	.L75:
 1299              		.loc 1 1184 0 discriminator 2
 1300 0034 FB68     		ldr	r3, [r7, #12]
 1301 0036 0122     		movs	r2, #1
 1302 0038 83F87020 		strb	r2, [r3, #112]
1185:Drivers/STM32F3xx_HAL_Driver/Src/stm32f3xx_hal_uart.c **** 
1186:Drivers/STM32F3xx_HAL_Driver/Src/stm32f3xx_hal_uart.c ****     huart->pTxBuffPtr  = pData;
 1303              		.loc 1 1186 0 is_stmt 1 discriminator 2
 1304 003c FB68     		ldr	r3, [r7, #12]
 1305 003e BA68     		ldr	r2, [r7, #8]
 1306 0040 DA64     		str	r2, [r3, #76]
1187:Drivers/STM32F3xx_HAL_Driver/Src/stm32f3xx_hal_uart.c ****     huart->TxXferSize  = Size;
 1307              		.loc 1 1187 0 discriminator 2
 1308 0042 FB68     		ldr	r3, [r7, #12]
 1309 0044 FA88     		ldrh	r2, [r7, #6]	@ movhi
 1310 0046 A3F85020 		strh	r2, [r3, #80]	@ movhi
1188:Drivers/STM32F3xx_HAL_Driver/Src/stm32f3xx_hal_uart.c ****     huart->TxXferCount = Size;
 1311              		.loc 1 1188 0 discriminator 2
 1312 004a FB68     		ldr	r3, [r7, #12]
 1313 004c FA88     		ldrh	r2, [r7, #6]	@ movhi
 1314 004e A3F85220 		strh	r2, [r3, #82]	@ movhi
1189:Drivers/STM32F3xx_HAL_Driver/Src/stm32f3xx_hal_uart.c ****     huart->TxISR       = NULL;
 1315              		.loc 1 1189 0 discriminator 2
 1316 0052 FB68     		ldr	r3, [r7, #12]
 1317 0054 0022     		movs	r2, #0
 1318 0056 5A66     		str	r2, [r3, #100]
1190:Drivers/STM32F3xx_HAL_Driver/Src/stm32f3xx_hal_uart.c **** 
1191:Drivers/STM32F3xx_HAL_Driver/Src/stm32f3xx_hal_uart.c ****     huart->ErrorCode = HAL_UART_ERROR_NONE;
 1319              		.loc 1 1191 0 discriminator 2
 1320 0058 FB68     		ldr	r3, [r7, #12]
 1321 005a 0022     		movs	r2, #0
 1322 005c DA67     		str	r2, [r3, #124]
1192:Drivers/STM32F3xx_HAL_Driver/Src/stm32f3xx_hal_uart.c ****     huart->gState = HAL_UART_STATE_BUSY_TX;
 1323              		.loc 1 1192 0 discriminator 2
 1324 005e FB68     		ldr	r3, [r7, #12]
 1325 0060 2122     		movs	r2, #33
 1326 0062 5A67     		str	r2, [r3, #116]
1193:Drivers/STM32F3xx_HAL_Driver/Src/stm32f3xx_hal_uart.c **** 
1194:Drivers/STM32F3xx_HAL_Driver/Src/stm32f3xx_hal_uart.c ****     /* Set the Tx ISR function pointer according to the data word length */
1195:Drivers/STM32F3xx_HAL_Driver/Src/stm32f3xx_hal_uart.c ****     if ((huart->Init.WordLength == UART_WORDLENGTH_9B) && (huart->Init.Parity == UART_PARITY_NONE))
 1327              		.loc 1 1195 0 discriminator 2
 1328 0064 FB68     		ldr	r3, [r7, #12]
 1329 0066 9B68     		ldr	r3, [r3, #8]
 1330 0068 B3F5805F 		cmp	r3, #4096
ARM GAS  /tmp/ccfCzef7.s 			page 45


 1331 006c 07D1     		bne	.L76
 1332              		.loc 1 1195 0 is_stmt 0 discriminator 1
 1333 006e FB68     		ldr	r3, [r7, #12]
 1334 0070 1B69     		ldr	r3, [r3, #16]
 1335 0072 002B     		cmp	r3, #0
 1336 0074 03D1     		bne	.L76
1196:Drivers/STM32F3xx_HAL_Driver/Src/stm32f3xx_hal_uart.c ****     {
1197:Drivers/STM32F3xx_HAL_Driver/Src/stm32f3xx_hal_uart.c ****       huart->TxISR = UART_TxISR_16BIT;
 1337              		.loc 1 1197 0 is_stmt 1
 1338 0076 FB68     		ldr	r3, [r7, #12]
 1339 0078 0D4A     		ldr	r2, .L78
 1340 007a 5A66     		str	r2, [r3, #100]
 1341 007c 02E0     		b	.L77
 1342              	.L76:
1198:Drivers/STM32F3xx_HAL_Driver/Src/stm32f3xx_hal_uart.c ****     }
1199:Drivers/STM32F3xx_HAL_Driver/Src/stm32f3xx_hal_uart.c ****     else
1200:Drivers/STM32F3xx_HAL_Driver/Src/stm32f3xx_hal_uart.c ****     {
1201:Drivers/STM32F3xx_HAL_Driver/Src/stm32f3xx_hal_uart.c ****       huart->TxISR = UART_TxISR_8BIT;
 1343              		.loc 1 1201 0
 1344 007e FB68     		ldr	r3, [r7, #12]
 1345 0080 0C4A     		ldr	r2, .L78+4
 1346 0082 5A66     		str	r2, [r3, #100]
 1347              	.L77:
1202:Drivers/STM32F3xx_HAL_Driver/Src/stm32f3xx_hal_uart.c ****     }
1203:Drivers/STM32F3xx_HAL_Driver/Src/stm32f3xx_hal_uart.c **** 
1204:Drivers/STM32F3xx_HAL_Driver/Src/stm32f3xx_hal_uart.c ****     __HAL_UNLOCK(huart);
 1348              		.loc 1 1204 0
 1349 0084 FB68     		ldr	r3, [r7, #12]
 1350 0086 0022     		movs	r2, #0
 1351 0088 83F87020 		strb	r2, [r3, #112]
1205:Drivers/STM32F3xx_HAL_Driver/Src/stm32f3xx_hal_uart.c **** 
1206:Drivers/STM32F3xx_HAL_Driver/Src/stm32f3xx_hal_uart.c ****     /* Enable the Transmit Data Register Empty interrupt */
1207:Drivers/STM32F3xx_HAL_Driver/Src/stm32f3xx_hal_uart.c ****     SET_BIT(huart->Instance->CR1, USART_CR1_TXEIE);
 1352              		.loc 1 1207 0
 1353 008c FB68     		ldr	r3, [r7, #12]
 1354 008e 1B68     		ldr	r3, [r3]
 1355 0090 1A68     		ldr	r2, [r3]
 1356 0092 FB68     		ldr	r3, [r7, #12]
 1357 0094 1B68     		ldr	r3, [r3]
 1358 0096 42F08002 		orr	r2, r2, #128
 1359 009a 1A60     		str	r2, [r3]
1208:Drivers/STM32F3xx_HAL_Driver/Src/stm32f3xx_hal_uart.c **** 
1209:Drivers/STM32F3xx_HAL_Driver/Src/stm32f3xx_hal_uart.c ****     return HAL_OK;
 1360              		.loc 1 1209 0
 1361 009c 0023     		movs	r3, #0
 1362 009e 00E0     		b	.L74
 1363              	.L71:
1210:Drivers/STM32F3xx_HAL_Driver/Src/stm32f3xx_hal_uart.c ****   }
1211:Drivers/STM32F3xx_HAL_Driver/Src/stm32f3xx_hal_uart.c ****   else
1212:Drivers/STM32F3xx_HAL_Driver/Src/stm32f3xx_hal_uart.c ****   {
1213:Drivers/STM32F3xx_HAL_Driver/Src/stm32f3xx_hal_uart.c ****     return HAL_BUSY;
 1364              		.loc 1 1213 0
 1365 00a0 0223     		movs	r3, #2
 1366              	.L74:
1214:Drivers/STM32F3xx_HAL_Driver/Src/stm32f3xx_hal_uart.c ****   }
1215:Drivers/STM32F3xx_HAL_Driver/Src/stm32f3xx_hal_uart.c **** }
 1367              		.loc 1 1215 0
ARM GAS  /tmp/ccfCzef7.s 			page 46


 1368 00a2 1846     		mov	r0, r3
 1369 00a4 1437     		adds	r7, r7, #20
 1370              	.LCFI50:
 1371              		.cfi_def_cfa_offset 4
 1372 00a6 BD46     		mov	sp, r7
 1373              	.LCFI51:
 1374              		.cfi_def_cfa_register 13
 1375              		@ sp needed
 1376 00a8 5DF8047B 		ldr	r7, [sp], #4
 1377              	.LCFI52:
 1378              		.cfi_restore 7
 1379              		.cfi_def_cfa_offset 0
 1380 00ac 7047     		bx	lr
 1381              	.L79:
 1382 00ae 00BF     		.align	2
 1383              	.L78:
 1384 00b0 00000000 		.word	UART_TxISR_16BIT
 1385 00b4 00000000 		.word	UART_TxISR_8BIT
 1386              		.cfi_endproc
 1387              	.LFE132:
 1389              		.section	.text.HAL_UART_Receive_IT,"ax",%progbits
 1390              		.align	1
 1391              		.global	HAL_UART_Receive_IT
 1392              		.syntax unified
 1393              		.thumb
 1394              		.thumb_func
 1395              		.fpu fpv4-sp-d16
 1397              	HAL_UART_Receive_IT:
 1398              	.LFB133:
1216:Drivers/STM32F3xx_HAL_Driver/Src/stm32f3xx_hal_uart.c **** 
1217:Drivers/STM32F3xx_HAL_Driver/Src/stm32f3xx_hal_uart.c **** /**
1218:Drivers/STM32F3xx_HAL_Driver/Src/stm32f3xx_hal_uart.c ****   * @brief Receive an amount of data in interrupt mode.
1219:Drivers/STM32F3xx_HAL_Driver/Src/stm32f3xx_hal_uart.c ****   * @note   When UART parity is not enabled (PCE = 0), and Word Length is configured to 9 bits (M1-
1220:Drivers/STM32F3xx_HAL_Driver/Src/stm32f3xx_hal_uart.c ****   *         the received data is handled as a set of u16. In this case, Size must indicate the numb
1221:Drivers/STM32F3xx_HAL_Driver/Src/stm32f3xx_hal_uart.c ****   *         of u16 available through pData.
1222:Drivers/STM32F3xx_HAL_Driver/Src/stm32f3xx_hal_uart.c ****   * @param huart UART handle.
1223:Drivers/STM32F3xx_HAL_Driver/Src/stm32f3xx_hal_uart.c ****   * @param pData Pointer to data buffer (u8 or u16 data elements).
1224:Drivers/STM32F3xx_HAL_Driver/Src/stm32f3xx_hal_uart.c ****   * @param Size  Amount of data elements (u8 or u16) to be received.
1225:Drivers/STM32F3xx_HAL_Driver/Src/stm32f3xx_hal_uart.c ****   * @retval HAL status
1226:Drivers/STM32F3xx_HAL_Driver/Src/stm32f3xx_hal_uart.c ****   */
1227:Drivers/STM32F3xx_HAL_Driver/Src/stm32f3xx_hal_uart.c **** HAL_StatusTypeDef HAL_UART_Receive_IT(UART_HandleTypeDef *huart, uint8_t *pData, uint16_t Size)
1228:Drivers/STM32F3xx_HAL_Driver/Src/stm32f3xx_hal_uart.c **** {
 1399              		.loc 1 1228 0
 1400              		.cfi_startproc
 1401              		@ args = 0, pretend = 0, frame = 16
 1402              		@ frame_needed = 1, uses_anonymous_args = 0
 1403              		@ link register save eliminated.
 1404 0000 80B4     		push	{r7}
 1405              	.LCFI53:
 1406              		.cfi_def_cfa_offset 4
 1407              		.cfi_offset 7, -4
 1408 0002 85B0     		sub	sp, sp, #20
 1409              	.LCFI54:
 1410              		.cfi_def_cfa_offset 24
 1411 0004 00AF     		add	r7, sp, #0
 1412              	.LCFI55:
 1413              		.cfi_def_cfa_register 7
ARM GAS  /tmp/ccfCzef7.s 			page 47


 1414 0006 F860     		str	r0, [r7, #12]
 1415 0008 B960     		str	r1, [r7, #8]
 1416 000a 1346     		mov	r3, r2
 1417 000c FB80     		strh	r3, [r7, #6]	@ movhi
1229:Drivers/STM32F3xx_HAL_Driver/Src/stm32f3xx_hal_uart.c ****   /* Check that a Rx process is not already ongoing */
1230:Drivers/STM32F3xx_HAL_Driver/Src/stm32f3xx_hal_uart.c ****   if (huart->RxState == HAL_UART_STATE_READY)
 1418              		.loc 1 1230 0
 1419 000e FB68     		ldr	r3, [r7, #12]
 1420 0010 9B6F     		ldr	r3, [r3, #120]
 1421 0012 202B     		cmp	r3, #32
 1422 0014 40F08A80 		bne	.L81
1231:Drivers/STM32F3xx_HAL_Driver/Src/stm32f3xx_hal_uart.c ****   {
1232:Drivers/STM32F3xx_HAL_Driver/Src/stm32f3xx_hal_uart.c ****     if ((pData == NULL) || (Size == 0U))
 1423              		.loc 1 1232 0
 1424 0018 BB68     		ldr	r3, [r7, #8]
 1425 001a 002B     		cmp	r3, #0
 1426 001c 02D0     		beq	.L82
 1427              		.loc 1 1232 0 is_stmt 0 discriminator 1
 1428 001e FB88     		ldrh	r3, [r7, #6]
 1429 0020 002B     		cmp	r3, #0
 1430 0022 01D1     		bne	.L83
 1431              	.L82:
1233:Drivers/STM32F3xx_HAL_Driver/Src/stm32f3xx_hal_uart.c ****     {
1234:Drivers/STM32F3xx_HAL_Driver/Src/stm32f3xx_hal_uart.c ****       return HAL_ERROR;
 1432              		.loc 1 1234 0 is_stmt 1
 1433 0024 0123     		movs	r3, #1
 1434 0026 82E0     		b	.L84
 1435              	.L83:
1235:Drivers/STM32F3xx_HAL_Driver/Src/stm32f3xx_hal_uart.c ****     }
1236:Drivers/STM32F3xx_HAL_Driver/Src/stm32f3xx_hal_uart.c **** 
1237:Drivers/STM32F3xx_HAL_Driver/Src/stm32f3xx_hal_uart.c ****     __HAL_LOCK(huart);
 1436              		.loc 1 1237 0
 1437 0028 FB68     		ldr	r3, [r7, #12]
 1438 002a 93F87030 		ldrb	r3, [r3, #112]	@ zero_extendqisi2
 1439 002e 012B     		cmp	r3, #1
 1440 0030 01D1     		bne	.L85
 1441              		.loc 1 1237 0 is_stmt 0 discriminator 1
 1442 0032 0223     		movs	r3, #2
 1443 0034 7BE0     		b	.L84
 1444              	.L85:
 1445              		.loc 1 1237 0 discriminator 2
 1446 0036 FB68     		ldr	r3, [r7, #12]
 1447 0038 0122     		movs	r2, #1
 1448 003a 83F87020 		strb	r2, [r3, #112]
1238:Drivers/STM32F3xx_HAL_Driver/Src/stm32f3xx_hal_uart.c **** 
1239:Drivers/STM32F3xx_HAL_Driver/Src/stm32f3xx_hal_uart.c ****     huart->pRxBuffPtr  = pData;
 1449              		.loc 1 1239 0 is_stmt 1 discriminator 2
 1450 003e FB68     		ldr	r3, [r7, #12]
 1451 0040 BA68     		ldr	r2, [r7, #8]
 1452 0042 5A65     		str	r2, [r3, #84]
1240:Drivers/STM32F3xx_HAL_Driver/Src/stm32f3xx_hal_uart.c ****     huart->RxXferSize  = Size;
 1453              		.loc 1 1240 0 discriminator 2
 1454 0044 FB68     		ldr	r3, [r7, #12]
 1455 0046 FA88     		ldrh	r2, [r7, #6]	@ movhi
 1456 0048 A3F85820 		strh	r2, [r3, #88]	@ movhi
1241:Drivers/STM32F3xx_HAL_Driver/Src/stm32f3xx_hal_uart.c ****     huart->RxXferCount = Size;
 1457              		.loc 1 1241 0 discriminator 2
ARM GAS  /tmp/ccfCzef7.s 			page 48


 1458 004c FB68     		ldr	r3, [r7, #12]
 1459 004e FA88     		ldrh	r2, [r7, #6]	@ movhi
 1460 0050 A3F85A20 		strh	r2, [r3, #90]	@ movhi
1242:Drivers/STM32F3xx_HAL_Driver/Src/stm32f3xx_hal_uart.c ****     huart->RxISR       = NULL;
 1461              		.loc 1 1242 0 discriminator 2
 1462 0054 FB68     		ldr	r3, [r7, #12]
 1463 0056 0022     		movs	r2, #0
 1464 0058 1A66     		str	r2, [r3, #96]
1243:Drivers/STM32F3xx_HAL_Driver/Src/stm32f3xx_hal_uart.c **** 
1244:Drivers/STM32F3xx_HAL_Driver/Src/stm32f3xx_hal_uart.c ****     /* Computation of UART mask to apply to RDR register */
1245:Drivers/STM32F3xx_HAL_Driver/Src/stm32f3xx_hal_uart.c ****     UART_MASK_COMPUTATION(huart);
 1465              		.loc 1 1245 0 discriminator 2
 1466 005a FB68     		ldr	r3, [r7, #12]
 1467 005c 9B68     		ldr	r3, [r3, #8]
 1468 005e B3F5805F 		cmp	r3, #4096
 1469 0062 0ED1     		bne	.L86
 1470              		.loc 1 1245 0 is_stmt 0 discriminator 1
 1471 0064 FB68     		ldr	r3, [r7, #12]
 1472 0066 1B69     		ldr	r3, [r3, #16]
 1473 0068 002B     		cmp	r3, #0
 1474 006a 05D1     		bne	.L87
 1475              		.loc 1 1245 0 discriminator 3
 1476 006c FB68     		ldr	r3, [r7, #12]
 1477 006e 40F2FF12 		movw	r2, #511
 1478 0072 A3F85C20 		strh	r2, [r3, #92]	@ movhi
 1479 0076 2DE0     		b	.L89
 1480              	.L87:
 1481              		.loc 1 1245 0 discriminator 4
 1482 0078 FB68     		ldr	r3, [r7, #12]
 1483 007a FF22     		movs	r2, #255
 1484 007c A3F85C20 		strh	r2, [r3, #92]	@ movhi
 1485 0080 28E0     		b	.L89
 1486              	.L86:
 1487              		.loc 1 1245 0 discriminator 2
 1488 0082 FB68     		ldr	r3, [r7, #12]
 1489 0084 9B68     		ldr	r3, [r3, #8]
 1490 0086 002B     		cmp	r3, #0
 1491 0088 0DD1     		bne	.L90
 1492              		.loc 1 1245 0 discriminator 5
 1493 008a FB68     		ldr	r3, [r7, #12]
 1494 008c 1B69     		ldr	r3, [r3, #16]
 1495 008e 002B     		cmp	r3, #0
 1496 0090 04D1     		bne	.L91
 1497              		.loc 1 1245 0 discriminator 7
 1498 0092 FB68     		ldr	r3, [r7, #12]
 1499 0094 FF22     		movs	r2, #255
 1500 0096 A3F85C20 		strh	r2, [r3, #92]	@ movhi
 1501 009a 1BE0     		b	.L89
 1502              	.L91:
 1503              		.loc 1 1245 0 discriminator 8
 1504 009c FB68     		ldr	r3, [r7, #12]
 1505 009e 7F22     		movs	r2, #127
 1506 00a0 A3F85C20 		strh	r2, [r3, #92]	@ movhi
 1507 00a4 16E0     		b	.L89
 1508              	.L90:
 1509              		.loc 1 1245 0 discriminator 6
 1510 00a6 FB68     		ldr	r3, [r7, #12]
ARM GAS  /tmp/ccfCzef7.s 			page 49


 1511 00a8 9B68     		ldr	r3, [r3, #8]
 1512 00aa B3F1805F 		cmp	r3, #268435456
 1513 00ae 0DD1     		bne	.L93
 1514              		.loc 1 1245 0 discriminator 9
 1515 00b0 FB68     		ldr	r3, [r7, #12]
 1516 00b2 1B69     		ldr	r3, [r3, #16]
 1517 00b4 002B     		cmp	r3, #0
 1518 00b6 04D1     		bne	.L94
 1519              		.loc 1 1245 0 discriminator 11
 1520 00b8 FB68     		ldr	r3, [r7, #12]
 1521 00ba 7F22     		movs	r2, #127
 1522 00bc A3F85C20 		strh	r2, [r3, #92]	@ movhi
 1523 00c0 08E0     		b	.L89
 1524              	.L94:
 1525              		.loc 1 1245 0 discriminator 12
 1526 00c2 FB68     		ldr	r3, [r7, #12]
 1527 00c4 3F22     		movs	r2, #63
 1528 00c6 A3F85C20 		strh	r2, [r3, #92]	@ movhi
 1529 00ca 03E0     		b	.L89
 1530              	.L93:
 1531              		.loc 1 1245 0 discriminator 10
 1532 00cc FB68     		ldr	r3, [r7, #12]
 1533 00ce 0022     		movs	r2, #0
 1534 00d0 A3F85C20 		strh	r2, [r3, #92]	@ movhi
 1535              	.L89:
1246:Drivers/STM32F3xx_HAL_Driver/Src/stm32f3xx_hal_uart.c **** 
1247:Drivers/STM32F3xx_HAL_Driver/Src/stm32f3xx_hal_uart.c ****     huart->ErrorCode = HAL_UART_ERROR_NONE;
 1536              		.loc 1 1247 0 is_stmt 1
 1537 00d4 FB68     		ldr	r3, [r7, #12]
 1538 00d6 0022     		movs	r2, #0
 1539 00d8 DA67     		str	r2, [r3, #124]
1248:Drivers/STM32F3xx_HAL_Driver/Src/stm32f3xx_hal_uart.c ****     huart->RxState = HAL_UART_STATE_BUSY_RX;
 1540              		.loc 1 1248 0
 1541 00da FB68     		ldr	r3, [r7, #12]
 1542 00dc 2222     		movs	r2, #34
 1543 00de 9A67     		str	r2, [r3, #120]
1249:Drivers/STM32F3xx_HAL_Driver/Src/stm32f3xx_hal_uart.c **** 
1250:Drivers/STM32F3xx_HAL_Driver/Src/stm32f3xx_hal_uart.c ****     /* Enable the UART Error Interrupt: (Frame error, noise error, overrun error) */
1251:Drivers/STM32F3xx_HAL_Driver/Src/stm32f3xx_hal_uart.c ****     SET_BIT(huart->Instance->CR3, USART_CR3_EIE);
 1544              		.loc 1 1251 0
 1545 00e0 FB68     		ldr	r3, [r7, #12]
 1546 00e2 1B68     		ldr	r3, [r3]
 1547 00e4 9A68     		ldr	r2, [r3, #8]
 1548 00e6 FB68     		ldr	r3, [r7, #12]
 1549 00e8 1B68     		ldr	r3, [r3]
 1550 00ea 42F00102 		orr	r2, r2, #1
 1551 00ee 9A60     		str	r2, [r3, #8]
1252:Drivers/STM32F3xx_HAL_Driver/Src/stm32f3xx_hal_uart.c **** 
1253:Drivers/STM32F3xx_HAL_Driver/Src/stm32f3xx_hal_uart.c ****     /* Set the Rx ISR function pointer according to the data word length */
1254:Drivers/STM32F3xx_HAL_Driver/Src/stm32f3xx_hal_uart.c ****     if ((huart->Init.WordLength == UART_WORDLENGTH_9B) && (huart->Init.Parity == UART_PARITY_NONE))
 1552              		.loc 1 1254 0
 1553 00f0 FB68     		ldr	r3, [r7, #12]
 1554 00f2 9B68     		ldr	r3, [r3, #8]
 1555 00f4 B3F5805F 		cmp	r3, #4096
 1556 00f8 07D1     		bne	.L96
 1557              		.loc 1 1254 0 is_stmt 0 discriminator 1
 1558 00fa FB68     		ldr	r3, [r7, #12]
ARM GAS  /tmp/ccfCzef7.s 			page 50


 1559 00fc 1B69     		ldr	r3, [r3, #16]
 1560 00fe 002B     		cmp	r3, #0
 1561 0100 03D1     		bne	.L96
1255:Drivers/STM32F3xx_HAL_Driver/Src/stm32f3xx_hal_uart.c ****     {
1256:Drivers/STM32F3xx_HAL_Driver/Src/stm32f3xx_hal_uart.c ****       huart->RxISR = UART_RxISR_16BIT;
 1562              		.loc 1 1256 0 is_stmt 1
 1563 0102 FB68     		ldr	r3, [r7, #12]
 1564 0104 0D4A     		ldr	r2, .L98
 1565 0106 1A66     		str	r2, [r3, #96]
 1566 0108 02E0     		b	.L97
 1567              	.L96:
1257:Drivers/STM32F3xx_HAL_Driver/Src/stm32f3xx_hal_uart.c ****     }
1258:Drivers/STM32F3xx_HAL_Driver/Src/stm32f3xx_hal_uart.c ****     else
1259:Drivers/STM32F3xx_HAL_Driver/Src/stm32f3xx_hal_uart.c ****     {
1260:Drivers/STM32F3xx_HAL_Driver/Src/stm32f3xx_hal_uart.c ****       huart->RxISR = UART_RxISR_8BIT;
 1568              		.loc 1 1260 0
 1569 010a FB68     		ldr	r3, [r7, #12]
 1570 010c 0C4A     		ldr	r2, .L98+4
 1571 010e 1A66     		str	r2, [r3, #96]
 1572              	.L97:
1261:Drivers/STM32F3xx_HAL_Driver/Src/stm32f3xx_hal_uart.c ****     }
1262:Drivers/STM32F3xx_HAL_Driver/Src/stm32f3xx_hal_uart.c **** 
1263:Drivers/STM32F3xx_HAL_Driver/Src/stm32f3xx_hal_uart.c ****     __HAL_UNLOCK(huart);
 1573              		.loc 1 1263 0
 1574 0110 FB68     		ldr	r3, [r7, #12]
 1575 0112 0022     		movs	r2, #0
 1576 0114 83F87020 		strb	r2, [r3, #112]
1264:Drivers/STM32F3xx_HAL_Driver/Src/stm32f3xx_hal_uart.c **** 
1265:Drivers/STM32F3xx_HAL_Driver/Src/stm32f3xx_hal_uart.c ****     /* Enable the UART Parity Error interrupt and Data Register Not Empty interrupt */
1266:Drivers/STM32F3xx_HAL_Driver/Src/stm32f3xx_hal_uart.c ****     SET_BIT(huart->Instance->CR1, USART_CR1_PEIE | USART_CR1_RXNEIE);
 1577              		.loc 1 1266 0
 1578 0118 FB68     		ldr	r3, [r7, #12]
 1579 011a 1B68     		ldr	r3, [r3]
 1580 011c 1A68     		ldr	r2, [r3]
 1581 011e FB68     		ldr	r3, [r7, #12]
 1582 0120 1B68     		ldr	r3, [r3]
 1583 0122 42F49072 		orr	r2, r2, #288
 1584 0126 1A60     		str	r2, [r3]
1267:Drivers/STM32F3xx_HAL_Driver/Src/stm32f3xx_hal_uart.c **** 
1268:Drivers/STM32F3xx_HAL_Driver/Src/stm32f3xx_hal_uart.c ****     return HAL_OK;
 1585              		.loc 1 1268 0
 1586 0128 0023     		movs	r3, #0
 1587 012a 00E0     		b	.L84
 1588              	.L81:
1269:Drivers/STM32F3xx_HAL_Driver/Src/stm32f3xx_hal_uart.c ****   }
1270:Drivers/STM32F3xx_HAL_Driver/Src/stm32f3xx_hal_uart.c ****   else
1271:Drivers/STM32F3xx_HAL_Driver/Src/stm32f3xx_hal_uart.c ****   {
1272:Drivers/STM32F3xx_HAL_Driver/Src/stm32f3xx_hal_uart.c ****     return HAL_BUSY;
 1589              		.loc 1 1272 0
 1590 012c 0223     		movs	r3, #2
 1591              	.L84:
1273:Drivers/STM32F3xx_HAL_Driver/Src/stm32f3xx_hal_uart.c ****   }
1274:Drivers/STM32F3xx_HAL_Driver/Src/stm32f3xx_hal_uart.c **** }
 1592              		.loc 1 1274 0
 1593 012e 1846     		mov	r0, r3
 1594 0130 1437     		adds	r7, r7, #20
 1595              	.LCFI56:
ARM GAS  /tmp/ccfCzef7.s 			page 51


 1596              		.cfi_def_cfa_offset 4
 1597 0132 BD46     		mov	sp, r7
 1598              	.LCFI57:
 1599              		.cfi_def_cfa_register 13
 1600              		@ sp needed
 1601 0134 5DF8047B 		ldr	r7, [sp], #4
 1602              	.LCFI58:
 1603              		.cfi_restore 7
 1604              		.cfi_def_cfa_offset 0
 1605 0138 7047     		bx	lr
 1606              	.L99:
 1607 013a 00BF     		.align	2
 1608              	.L98:
 1609 013c 00000000 		.word	UART_RxISR_16BIT
 1610 0140 00000000 		.word	UART_RxISR_8BIT
 1611              		.cfi_endproc
 1612              	.LFE133:
 1614              		.section	.text.HAL_UART_Transmit_DMA,"ax",%progbits
 1615              		.align	1
 1616              		.global	HAL_UART_Transmit_DMA
 1617              		.syntax unified
 1618              		.thumb
 1619              		.thumb_func
 1620              		.fpu fpv4-sp-d16
 1622              	HAL_UART_Transmit_DMA:
 1623              	.LFB134:
1275:Drivers/STM32F3xx_HAL_Driver/Src/stm32f3xx_hal_uart.c **** 
1276:Drivers/STM32F3xx_HAL_Driver/Src/stm32f3xx_hal_uart.c **** /**
1277:Drivers/STM32F3xx_HAL_Driver/Src/stm32f3xx_hal_uart.c ****   * @brief Send an amount of data in DMA mode.
1278:Drivers/STM32F3xx_HAL_Driver/Src/stm32f3xx_hal_uart.c ****   * @note   When UART parity is not enabled (PCE = 0), and Word Length is configured to 9 bits (M1-
1279:Drivers/STM32F3xx_HAL_Driver/Src/stm32f3xx_hal_uart.c ****   *         the sent data is handled as a set of u16. In this case, Size must indicate the number
1280:Drivers/STM32F3xx_HAL_Driver/Src/stm32f3xx_hal_uart.c ****   *         of u16 provided through pData.
1281:Drivers/STM32F3xx_HAL_Driver/Src/stm32f3xx_hal_uart.c ****   * @param huart UART handle.
1282:Drivers/STM32F3xx_HAL_Driver/Src/stm32f3xx_hal_uart.c ****   * @param pData Pointer to data buffer (u8 or u16 data elements).
1283:Drivers/STM32F3xx_HAL_Driver/Src/stm32f3xx_hal_uart.c ****   * @param Size  Amount of data elements (u8 or u16) to be sent.
1284:Drivers/STM32F3xx_HAL_Driver/Src/stm32f3xx_hal_uart.c ****   * @retval HAL status
1285:Drivers/STM32F3xx_HAL_Driver/Src/stm32f3xx_hal_uart.c ****   */
1286:Drivers/STM32F3xx_HAL_Driver/Src/stm32f3xx_hal_uart.c **** HAL_StatusTypeDef HAL_UART_Transmit_DMA(UART_HandleTypeDef *huart, uint8_t *pData, uint16_t Size)
1287:Drivers/STM32F3xx_HAL_Driver/Src/stm32f3xx_hal_uart.c **** {
 1624              		.loc 1 1287 0
 1625              		.cfi_startproc
 1626              		@ args = 0, pretend = 0, frame = 16
 1627              		@ frame_needed = 1, uses_anonymous_args = 0
 1628 0000 80B5     		push	{r7, lr}
 1629              	.LCFI59:
 1630              		.cfi_def_cfa_offset 8
 1631              		.cfi_offset 7, -8
 1632              		.cfi_offset 14, -4
 1633 0002 84B0     		sub	sp, sp, #16
 1634              	.LCFI60:
 1635              		.cfi_def_cfa_offset 24
 1636 0004 00AF     		add	r7, sp, #0
 1637              	.LCFI61:
 1638              		.cfi_def_cfa_register 7
 1639 0006 F860     		str	r0, [r7, #12]
 1640 0008 B960     		str	r1, [r7, #8]
 1641 000a 1346     		mov	r3, r2
ARM GAS  /tmp/ccfCzef7.s 			page 52


 1642 000c FB80     		strh	r3, [r7, #6]	@ movhi
1288:Drivers/STM32F3xx_HAL_Driver/Src/stm32f3xx_hal_uart.c ****   /* Check that a Tx process is not already ongoing */
1289:Drivers/STM32F3xx_HAL_Driver/Src/stm32f3xx_hal_uart.c ****   if (huart->gState == HAL_UART_STATE_READY)
 1643              		.loc 1 1289 0
 1644 000e FB68     		ldr	r3, [r7, #12]
 1645 0010 5B6F     		ldr	r3, [r3, #116]
 1646 0012 202B     		cmp	r3, #32
 1647 0014 64D1     		bne	.L101
1290:Drivers/STM32F3xx_HAL_Driver/Src/stm32f3xx_hal_uart.c ****   {
1291:Drivers/STM32F3xx_HAL_Driver/Src/stm32f3xx_hal_uart.c ****     if ((pData == NULL) || (Size == 0U))
 1648              		.loc 1 1291 0
 1649 0016 BB68     		ldr	r3, [r7, #8]
 1650 0018 002B     		cmp	r3, #0
 1651 001a 02D0     		beq	.L102
 1652              		.loc 1 1291 0 is_stmt 0 discriminator 1
 1653 001c FB88     		ldrh	r3, [r7, #6]
 1654 001e 002B     		cmp	r3, #0
 1655 0020 01D1     		bne	.L103
 1656              	.L102:
1292:Drivers/STM32F3xx_HAL_Driver/Src/stm32f3xx_hal_uart.c ****     {
1293:Drivers/STM32F3xx_HAL_Driver/Src/stm32f3xx_hal_uart.c ****       return HAL_ERROR;
 1657              		.loc 1 1293 0 is_stmt 1
 1658 0022 0123     		movs	r3, #1
 1659 0024 5DE0     		b	.L104
 1660              	.L103:
1294:Drivers/STM32F3xx_HAL_Driver/Src/stm32f3xx_hal_uart.c ****     }
1295:Drivers/STM32F3xx_HAL_Driver/Src/stm32f3xx_hal_uart.c **** 
1296:Drivers/STM32F3xx_HAL_Driver/Src/stm32f3xx_hal_uart.c ****     __HAL_LOCK(huart);
 1661              		.loc 1 1296 0
 1662 0026 FB68     		ldr	r3, [r7, #12]
 1663 0028 93F87030 		ldrb	r3, [r3, #112]	@ zero_extendqisi2
 1664 002c 012B     		cmp	r3, #1
 1665 002e 01D1     		bne	.L105
 1666              		.loc 1 1296 0 is_stmt 0 discriminator 1
 1667 0030 0223     		movs	r3, #2
 1668 0032 56E0     		b	.L104
 1669              	.L105:
 1670              		.loc 1 1296 0 discriminator 2
 1671 0034 FB68     		ldr	r3, [r7, #12]
 1672 0036 0122     		movs	r2, #1
 1673 0038 83F87020 		strb	r2, [r3, #112]
1297:Drivers/STM32F3xx_HAL_Driver/Src/stm32f3xx_hal_uart.c **** 
1298:Drivers/STM32F3xx_HAL_Driver/Src/stm32f3xx_hal_uart.c ****     huart->pTxBuffPtr  = pData;
 1674              		.loc 1 1298 0 is_stmt 1 discriminator 2
 1675 003c FB68     		ldr	r3, [r7, #12]
 1676 003e BA68     		ldr	r2, [r7, #8]
 1677 0040 DA64     		str	r2, [r3, #76]
1299:Drivers/STM32F3xx_HAL_Driver/Src/stm32f3xx_hal_uart.c ****     huart->TxXferSize  = Size;
 1678              		.loc 1 1299 0 discriminator 2
 1679 0042 FB68     		ldr	r3, [r7, #12]
 1680 0044 FA88     		ldrh	r2, [r7, #6]	@ movhi
 1681 0046 A3F85020 		strh	r2, [r3, #80]	@ movhi
1300:Drivers/STM32F3xx_HAL_Driver/Src/stm32f3xx_hal_uart.c ****     huart->TxXferCount = Size;
 1682              		.loc 1 1300 0 discriminator 2
 1683 004a FB68     		ldr	r3, [r7, #12]
 1684 004c FA88     		ldrh	r2, [r7, #6]	@ movhi
 1685 004e A3F85220 		strh	r2, [r3, #82]	@ movhi
ARM GAS  /tmp/ccfCzef7.s 			page 53


1301:Drivers/STM32F3xx_HAL_Driver/Src/stm32f3xx_hal_uart.c **** 
1302:Drivers/STM32F3xx_HAL_Driver/Src/stm32f3xx_hal_uart.c ****     huart->ErrorCode = HAL_UART_ERROR_NONE;
 1686              		.loc 1 1302 0 discriminator 2
 1687 0052 FB68     		ldr	r3, [r7, #12]
 1688 0054 0022     		movs	r2, #0
 1689 0056 DA67     		str	r2, [r3, #124]
1303:Drivers/STM32F3xx_HAL_Driver/Src/stm32f3xx_hal_uart.c ****     huart->gState = HAL_UART_STATE_BUSY_TX;
 1690              		.loc 1 1303 0 discriminator 2
 1691 0058 FB68     		ldr	r3, [r7, #12]
 1692 005a 2122     		movs	r2, #33
 1693 005c 5A67     		str	r2, [r3, #116]
1304:Drivers/STM32F3xx_HAL_Driver/Src/stm32f3xx_hal_uart.c **** 
1305:Drivers/STM32F3xx_HAL_Driver/Src/stm32f3xx_hal_uart.c ****     if (huart->hdmatx != NULL)
 1694              		.loc 1 1305 0 discriminator 2
 1695 005e FB68     		ldr	r3, [r7, #12]
 1696 0060 9B6E     		ldr	r3, [r3, #104]
 1697 0062 002B     		cmp	r3, #0
 1698 0064 2AD0     		beq	.L106
1306:Drivers/STM32F3xx_HAL_Driver/Src/stm32f3xx_hal_uart.c ****     {
1307:Drivers/STM32F3xx_HAL_Driver/Src/stm32f3xx_hal_uart.c ****       /* Set the UART DMA transfer complete callback */
1308:Drivers/STM32F3xx_HAL_Driver/Src/stm32f3xx_hal_uart.c ****       huart->hdmatx->XferCpltCallback = UART_DMATransmitCplt;
 1699              		.loc 1 1308 0
 1700 0066 FB68     		ldr	r3, [r7, #12]
 1701 0068 9B6E     		ldr	r3, [r3, #104]
 1702 006a 204A     		ldr	r2, .L107
 1703 006c 9A62     		str	r2, [r3, #40]
1309:Drivers/STM32F3xx_HAL_Driver/Src/stm32f3xx_hal_uart.c **** 
1310:Drivers/STM32F3xx_HAL_Driver/Src/stm32f3xx_hal_uart.c ****       /* Set the UART DMA Half transfer complete callback */
1311:Drivers/STM32F3xx_HAL_Driver/Src/stm32f3xx_hal_uart.c ****       huart->hdmatx->XferHalfCpltCallback = UART_DMATxHalfCplt;
 1704              		.loc 1 1311 0
 1705 006e FB68     		ldr	r3, [r7, #12]
 1706 0070 9B6E     		ldr	r3, [r3, #104]
 1707 0072 1F4A     		ldr	r2, .L107+4
 1708 0074 DA62     		str	r2, [r3, #44]
1312:Drivers/STM32F3xx_HAL_Driver/Src/stm32f3xx_hal_uart.c **** 
1313:Drivers/STM32F3xx_HAL_Driver/Src/stm32f3xx_hal_uart.c ****       /* Set the DMA error callback */
1314:Drivers/STM32F3xx_HAL_Driver/Src/stm32f3xx_hal_uart.c ****       huart->hdmatx->XferErrorCallback = UART_DMAError;
 1709              		.loc 1 1314 0
 1710 0076 FB68     		ldr	r3, [r7, #12]
 1711 0078 9B6E     		ldr	r3, [r3, #104]
 1712 007a 1E4A     		ldr	r2, .L107+8
 1713 007c 1A63     		str	r2, [r3, #48]
1315:Drivers/STM32F3xx_HAL_Driver/Src/stm32f3xx_hal_uart.c **** 
1316:Drivers/STM32F3xx_HAL_Driver/Src/stm32f3xx_hal_uart.c ****       /* Set the DMA abort callback */
1317:Drivers/STM32F3xx_HAL_Driver/Src/stm32f3xx_hal_uart.c ****       huart->hdmatx->XferAbortCallback = NULL;
 1714              		.loc 1 1317 0
 1715 007e FB68     		ldr	r3, [r7, #12]
 1716 0080 9B6E     		ldr	r3, [r3, #104]
 1717 0082 0022     		movs	r2, #0
 1718 0084 5A63     		str	r2, [r3, #52]
1318:Drivers/STM32F3xx_HAL_Driver/Src/stm32f3xx_hal_uart.c **** 
1319:Drivers/STM32F3xx_HAL_Driver/Src/stm32f3xx_hal_uart.c ****       /* Enable the UART transmit DMA channel */
1320:Drivers/STM32F3xx_HAL_Driver/Src/stm32f3xx_hal_uart.c ****       if (HAL_DMA_Start_IT(huart->hdmatx, (uint32_t)huart->pTxBuffPtr, (uint32_t)&huart->Instance->
 1719              		.loc 1 1320 0
 1720 0086 FB68     		ldr	r3, [r7, #12]
 1721 0088 986E     		ldr	r0, [r3, #104]
 1722 008a FB68     		ldr	r3, [r7, #12]
ARM GAS  /tmp/ccfCzef7.s 			page 54


 1723 008c DB6C     		ldr	r3, [r3, #76]
 1724 008e 1946     		mov	r1, r3
 1725 0090 FB68     		ldr	r3, [r7, #12]
 1726 0092 1B68     		ldr	r3, [r3]
 1727 0094 2833     		adds	r3, r3, #40
 1728 0096 1A46     		mov	r2, r3
 1729 0098 FB88     		ldrh	r3, [r7, #6]
 1730 009a FFF7FEFF 		bl	HAL_DMA_Start_IT
 1731 009e 0346     		mov	r3, r0
 1732 00a0 002B     		cmp	r3, #0
 1733 00a2 0BD0     		beq	.L106
1321:Drivers/STM32F3xx_HAL_Driver/Src/stm32f3xx_hal_uart.c ****       {
1322:Drivers/STM32F3xx_HAL_Driver/Src/stm32f3xx_hal_uart.c ****         /* Set error code to DMA */
1323:Drivers/STM32F3xx_HAL_Driver/Src/stm32f3xx_hal_uart.c ****         huart->ErrorCode = HAL_UART_ERROR_DMA;
 1734              		.loc 1 1323 0
 1735 00a4 FB68     		ldr	r3, [r7, #12]
 1736 00a6 1022     		movs	r2, #16
 1737 00a8 DA67     		str	r2, [r3, #124]
1324:Drivers/STM32F3xx_HAL_Driver/Src/stm32f3xx_hal_uart.c **** 
1325:Drivers/STM32F3xx_HAL_Driver/Src/stm32f3xx_hal_uart.c ****         __HAL_UNLOCK(huart);
 1738              		.loc 1 1325 0
 1739 00aa FB68     		ldr	r3, [r7, #12]
 1740 00ac 0022     		movs	r2, #0
 1741 00ae 83F87020 		strb	r2, [r3, #112]
1326:Drivers/STM32F3xx_HAL_Driver/Src/stm32f3xx_hal_uart.c **** 
1327:Drivers/STM32F3xx_HAL_Driver/Src/stm32f3xx_hal_uart.c ****         /* Restore huart->gState to ready */
1328:Drivers/STM32F3xx_HAL_Driver/Src/stm32f3xx_hal_uart.c ****         huart->gState = HAL_UART_STATE_READY;
 1742              		.loc 1 1328 0
 1743 00b2 FB68     		ldr	r3, [r7, #12]
 1744 00b4 2022     		movs	r2, #32
 1745 00b6 5A67     		str	r2, [r3, #116]
1329:Drivers/STM32F3xx_HAL_Driver/Src/stm32f3xx_hal_uart.c **** 
1330:Drivers/STM32F3xx_HAL_Driver/Src/stm32f3xx_hal_uart.c ****         return HAL_ERROR;
 1746              		.loc 1 1330 0
 1747 00b8 0123     		movs	r3, #1
 1748 00ba 12E0     		b	.L104
 1749              	.L106:
1331:Drivers/STM32F3xx_HAL_Driver/Src/stm32f3xx_hal_uart.c ****       }
1332:Drivers/STM32F3xx_HAL_Driver/Src/stm32f3xx_hal_uart.c ****     }
1333:Drivers/STM32F3xx_HAL_Driver/Src/stm32f3xx_hal_uart.c ****     /* Clear the TC flag in the ICR register */
1334:Drivers/STM32F3xx_HAL_Driver/Src/stm32f3xx_hal_uart.c ****     __HAL_UART_CLEAR_FLAG(huart, UART_CLEAR_TCF);
 1750              		.loc 1 1334 0
 1751 00bc FB68     		ldr	r3, [r7, #12]
 1752 00be 1B68     		ldr	r3, [r3]
 1753 00c0 4022     		movs	r2, #64
 1754 00c2 1A62     		str	r2, [r3, #32]
1335:Drivers/STM32F3xx_HAL_Driver/Src/stm32f3xx_hal_uart.c **** 
1336:Drivers/STM32F3xx_HAL_Driver/Src/stm32f3xx_hal_uart.c ****     __HAL_UNLOCK(huart);
 1755              		.loc 1 1336 0
 1756 00c4 FB68     		ldr	r3, [r7, #12]
 1757 00c6 0022     		movs	r2, #0
 1758 00c8 83F87020 		strb	r2, [r3, #112]
1337:Drivers/STM32F3xx_HAL_Driver/Src/stm32f3xx_hal_uart.c **** 
1338:Drivers/STM32F3xx_HAL_Driver/Src/stm32f3xx_hal_uart.c ****     /* Enable the DMA transfer for transmit request by setting the DMAT bit
1339:Drivers/STM32F3xx_HAL_Driver/Src/stm32f3xx_hal_uart.c ****     in the UART CR3 register */
1340:Drivers/STM32F3xx_HAL_Driver/Src/stm32f3xx_hal_uart.c ****     SET_BIT(huart->Instance->CR3, USART_CR3_DMAT);
 1759              		.loc 1 1340 0
ARM GAS  /tmp/ccfCzef7.s 			page 55


 1760 00cc FB68     		ldr	r3, [r7, #12]
 1761 00ce 1B68     		ldr	r3, [r3]
 1762 00d0 9A68     		ldr	r2, [r3, #8]
 1763 00d2 FB68     		ldr	r3, [r7, #12]
 1764 00d4 1B68     		ldr	r3, [r3]
 1765 00d6 42F08002 		orr	r2, r2, #128
 1766 00da 9A60     		str	r2, [r3, #8]
1341:Drivers/STM32F3xx_HAL_Driver/Src/stm32f3xx_hal_uart.c **** 
1342:Drivers/STM32F3xx_HAL_Driver/Src/stm32f3xx_hal_uart.c ****     return HAL_OK;
 1767              		.loc 1 1342 0
 1768 00dc 0023     		movs	r3, #0
 1769 00de 00E0     		b	.L104
 1770              	.L101:
1343:Drivers/STM32F3xx_HAL_Driver/Src/stm32f3xx_hal_uart.c ****   }
1344:Drivers/STM32F3xx_HAL_Driver/Src/stm32f3xx_hal_uart.c ****   else
1345:Drivers/STM32F3xx_HAL_Driver/Src/stm32f3xx_hal_uart.c ****   {
1346:Drivers/STM32F3xx_HAL_Driver/Src/stm32f3xx_hal_uart.c ****     return HAL_BUSY;
 1771              		.loc 1 1346 0
 1772 00e0 0223     		movs	r3, #2
 1773              	.L104:
1347:Drivers/STM32F3xx_HAL_Driver/Src/stm32f3xx_hal_uart.c ****   }
1348:Drivers/STM32F3xx_HAL_Driver/Src/stm32f3xx_hal_uart.c **** }
 1774              		.loc 1 1348 0
 1775 00e2 1846     		mov	r0, r3
 1776 00e4 1037     		adds	r7, r7, #16
 1777              	.LCFI62:
 1778              		.cfi_def_cfa_offset 8
 1779 00e6 BD46     		mov	sp, r7
 1780              	.LCFI63:
 1781              		.cfi_def_cfa_register 13
 1782              		@ sp needed
 1783 00e8 80BD     		pop	{r7, pc}
 1784              	.L108:
 1785 00ea 00BF     		.align	2
 1786              	.L107:
 1787 00ec 00000000 		.word	UART_DMATransmitCplt
 1788 00f0 00000000 		.word	UART_DMATxHalfCplt
 1789 00f4 00000000 		.word	UART_DMAError
 1790              		.cfi_endproc
 1791              	.LFE134:
 1793              		.section	.text.HAL_UART_Receive_DMA,"ax",%progbits
 1794              		.align	1
 1795              		.global	HAL_UART_Receive_DMA
 1796              		.syntax unified
 1797              		.thumb
 1798              		.thumb_func
 1799              		.fpu fpv4-sp-d16
 1801              	HAL_UART_Receive_DMA:
 1802              	.LFB135:
1349:Drivers/STM32F3xx_HAL_Driver/Src/stm32f3xx_hal_uart.c **** 
1350:Drivers/STM32F3xx_HAL_Driver/Src/stm32f3xx_hal_uart.c **** /**
1351:Drivers/STM32F3xx_HAL_Driver/Src/stm32f3xx_hal_uart.c ****   * @brief Receive an amount of data in DMA mode.
1352:Drivers/STM32F3xx_HAL_Driver/Src/stm32f3xx_hal_uart.c ****   * @note   When the UART parity is enabled (PCE = 1), the received data contain
1353:Drivers/STM32F3xx_HAL_Driver/Src/stm32f3xx_hal_uart.c ****   *         the parity bit (MSB position).
1354:Drivers/STM32F3xx_HAL_Driver/Src/stm32f3xx_hal_uart.c ****   * @note   When UART parity is not enabled (PCE = 0), and Word Length is configured to 9 bits (M1-
1355:Drivers/STM32F3xx_HAL_Driver/Src/stm32f3xx_hal_uart.c ****   *         the received data is handled as a set of u16. In this case, Size must indicate the numb
1356:Drivers/STM32F3xx_HAL_Driver/Src/stm32f3xx_hal_uart.c ****   *         of u16 available through pData.
ARM GAS  /tmp/ccfCzef7.s 			page 56


1357:Drivers/STM32F3xx_HAL_Driver/Src/stm32f3xx_hal_uart.c ****   * @param huart UART handle.
1358:Drivers/STM32F3xx_HAL_Driver/Src/stm32f3xx_hal_uart.c ****   * @param pData Pointer to data buffer (u8 or u16 data elements).
1359:Drivers/STM32F3xx_HAL_Driver/Src/stm32f3xx_hal_uart.c ****   * @param Size  Amount of data elements (u8 or u16) to be received.
1360:Drivers/STM32F3xx_HAL_Driver/Src/stm32f3xx_hal_uart.c ****   * @retval HAL status
1361:Drivers/STM32F3xx_HAL_Driver/Src/stm32f3xx_hal_uart.c ****   */
1362:Drivers/STM32F3xx_HAL_Driver/Src/stm32f3xx_hal_uart.c **** HAL_StatusTypeDef HAL_UART_Receive_DMA(UART_HandleTypeDef *huart, uint8_t *pData, uint16_t Size)
1363:Drivers/STM32F3xx_HAL_Driver/Src/stm32f3xx_hal_uart.c **** {
 1803              		.loc 1 1363 0
 1804              		.cfi_startproc
 1805              		@ args = 0, pretend = 0, frame = 16
 1806              		@ frame_needed = 1, uses_anonymous_args = 0
 1807 0000 80B5     		push	{r7, lr}
 1808              	.LCFI64:
 1809              		.cfi_def_cfa_offset 8
 1810              		.cfi_offset 7, -8
 1811              		.cfi_offset 14, -4
 1812 0002 84B0     		sub	sp, sp, #16
 1813              	.LCFI65:
 1814              		.cfi_def_cfa_offset 24
 1815 0004 00AF     		add	r7, sp, #0
 1816              	.LCFI66:
 1817              		.cfi_def_cfa_register 7
 1818 0006 F860     		str	r0, [r7, #12]
 1819 0008 B960     		str	r1, [r7, #8]
 1820 000a 1346     		mov	r3, r2
 1821 000c FB80     		strh	r3, [r7, #6]	@ movhi
1364:Drivers/STM32F3xx_HAL_Driver/Src/stm32f3xx_hal_uart.c ****   /* Check that a Rx process is not already ongoing */
1365:Drivers/STM32F3xx_HAL_Driver/Src/stm32f3xx_hal_uart.c ****   if (huart->RxState == HAL_UART_STATE_READY)
 1822              		.loc 1 1365 0
 1823 000e FB68     		ldr	r3, [r7, #12]
 1824 0010 9B6F     		ldr	r3, [r3, #120]
 1825 0012 202B     		cmp	r3, #32
 1826 0014 6CD1     		bne	.L110
1366:Drivers/STM32F3xx_HAL_Driver/Src/stm32f3xx_hal_uart.c ****   {
1367:Drivers/STM32F3xx_HAL_Driver/Src/stm32f3xx_hal_uart.c ****     if ((pData == NULL) || (Size == 0U))
 1827              		.loc 1 1367 0
 1828 0016 BB68     		ldr	r3, [r7, #8]
 1829 0018 002B     		cmp	r3, #0
 1830 001a 02D0     		beq	.L111
 1831              		.loc 1 1367 0 is_stmt 0 discriminator 1
 1832 001c FB88     		ldrh	r3, [r7, #6]
 1833 001e 002B     		cmp	r3, #0
 1834 0020 01D1     		bne	.L112
 1835              	.L111:
1368:Drivers/STM32F3xx_HAL_Driver/Src/stm32f3xx_hal_uart.c ****     {
1369:Drivers/STM32F3xx_HAL_Driver/Src/stm32f3xx_hal_uart.c ****       return HAL_ERROR;
 1836              		.loc 1 1369 0 is_stmt 1
 1837 0022 0123     		movs	r3, #1
 1838 0024 65E0     		b	.L113
 1839              	.L112:
1370:Drivers/STM32F3xx_HAL_Driver/Src/stm32f3xx_hal_uart.c ****     }
1371:Drivers/STM32F3xx_HAL_Driver/Src/stm32f3xx_hal_uart.c **** 
1372:Drivers/STM32F3xx_HAL_Driver/Src/stm32f3xx_hal_uart.c ****     __HAL_LOCK(huart);
 1840              		.loc 1 1372 0
 1841 0026 FB68     		ldr	r3, [r7, #12]
 1842 0028 93F87030 		ldrb	r3, [r3, #112]	@ zero_extendqisi2
 1843 002c 012B     		cmp	r3, #1
ARM GAS  /tmp/ccfCzef7.s 			page 57


 1844 002e 01D1     		bne	.L114
 1845              		.loc 1 1372 0 is_stmt 0 discriminator 1
 1846 0030 0223     		movs	r3, #2
 1847 0032 5EE0     		b	.L113
 1848              	.L114:
 1849              		.loc 1 1372 0 discriminator 2
 1850 0034 FB68     		ldr	r3, [r7, #12]
 1851 0036 0122     		movs	r2, #1
 1852 0038 83F87020 		strb	r2, [r3, #112]
1373:Drivers/STM32F3xx_HAL_Driver/Src/stm32f3xx_hal_uart.c **** 
1374:Drivers/STM32F3xx_HAL_Driver/Src/stm32f3xx_hal_uart.c ****     huart->pRxBuffPtr = pData;
 1853              		.loc 1 1374 0 is_stmt 1 discriminator 2
 1854 003c FB68     		ldr	r3, [r7, #12]
 1855 003e BA68     		ldr	r2, [r7, #8]
 1856 0040 5A65     		str	r2, [r3, #84]
1375:Drivers/STM32F3xx_HAL_Driver/Src/stm32f3xx_hal_uart.c ****     huart->RxXferSize = Size;
 1857              		.loc 1 1375 0 discriminator 2
 1858 0042 FB68     		ldr	r3, [r7, #12]
 1859 0044 FA88     		ldrh	r2, [r7, #6]	@ movhi
 1860 0046 A3F85820 		strh	r2, [r3, #88]	@ movhi
1376:Drivers/STM32F3xx_HAL_Driver/Src/stm32f3xx_hal_uart.c **** 
1377:Drivers/STM32F3xx_HAL_Driver/Src/stm32f3xx_hal_uart.c ****     huart->ErrorCode = HAL_UART_ERROR_NONE;
 1861              		.loc 1 1377 0 discriminator 2
 1862 004a FB68     		ldr	r3, [r7, #12]
 1863 004c 0022     		movs	r2, #0
 1864 004e DA67     		str	r2, [r3, #124]
1378:Drivers/STM32F3xx_HAL_Driver/Src/stm32f3xx_hal_uart.c ****     huart->RxState = HAL_UART_STATE_BUSY_RX;
 1865              		.loc 1 1378 0 discriminator 2
 1866 0050 FB68     		ldr	r3, [r7, #12]
 1867 0052 2222     		movs	r2, #34
 1868 0054 9A67     		str	r2, [r3, #120]
1379:Drivers/STM32F3xx_HAL_Driver/Src/stm32f3xx_hal_uart.c **** 
1380:Drivers/STM32F3xx_HAL_Driver/Src/stm32f3xx_hal_uart.c ****     if (huart->hdmarx != NULL)
 1869              		.loc 1 1380 0 discriminator 2
 1870 0056 FB68     		ldr	r3, [r7, #12]
 1871 0058 DB6E     		ldr	r3, [r3, #108]
 1872 005a 002B     		cmp	r3, #0
 1873 005c 2AD0     		beq	.L115
1381:Drivers/STM32F3xx_HAL_Driver/Src/stm32f3xx_hal_uart.c ****     {
1382:Drivers/STM32F3xx_HAL_Driver/Src/stm32f3xx_hal_uart.c ****       /* Set the UART DMA transfer complete callback */
1383:Drivers/STM32F3xx_HAL_Driver/Src/stm32f3xx_hal_uart.c ****       huart->hdmarx->XferCpltCallback = UART_DMAReceiveCplt;
 1874              		.loc 1 1383 0
 1875 005e FB68     		ldr	r3, [r7, #12]
 1876 0060 DB6E     		ldr	r3, [r3, #108]
 1877 0062 264A     		ldr	r2, .L116
 1878 0064 9A62     		str	r2, [r3, #40]
1384:Drivers/STM32F3xx_HAL_Driver/Src/stm32f3xx_hal_uart.c **** 
1385:Drivers/STM32F3xx_HAL_Driver/Src/stm32f3xx_hal_uart.c ****       /* Set the UART DMA Half transfer complete callback */
1386:Drivers/STM32F3xx_HAL_Driver/Src/stm32f3xx_hal_uart.c ****       huart->hdmarx->XferHalfCpltCallback = UART_DMARxHalfCplt;
 1879              		.loc 1 1386 0
 1880 0066 FB68     		ldr	r3, [r7, #12]
 1881 0068 DB6E     		ldr	r3, [r3, #108]
 1882 006a 254A     		ldr	r2, .L116+4
 1883 006c DA62     		str	r2, [r3, #44]
1387:Drivers/STM32F3xx_HAL_Driver/Src/stm32f3xx_hal_uart.c **** 
1388:Drivers/STM32F3xx_HAL_Driver/Src/stm32f3xx_hal_uart.c ****       /* Set the DMA error callback */
1389:Drivers/STM32F3xx_HAL_Driver/Src/stm32f3xx_hal_uart.c ****       huart->hdmarx->XferErrorCallback = UART_DMAError;
ARM GAS  /tmp/ccfCzef7.s 			page 58


 1884              		.loc 1 1389 0
 1885 006e FB68     		ldr	r3, [r7, #12]
 1886 0070 DB6E     		ldr	r3, [r3, #108]
 1887 0072 244A     		ldr	r2, .L116+8
 1888 0074 1A63     		str	r2, [r3, #48]
1390:Drivers/STM32F3xx_HAL_Driver/Src/stm32f3xx_hal_uart.c **** 
1391:Drivers/STM32F3xx_HAL_Driver/Src/stm32f3xx_hal_uart.c ****       /* Set the DMA abort callback */
1392:Drivers/STM32F3xx_HAL_Driver/Src/stm32f3xx_hal_uart.c ****       huart->hdmarx->XferAbortCallback = NULL;
 1889              		.loc 1 1392 0
 1890 0076 FB68     		ldr	r3, [r7, #12]
 1891 0078 DB6E     		ldr	r3, [r3, #108]
 1892 007a 0022     		movs	r2, #0
 1893 007c 5A63     		str	r2, [r3, #52]
1393:Drivers/STM32F3xx_HAL_Driver/Src/stm32f3xx_hal_uart.c **** 
1394:Drivers/STM32F3xx_HAL_Driver/Src/stm32f3xx_hal_uart.c ****       /* Enable the DMA channel */
1395:Drivers/STM32F3xx_HAL_Driver/Src/stm32f3xx_hal_uart.c ****       if (HAL_DMA_Start_IT(huart->hdmarx, (uint32_t)&huart->Instance->RDR, (uint32_t)huart->pRxBuff
 1894              		.loc 1 1395 0
 1895 007e FB68     		ldr	r3, [r7, #12]
 1896 0080 D86E     		ldr	r0, [r3, #108]
 1897 0082 FB68     		ldr	r3, [r7, #12]
 1898 0084 1B68     		ldr	r3, [r3]
 1899 0086 2433     		adds	r3, r3, #36
 1900 0088 1946     		mov	r1, r3
 1901 008a FB68     		ldr	r3, [r7, #12]
 1902 008c 5B6D     		ldr	r3, [r3, #84]
 1903 008e 1A46     		mov	r2, r3
 1904 0090 FB88     		ldrh	r3, [r7, #6]
 1905 0092 FFF7FEFF 		bl	HAL_DMA_Start_IT
 1906 0096 0346     		mov	r3, r0
 1907 0098 002B     		cmp	r3, #0
 1908 009a 0BD0     		beq	.L115
1396:Drivers/STM32F3xx_HAL_Driver/Src/stm32f3xx_hal_uart.c ****       {
1397:Drivers/STM32F3xx_HAL_Driver/Src/stm32f3xx_hal_uart.c ****         /* Set error code to DMA */
1398:Drivers/STM32F3xx_HAL_Driver/Src/stm32f3xx_hal_uart.c ****         huart->ErrorCode = HAL_UART_ERROR_DMA;
 1909              		.loc 1 1398 0
 1910 009c FB68     		ldr	r3, [r7, #12]
 1911 009e 1022     		movs	r2, #16
 1912 00a0 DA67     		str	r2, [r3, #124]
1399:Drivers/STM32F3xx_HAL_Driver/Src/stm32f3xx_hal_uart.c **** 
1400:Drivers/STM32F3xx_HAL_Driver/Src/stm32f3xx_hal_uart.c ****         __HAL_UNLOCK(huart);
 1913              		.loc 1 1400 0
 1914 00a2 FB68     		ldr	r3, [r7, #12]
 1915 00a4 0022     		movs	r2, #0
 1916 00a6 83F87020 		strb	r2, [r3, #112]
1401:Drivers/STM32F3xx_HAL_Driver/Src/stm32f3xx_hal_uart.c **** 
1402:Drivers/STM32F3xx_HAL_Driver/Src/stm32f3xx_hal_uart.c ****         /* Restore huart->gState to ready */
1403:Drivers/STM32F3xx_HAL_Driver/Src/stm32f3xx_hal_uart.c ****         huart->gState = HAL_UART_STATE_READY;
 1917              		.loc 1 1403 0
 1918 00aa FB68     		ldr	r3, [r7, #12]
 1919 00ac 2022     		movs	r2, #32
 1920 00ae 5A67     		str	r2, [r3, #116]
1404:Drivers/STM32F3xx_HAL_Driver/Src/stm32f3xx_hal_uart.c **** 
1405:Drivers/STM32F3xx_HAL_Driver/Src/stm32f3xx_hal_uart.c ****         return HAL_ERROR;
 1921              		.loc 1 1405 0
 1922 00b0 0123     		movs	r3, #1
 1923 00b2 1EE0     		b	.L113
 1924              	.L115:
ARM GAS  /tmp/ccfCzef7.s 			page 59


1406:Drivers/STM32F3xx_HAL_Driver/Src/stm32f3xx_hal_uart.c ****       }
1407:Drivers/STM32F3xx_HAL_Driver/Src/stm32f3xx_hal_uart.c ****     }
1408:Drivers/STM32F3xx_HAL_Driver/Src/stm32f3xx_hal_uart.c ****     __HAL_UNLOCK(huart);
 1925              		.loc 1 1408 0
 1926 00b4 FB68     		ldr	r3, [r7, #12]
 1927 00b6 0022     		movs	r2, #0
 1928 00b8 83F87020 		strb	r2, [r3, #112]
1409:Drivers/STM32F3xx_HAL_Driver/Src/stm32f3xx_hal_uart.c **** 
1410:Drivers/STM32F3xx_HAL_Driver/Src/stm32f3xx_hal_uart.c ****     /* Enable the UART Parity Error Interrupt */
1411:Drivers/STM32F3xx_HAL_Driver/Src/stm32f3xx_hal_uart.c ****     SET_BIT(huart->Instance->CR1, USART_CR1_PEIE);
 1929              		.loc 1 1411 0
 1930 00bc FB68     		ldr	r3, [r7, #12]
 1931 00be 1B68     		ldr	r3, [r3]
 1932 00c0 1A68     		ldr	r2, [r3]
 1933 00c2 FB68     		ldr	r3, [r7, #12]
 1934 00c4 1B68     		ldr	r3, [r3]
 1935 00c6 42F48072 		orr	r2, r2, #256
 1936 00ca 1A60     		str	r2, [r3]
1412:Drivers/STM32F3xx_HAL_Driver/Src/stm32f3xx_hal_uart.c **** 
1413:Drivers/STM32F3xx_HAL_Driver/Src/stm32f3xx_hal_uart.c ****     /* Enable the UART Error Interrupt: (Frame error, noise error, overrun error) */
1414:Drivers/STM32F3xx_HAL_Driver/Src/stm32f3xx_hal_uart.c ****     SET_BIT(huart->Instance->CR3, USART_CR3_EIE);
 1937              		.loc 1 1414 0
 1938 00cc FB68     		ldr	r3, [r7, #12]
 1939 00ce 1B68     		ldr	r3, [r3]
 1940 00d0 9A68     		ldr	r2, [r3, #8]
 1941 00d2 FB68     		ldr	r3, [r7, #12]
 1942 00d4 1B68     		ldr	r3, [r3]
 1943 00d6 42F00102 		orr	r2, r2, #1
 1944 00da 9A60     		str	r2, [r3, #8]
1415:Drivers/STM32F3xx_HAL_Driver/Src/stm32f3xx_hal_uart.c **** 
1416:Drivers/STM32F3xx_HAL_Driver/Src/stm32f3xx_hal_uart.c ****     /* Enable the DMA transfer for the receiver request by setting the DMAR bit
1417:Drivers/STM32F3xx_HAL_Driver/Src/stm32f3xx_hal_uart.c ****     in the UART CR3 register */
1418:Drivers/STM32F3xx_HAL_Driver/Src/stm32f3xx_hal_uart.c ****     SET_BIT(huart->Instance->CR3, USART_CR3_DMAR);
 1945              		.loc 1 1418 0
 1946 00dc FB68     		ldr	r3, [r7, #12]
 1947 00de 1B68     		ldr	r3, [r3]
 1948 00e0 9A68     		ldr	r2, [r3, #8]
 1949 00e2 FB68     		ldr	r3, [r7, #12]
 1950 00e4 1B68     		ldr	r3, [r3]
 1951 00e6 42F04002 		orr	r2, r2, #64
 1952 00ea 9A60     		str	r2, [r3, #8]
1419:Drivers/STM32F3xx_HAL_Driver/Src/stm32f3xx_hal_uart.c **** 
1420:Drivers/STM32F3xx_HAL_Driver/Src/stm32f3xx_hal_uart.c ****     return HAL_OK;
 1953              		.loc 1 1420 0
 1954 00ec 0023     		movs	r3, #0
 1955 00ee 00E0     		b	.L113
 1956              	.L110:
1421:Drivers/STM32F3xx_HAL_Driver/Src/stm32f3xx_hal_uart.c ****   }
1422:Drivers/STM32F3xx_HAL_Driver/Src/stm32f3xx_hal_uart.c ****   else
1423:Drivers/STM32F3xx_HAL_Driver/Src/stm32f3xx_hal_uart.c ****   {
1424:Drivers/STM32F3xx_HAL_Driver/Src/stm32f3xx_hal_uart.c ****     return HAL_BUSY;
 1957              		.loc 1 1424 0
 1958 00f0 0223     		movs	r3, #2
 1959              	.L113:
1425:Drivers/STM32F3xx_HAL_Driver/Src/stm32f3xx_hal_uart.c ****   }
1426:Drivers/STM32F3xx_HAL_Driver/Src/stm32f3xx_hal_uart.c **** }
 1960              		.loc 1 1426 0
ARM GAS  /tmp/ccfCzef7.s 			page 60


 1961 00f2 1846     		mov	r0, r3
 1962 00f4 1037     		adds	r7, r7, #16
 1963              	.LCFI67:
 1964              		.cfi_def_cfa_offset 8
 1965 00f6 BD46     		mov	sp, r7
 1966              	.LCFI68:
 1967              		.cfi_def_cfa_register 13
 1968              		@ sp needed
 1969 00f8 80BD     		pop	{r7, pc}
 1970              	.L117:
 1971 00fa 00BF     		.align	2
 1972              	.L116:
 1973 00fc 00000000 		.word	UART_DMAReceiveCplt
 1974 0100 00000000 		.word	UART_DMARxHalfCplt
 1975 0104 00000000 		.word	UART_DMAError
 1976              		.cfi_endproc
 1977              	.LFE135:
 1979              		.section	.text.HAL_UART_DMAPause,"ax",%progbits
 1980              		.align	1
 1981              		.global	HAL_UART_DMAPause
 1982              		.syntax unified
 1983              		.thumb
 1984              		.thumb_func
 1985              		.fpu fpv4-sp-d16
 1987              	HAL_UART_DMAPause:
 1988              	.LFB136:
1427:Drivers/STM32F3xx_HAL_Driver/Src/stm32f3xx_hal_uart.c **** 
1428:Drivers/STM32F3xx_HAL_Driver/Src/stm32f3xx_hal_uart.c **** /**
1429:Drivers/STM32F3xx_HAL_Driver/Src/stm32f3xx_hal_uart.c ****   * @brief Pause the DMA Transfer.
1430:Drivers/STM32F3xx_HAL_Driver/Src/stm32f3xx_hal_uart.c ****   * @param huart UART handle.
1431:Drivers/STM32F3xx_HAL_Driver/Src/stm32f3xx_hal_uart.c ****   * @retval HAL status
1432:Drivers/STM32F3xx_HAL_Driver/Src/stm32f3xx_hal_uart.c ****   */
1433:Drivers/STM32F3xx_HAL_Driver/Src/stm32f3xx_hal_uart.c **** HAL_StatusTypeDef HAL_UART_DMAPause(UART_HandleTypeDef *huart)
1434:Drivers/STM32F3xx_HAL_Driver/Src/stm32f3xx_hal_uart.c **** {
 1989              		.loc 1 1434 0
 1990              		.cfi_startproc
 1991              		@ args = 0, pretend = 0, frame = 16
 1992              		@ frame_needed = 1, uses_anonymous_args = 0
 1993              		@ link register save eliminated.
 1994 0000 80B4     		push	{r7}
 1995              	.LCFI69:
 1996              		.cfi_def_cfa_offset 4
 1997              		.cfi_offset 7, -4
 1998 0002 85B0     		sub	sp, sp, #20
 1999              	.LCFI70:
 2000              		.cfi_def_cfa_offset 24
 2001 0004 00AF     		add	r7, sp, #0
 2002              	.LCFI71:
 2003              		.cfi_def_cfa_register 7
 2004 0006 7860     		str	r0, [r7, #4]
1435:Drivers/STM32F3xx_HAL_Driver/Src/stm32f3xx_hal_uart.c ****   const HAL_UART_StateTypeDef gstate = huart->gState;
 2005              		.loc 1 1435 0
 2006 0008 7B68     		ldr	r3, [r7, #4]
 2007 000a 5B6F     		ldr	r3, [r3, #116]
 2008 000c FB60     		str	r3, [r7, #12]
1436:Drivers/STM32F3xx_HAL_Driver/Src/stm32f3xx_hal_uart.c ****   const HAL_UART_StateTypeDef rxstate = huart->RxState;
 2009              		.loc 1 1436 0
ARM GAS  /tmp/ccfCzef7.s 			page 61


 2010 000e 7B68     		ldr	r3, [r7, #4]
 2011 0010 9B6F     		ldr	r3, [r3, #120]
 2012 0012 BB60     		str	r3, [r7, #8]
1437:Drivers/STM32F3xx_HAL_Driver/Src/stm32f3xx_hal_uart.c **** 
1438:Drivers/STM32F3xx_HAL_Driver/Src/stm32f3xx_hal_uart.c ****   __HAL_LOCK(huart);
 2013              		.loc 1 1438 0
 2014 0014 7B68     		ldr	r3, [r7, #4]
 2015 0016 93F87030 		ldrb	r3, [r3, #112]	@ zero_extendqisi2
 2016 001a 012B     		cmp	r3, #1
 2017 001c 01D1     		bne	.L119
 2018              		.loc 1 1438 0 is_stmt 0 discriminator 1
 2019 001e 0223     		movs	r3, #2
 2020 0020 3CE0     		b	.L120
 2021              	.L119:
 2022              		.loc 1 1438 0 discriminator 2
 2023 0022 7B68     		ldr	r3, [r7, #4]
 2024 0024 0122     		movs	r2, #1
 2025 0026 83F87020 		strb	r2, [r3, #112]
1439:Drivers/STM32F3xx_HAL_Driver/Src/stm32f3xx_hal_uart.c **** 
1440:Drivers/STM32F3xx_HAL_Driver/Src/stm32f3xx_hal_uart.c ****   if ((HAL_IS_BIT_SET(huart->Instance->CR3, USART_CR3_DMAT)) &&
 2026              		.loc 1 1440 0 is_stmt 1 discriminator 2
 2027 002a 7B68     		ldr	r3, [r7, #4]
 2028 002c 1B68     		ldr	r3, [r3]
 2029 002e 9B68     		ldr	r3, [r3, #8]
 2030 0030 03F08003 		and	r3, r3, #128
 2031 0034 802B     		cmp	r3, #128
 2032 0036 0AD1     		bne	.L121
 2033              		.loc 1 1440 0 is_stmt 0 discriminator 1
 2034 0038 FB68     		ldr	r3, [r7, #12]
 2035 003a 212B     		cmp	r3, #33
 2036 003c 07D1     		bne	.L121
1441:Drivers/STM32F3xx_HAL_Driver/Src/stm32f3xx_hal_uart.c ****       (gstate == HAL_UART_STATE_BUSY_TX))
1442:Drivers/STM32F3xx_HAL_Driver/Src/stm32f3xx_hal_uart.c ****   {
1443:Drivers/STM32F3xx_HAL_Driver/Src/stm32f3xx_hal_uart.c ****     /* Disable the UART DMA Tx request */
1444:Drivers/STM32F3xx_HAL_Driver/Src/stm32f3xx_hal_uart.c ****     CLEAR_BIT(huart->Instance->CR3, USART_CR3_DMAT);
 2037              		.loc 1 1444 0 is_stmt 1
 2038 003e 7B68     		ldr	r3, [r7, #4]
 2039 0040 1B68     		ldr	r3, [r3]
 2040 0042 9A68     		ldr	r2, [r3, #8]
 2041 0044 7B68     		ldr	r3, [r7, #4]
 2042 0046 1B68     		ldr	r3, [r3]
 2043 0048 22F08002 		bic	r2, r2, #128
 2044 004c 9A60     		str	r2, [r3, #8]
 2045              	.L121:
1445:Drivers/STM32F3xx_HAL_Driver/Src/stm32f3xx_hal_uart.c ****   }
1446:Drivers/STM32F3xx_HAL_Driver/Src/stm32f3xx_hal_uart.c ****   if ((HAL_IS_BIT_SET(huart->Instance->CR3, USART_CR3_DMAR)) &&
 2046              		.loc 1 1446 0
 2047 004e 7B68     		ldr	r3, [r7, #4]
 2048 0050 1B68     		ldr	r3, [r3]
 2049 0052 9B68     		ldr	r3, [r3, #8]
 2050 0054 03F04003 		and	r3, r3, #64
 2051 0058 402B     		cmp	r3, #64
 2052 005a 1AD1     		bne	.L122
 2053              		.loc 1 1446 0 is_stmt 0 discriminator 1
 2054 005c BB68     		ldr	r3, [r7, #8]
 2055 005e 222B     		cmp	r3, #34
 2056 0060 17D1     		bne	.L122
ARM GAS  /tmp/ccfCzef7.s 			page 62


1447:Drivers/STM32F3xx_HAL_Driver/Src/stm32f3xx_hal_uart.c ****       (rxstate == HAL_UART_STATE_BUSY_RX))
1448:Drivers/STM32F3xx_HAL_Driver/Src/stm32f3xx_hal_uart.c ****   {
1449:Drivers/STM32F3xx_HAL_Driver/Src/stm32f3xx_hal_uart.c ****     /* Disable PE and ERR (Frame error, noise error, overrun error) interrupts */
1450:Drivers/STM32F3xx_HAL_Driver/Src/stm32f3xx_hal_uart.c ****     CLEAR_BIT(huart->Instance->CR1, USART_CR1_PEIE);
 2057              		.loc 1 1450 0 is_stmt 1
 2058 0062 7B68     		ldr	r3, [r7, #4]
 2059 0064 1B68     		ldr	r3, [r3]
 2060 0066 1A68     		ldr	r2, [r3]
 2061 0068 7B68     		ldr	r3, [r7, #4]
 2062 006a 1B68     		ldr	r3, [r3]
 2063 006c 22F48072 		bic	r2, r2, #256
 2064 0070 1A60     		str	r2, [r3]
1451:Drivers/STM32F3xx_HAL_Driver/Src/stm32f3xx_hal_uart.c ****     CLEAR_BIT(huart->Instance->CR3, USART_CR3_EIE);
 2065              		.loc 1 1451 0
 2066 0072 7B68     		ldr	r3, [r7, #4]
 2067 0074 1B68     		ldr	r3, [r3]
 2068 0076 9A68     		ldr	r2, [r3, #8]
 2069 0078 7B68     		ldr	r3, [r7, #4]
 2070 007a 1B68     		ldr	r3, [r3]
 2071 007c 22F00102 		bic	r2, r2, #1
 2072 0080 9A60     		str	r2, [r3, #8]
1452:Drivers/STM32F3xx_HAL_Driver/Src/stm32f3xx_hal_uart.c **** 
1453:Drivers/STM32F3xx_HAL_Driver/Src/stm32f3xx_hal_uart.c ****     /* Disable the UART DMA Rx request */
1454:Drivers/STM32F3xx_HAL_Driver/Src/stm32f3xx_hal_uart.c ****     CLEAR_BIT(huart->Instance->CR3, USART_CR3_DMAR);
 2073              		.loc 1 1454 0
 2074 0082 7B68     		ldr	r3, [r7, #4]
 2075 0084 1B68     		ldr	r3, [r3]
 2076 0086 9A68     		ldr	r2, [r3, #8]
 2077 0088 7B68     		ldr	r3, [r7, #4]
 2078 008a 1B68     		ldr	r3, [r3]
 2079 008c 22F04002 		bic	r2, r2, #64
 2080 0090 9A60     		str	r2, [r3, #8]
 2081              	.L122:
1455:Drivers/STM32F3xx_HAL_Driver/Src/stm32f3xx_hal_uart.c ****   }
1456:Drivers/STM32F3xx_HAL_Driver/Src/stm32f3xx_hal_uart.c **** 
1457:Drivers/STM32F3xx_HAL_Driver/Src/stm32f3xx_hal_uart.c ****   __HAL_UNLOCK(huart);
 2082              		.loc 1 1457 0
 2083 0092 7B68     		ldr	r3, [r7, #4]
 2084 0094 0022     		movs	r2, #0
 2085 0096 83F87020 		strb	r2, [r3, #112]
1458:Drivers/STM32F3xx_HAL_Driver/Src/stm32f3xx_hal_uart.c **** 
1459:Drivers/STM32F3xx_HAL_Driver/Src/stm32f3xx_hal_uart.c ****   return HAL_OK;
 2086              		.loc 1 1459 0
 2087 009a 0023     		movs	r3, #0
 2088              	.L120:
1460:Drivers/STM32F3xx_HAL_Driver/Src/stm32f3xx_hal_uart.c **** }
 2089              		.loc 1 1460 0
 2090 009c 1846     		mov	r0, r3
 2091 009e 1437     		adds	r7, r7, #20
 2092              	.LCFI72:
 2093              		.cfi_def_cfa_offset 4
 2094 00a0 BD46     		mov	sp, r7
 2095              	.LCFI73:
 2096              		.cfi_def_cfa_register 13
 2097              		@ sp needed
 2098 00a2 5DF8047B 		ldr	r7, [sp], #4
 2099              	.LCFI74:
ARM GAS  /tmp/ccfCzef7.s 			page 63


 2100              		.cfi_restore 7
 2101              		.cfi_def_cfa_offset 0
 2102 00a6 7047     		bx	lr
 2103              		.cfi_endproc
 2104              	.LFE136:
 2106              		.section	.text.HAL_UART_DMAResume,"ax",%progbits
 2107              		.align	1
 2108              		.global	HAL_UART_DMAResume
 2109              		.syntax unified
 2110              		.thumb
 2111              		.thumb_func
 2112              		.fpu fpv4-sp-d16
 2114              	HAL_UART_DMAResume:
 2115              	.LFB137:
1461:Drivers/STM32F3xx_HAL_Driver/Src/stm32f3xx_hal_uart.c **** 
1462:Drivers/STM32F3xx_HAL_Driver/Src/stm32f3xx_hal_uart.c **** /**
1463:Drivers/STM32F3xx_HAL_Driver/Src/stm32f3xx_hal_uart.c ****   * @brief Resume the DMA Transfer.
1464:Drivers/STM32F3xx_HAL_Driver/Src/stm32f3xx_hal_uart.c ****   * @param huart UART handle.
1465:Drivers/STM32F3xx_HAL_Driver/Src/stm32f3xx_hal_uart.c ****   * @retval HAL status
1466:Drivers/STM32F3xx_HAL_Driver/Src/stm32f3xx_hal_uart.c ****   */
1467:Drivers/STM32F3xx_HAL_Driver/Src/stm32f3xx_hal_uart.c **** HAL_StatusTypeDef HAL_UART_DMAResume(UART_HandleTypeDef *huart)
1468:Drivers/STM32F3xx_HAL_Driver/Src/stm32f3xx_hal_uart.c **** {
 2116              		.loc 1 1468 0
 2117              		.cfi_startproc
 2118              		@ args = 0, pretend = 0, frame = 8
 2119              		@ frame_needed = 1, uses_anonymous_args = 0
 2120              		@ link register save eliminated.
 2121 0000 80B4     		push	{r7}
 2122              	.LCFI75:
 2123              		.cfi_def_cfa_offset 4
 2124              		.cfi_offset 7, -4
 2125 0002 83B0     		sub	sp, sp, #12
 2126              	.LCFI76:
 2127              		.cfi_def_cfa_offset 16
 2128 0004 00AF     		add	r7, sp, #0
 2129              	.LCFI77:
 2130              		.cfi_def_cfa_register 7
 2131 0006 7860     		str	r0, [r7, #4]
1469:Drivers/STM32F3xx_HAL_Driver/Src/stm32f3xx_hal_uart.c ****   __HAL_LOCK(huart);
 2132              		.loc 1 1469 0
 2133 0008 7B68     		ldr	r3, [r7, #4]
 2134 000a 93F87030 		ldrb	r3, [r3, #112]	@ zero_extendqisi2
 2135 000e 012B     		cmp	r3, #1
 2136 0010 01D1     		bne	.L124
 2137              		.loc 1 1469 0 is_stmt 0 discriminator 1
 2138 0012 0223     		movs	r3, #2
 2139 0014 34E0     		b	.L125
 2140              	.L124:
 2141              		.loc 1 1469 0 discriminator 2
 2142 0016 7B68     		ldr	r3, [r7, #4]
 2143 0018 0122     		movs	r2, #1
 2144 001a 83F87020 		strb	r2, [r3, #112]
1470:Drivers/STM32F3xx_HAL_Driver/Src/stm32f3xx_hal_uart.c **** 
1471:Drivers/STM32F3xx_HAL_Driver/Src/stm32f3xx_hal_uart.c ****   if (huart->gState == HAL_UART_STATE_BUSY_TX)
 2145              		.loc 1 1471 0 is_stmt 1 discriminator 2
 2146 001e 7B68     		ldr	r3, [r7, #4]
 2147 0020 5B6F     		ldr	r3, [r3, #116]
ARM GAS  /tmp/ccfCzef7.s 			page 64


 2148 0022 212B     		cmp	r3, #33
 2149 0024 07D1     		bne	.L126
1472:Drivers/STM32F3xx_HAL_Driver/Src/stm32f3xx_hal_uart.c ****   {
1473:Drivers/STM32F3xx_HAL_Driver/Src/stm32f3xx_hal_uart.c ****     /* Enable the UART DMA Tx request */
1474:Drivers/STM32F3xx_HAL_Driver/Src/stm32f3xx_hal_uart.c ****     SET_BIT(huart->Instance->CR3, USART_CR3_DMAT);
 2150              		.loc 1 1474 0
 2151 0026 7B68     		ldr	r3, [r7, #4]
 2152 0028 1B68     		ldr	r3, [r3]
 2153 002a 9A68     		ldr	r2, [r3, #8]
 2154 002c 7B68     		ldr	r3, [r7, #4]
 2155 002e 1B68     		ldr	r3, [r3]
 2156 0030 42F08002 		orr	r2, r2, #128
 2157 0034 9A60     		str	r2, [r3, #8]
 2158              	.L126:
1475:Drivers/STM32F3xx_HAL_Driver/Src/stm32f3xx_hal_uart.c ****   }
1476:Drivers/STM32F3xx_HAL_Driver/Src/stm32f3xx_hal_uart.c ****   if (huart->RxState == HAL_UART_STATE_BUSY_RX)
 2159              		.loc 1 1476 0
 2160 0036 7B68     		ldr	r3, [r7, #4]
 2161 0038 9B6F     		ldr	r3, [r3, #120]
 2162 003a 222B     		cmp	r3, #34
 2163 003c 1BD1     		bne	.L127
1477:Drivers/STM32F3xx_HAL_Driver/Src/stm32f3xx_hal_uart.c ****   {
1478:Drivers/STM32F3xx_HAL_Driver/Src/stm32f3xx_hal_uart.c ****     /* Clear the Overrun flag before resuming the Rx transfer */
1479:Drivers/STM32F3xx_HAL_Driver/Src/stm32f3xx_hal_uart.c ****     __HAL_UART_CLEAR_FLAG(huart, UART_CLEAR_OREF);
 2164              		.loc 1 1479 0
 2165 003e 7B68     		ldr	r3, [r7, #4]
 2166 0040 1B68     		ldr	r3, [r3]
 2167 0042 0822     		movs	r2, #8
 2168 0044 1A62     		str	r2, [r3, #32]
1480:Drivers/STM32F3xx_HAL_Driver/Src/stm32f3xx_hal_uart.c **** 
1481:Drivers/STM32F3xx_HAL_Driver/Src/stm32f3xx_hal_uart.c ****     /* Reenable PE and ERR (Frame error, noise error, overrun error) interrupts */
1482:Drivers/STM32F3xx_HAL_Driver/Src/stm32f3xx_hal_uart.c ****     SET_BIT(huart->Instance->CR1, USART_CR1_PEIE);
 2169              		.loc 1 1482 0
 2170 0046 7B68     		ldr	r3, [r7, #4]
 2171 0048 1B68     		ldr	r3, [r3]
 2172 004a 1A68     		ldr	r2, [r3]
 2173 004c 7B68     		ldr	r3, [r7, #4]
 2174 004e 1B68     		ldr	r3, [r3]
 2175 0050 42F48072 		orr	r2, r2, #256
 2176 0054 1A60     		str	r2, [r3]
1483:Drivers/STM32F3xx_HAL_Driver/Src/stm32f3xx_hal_uart.c ****     SET_BIT(huart->Instance->CR3, USART_CR3_EIE);
 2177              		.loc 1 1483 0
 2178 0056 7B68     		ldr	r3, [r7, #4]
 2179 0058 1B68     		ldr	r3, [r3]
 2180 005a 9A68     		ldr	r2, [r3, #8]
 2181 005c 7B68     		ldr	r3, [r7, #4]
 2182 005e 1B68     		ldr	r3, [r3]
 2183 0060 42F00102 		orr	r2, r2, #1
 2184 0064 9A60     		str	r2, [r3, #8]
1484:Drivers/STM32F3xx_HAL_Driver/Src/stm32f3xx_hal_uart.c **** 
1485:Drivers/STM32F3xx_HAL_Driver/Src/stm32f3xx_hal_uart.c ****     /* Enable the UART DMA Rx request */
1486:Drivers/STM32F3xx_HAL_Driver/Src/stm32f3xx_hal_uart.c ****     SET_BIT(huart->Instance->CR3, USART_CR3_DMAR);
 2185              		.loc 1 1486 0
 2186 0066 7B68     		ldr	r3, [r7, #4]
 2187 0068 1B68     		ldr	r3, [r3]
 2188 006a 9A68     		ldr	r2, [r3, #8]
 2189 006c 7B68     		ldr	r3, [r7, #4]
ARM GAS  /tmp/ccfCzef7.s 			page 65


 2190 006e 1B68     		ldr	r3, [r3]
 2191 0070 42F04002 		orr	r2, r2, #64
 2192 0074 9A60     		str	r2, [r3, #8]
 2193              	.L127:
1487:Drivers/STM32F3xx_HAL_Driver/Src/stm32f3xx_hal_uart.c ****   }
1488:Drivers/STM32F3xx_HAL_Driver/Src/stm32f3xx_hal_uart.c **** 
1489:Drivers/STM32F3xx_HAL_Driver/Src/stm32f3xx_hal_uart.c ****   __HAL_UNLOCK(huart);
 2194              		.loc 1 1489 0
 2195 0076 7B68     		ldr	r3, [r7, #4]
 2196 0078 0022     		movs	r2, #0
 2197 007a 83F87020 		strb	r2, [r3, #112]
1490:Drivers/STM32F3xx_HAL_Driver/Src/stm32f3xx_hal_uart.c **** 
1491:Drivers/STM32F3xx_HAL_Driver/Src/stm32f3xx_hal_uart.c ****   return HAL_OK;
 2198              		.loc 1 1491 0
 2199 007e 0023     		movs	r3, #0
 2200              	.L125:
1492:Drivers/STM32F3xx_HAL_Driver/Src/stm32f3xx_hal_uart.c **** }
 2201              		.loc 1 1492 0
 2202 0080 1846     		mov	r0, r3
 2203 0082 0C37     		adds	r7, r7, #12
 2204              	.LCFI78:
 2205              		.cfi_def_cfa_offset 4
 2206 0084 BD46     		mov	sp, r7
 2207              	.LCFI79:
 2208              		.cfi_def_cfa_register 13
 2209              		@ sp needed
 2210 0086 5DF8047B 		ldr	r7, [sp], #4
 2211              	.LCFI80:
 2212              		.cfi_restore 7
 2213              		.cfi_def_cfa_offset 0
 2214 008a 7047     		bx	lr
 2215              		.cfi_endproc
 2216              	.LFE137:
 2218              		.section	.text.HAL_UART_DMAStop,"ax",%progbits
 2219              		.align	1
 2220              		.global	HAL_UART_DMAStop
 2221              		.syntax unified
 2222              		.thumb
 2223              		.thumb_func
 2224              		.fpu fpv4-sp-d16
 2226              	HAL_UART_DMAStop:
 2227              	.LFB138:
1493:Drivers/STM32F3xx_HAL_Driver/Src/stm32f3xx_hal_uart.c **** 
1494:Drivers/STM32F3xx_HAL_Driver/Src/stm32f3xx_hal_uart.c **** /**
1495:Drivers/STM32F3xx_HAL_Driver/Src/stm32f3xx_hal_uart.c ****   * @brief Stop the DMA Transfer.
1496:Drivers/STM32F3xx_HAL_Driver/Src/stm32f3xx_hal_uart.c ****   * @param huart UART handle.
1497:Drivers/STM32F3xx_HAL_Driver/Src/stm32f3xx_hal_uart.c ****   * @retval HAL status
1498:Drivers/STM32F3xx_HAL_Driver/Src/stm32f3xx_hal_uart.c ****   */
1499:Drivers/STM32F3xx_HAL_Driver/Src/stm32f3xx_hal_uart.c **** HAL_StatusTypeDef HAL_UART_DMAStop(UART_HandleTypeDef *huart)
1500:Drivers/STM32F3xx_HAL_Driver/Src/stm32f3xx_hal_uart.c **** {
 2228              		.loc 1 1500 0
 2229              		.cfi_startproc
 2230              		@ args = 0, pretend = 0, frame = 16
 2231              		@ frame_needed = 1, uses_anonymous_args = 0
 2232 0000 80B5     		push	{r7, lr}
 2233              	.LCFI81:
 2234              		.cfi_def_cfa_offset 8
ARM GAS  /tmp/ccfCzef7.s 			page 66


 2235              		.cfi_offset 7, -8
 2236              		.cfi_offset 14, -4
 2237 0002 84B0     		sub	sp, sp, #16
 2238              	.LCFI82:
 2239              		.cfi_def_cfa_offset 24
 2240 0004 00AF     		add	r7, sp, #0
 2241              	.LCFI83:
 2242              		.cfi_def_cfa_register 7
 2243 0006 7860     		str	r0, [r7, #4]
1501:Drivers/STM32F3xx_HAL_Driver/Src/stm32f3xx_hal_uart.c ****   /* The Lock is not implemented on this API to allow the user application
1502:Drivers/STM32F3xx_HAL_Driver/Src/stm32f3xx_hal_uart.c ****      to call the HAL UART API under callbacks HAL_UART_TxCpltCallback() / HAL_UART_RxCpltCallback()
1503:Drivers/STM32F3xx_HAL_Driver/Src/stm32f3xx_hal_uart.c ****      HAL_UART_TxHalfCpltCallback / HAL_UART_RxHalfCpltCallback:
1504:Drivers/STM32F3xx_HAL_Driver/Src/stm32f3xx_hal_uart.c ****      indeed, when HAL_DMA_Abort() API is called, the DMA TX/RX Transfer or Half Transfer complete
1505:Drivers/STM32F3xx_HAL_Driver/Src/stm32f3xx_hal_uart.c ****      interrupt is generated if the DMA transfer interruption occurs at the middle or at the end of
1506:Drivers/STM32F3xx_HAL_Driver/Src/stm32f3xx_hal_uart.c ****      the stream and the corresponding call back is executed. */
1507:Drivers/STM32F3xx_HAL_Driver/Src/stm32f3xx_hal_uart.c **** 
1508:Drivers/STM32F3xx_HAL_Driver/Src/stm32f3xx_hal_uart.c ****   const HAL_UART_StateTypeDef gstate = huart->gState;
 2244              		.loc 1 1508 0
 2245 0008 7B68     		ldr	r3, [r7, #4]
 2246 000a 5B6F     		ldr	r3, [r3, #116]
 2247 000c FB60     		str	r3, [r7, #12]
1509:Drivers/STM32F3xx_HAL_Driver/Src/stm32f3xx_hal_uart.c ****   const HAL_UART_StateTypeDef rxstate = huart->RxState;
 2248              		.loc 1 1509 0
 2249 000e 7B68     		ldr	r3, [r7, #4]
 2250 0010 9B6F     		ldr	r3, [r3, #120]
 2251 0012 BB60     		str	r3, [r7, #8]
1510:Drivers/STM32F3xx_HAL_Driver/Src/stm32f3xx_hal_uart.c **** 
1511:Drivers/STM32F3xx_HAL_Driver/Src/stm32f3xx_hal_uart.c ****   /* Stop UART DMA Tx request if ongoing */
1512:Drivers/STM32F3xx_HAL_Driver/Src/stm32f3xx_hal_uart.c ****   if ((HAL_IS_BIT_SET(huart->Instance->CR3, USART_CR3_DMAT)) &&
 2252              		.loc 1 1512 0
 2253 0014 7B68     		ldr	r3, [r7, #4]
 2254 0016 1B68     		ldr	r3, [r3]
 2255 0018 9B68     		ldr	r3, [r3, #8]
 2256 001a 03F08003 		and	r3, r3, #128
 2257 001e 802B     		cmp	r3, #128
 2258 0020 26D1     		bne	.L129
 2259              		.loc 1 1512 0 is_stmt 0 discriminator 1
 2260 0022 FB68     		ldr	r3, [r7, #12]
 2261 0024 212B     		cmp	r3, #33
 2262 0026 23D1     		bne	.L129
1513:Drivers/STM32F3xx_HAL_Driver/Src/stm32f3xx_hal_uart.c ****       (gstate == HAL_UART_STATE_BUSY_TX))
1514:Drivers/STM32F3xx_HAL_Driver/Src/stm32f3xx_hal_uart.c ****   {
1515:Drivers/STM32F3xx_HAL_Driver/Src/stm32f3xx_hal_uart.c ****     CLEAR_BIT(huart->Instance->CR3, USART_CR3_DMAT);
 2263              		.loc 1 1515 0 is_stmt 1
 2264 0028 7B68     		ldr	r3, [r7, #4]
 2265 002a 1B68     		ldr	r3, [r3]
 2266 002c 9A68     		ldr	r2, [r3, #8]
 2267 002e 7B68     		ldr	r3, [r7, #4]
 2268 0030 1B68     		ldr	r3, [r3]
 2269 0032 22F08002 		bic	r2, r2, #128
 2270 0036 9A60     		str	r2, [r3, #8]
1516:Drivers/STM32F3xx_HAL_Driver/Src/stm32f3xx_hal_uart.c **** 
1517:Drivers/STM32F3xx_HAL_Driver/Src/stm32f3xx_hal_uart.c ****     /* Abort the UART DMA Tx channel */
1518:Drivers/STM32F3xx_HAL_Driver/Src/stm32f3xx_hal_uart.c ****     if (huart->hdmatx != NULL)
 2271              		.loc 1 1518 0
 2272 0038 7B68     		ldr	r3, [r7, #4]
 2273 003a 9B6E     		ldr	r3, [r3, #104]
ARM GAS  /tmp/ccfCzef7.s 			page 67


 2274 003c 002B     		cmp	r3, #0
 2275 003e 14D0     		beq	.L130
1519:Drivers/STM32F3xx_HAL_Driver/Src/stm32f3xx_hal_uart.c ****     {
1520:Drivers/STM32F3xx_HAL_Driver/Src/stm32f3xx_hal_uart.c ****       if (HAL_DMA_Abort(huart->hdmatx) != HAL_OK)
 2276              		.loc 1 1520 0
 2277 0040 7B68     		ldr	r3, [r7, #4]
 2278 0042 9B6E     		ldr	r3, [r3, #104]
 2279 0044 1846     		mov	r0, r3
 2280 0046 FFF7FEFF 		bl	HAL_DMA_Abort
 2281 004a 0346     		mov	r3, r0
 2282 004c 002B     		cmp	r3, #0
 2283 004e 0CD0     		beq	.L130
1521:Drivers/STM32F3xx_HAL_Driver/Src/stm32f3xx_hal_uart.c ****       {
1522:Drivers/STM32F3xx_HAL_Driver/Src/stm32f3xx_hal_uart.c ****         if (HAL_DMA_GetError(huart->hdmatx) == HAL_DMA_ERROR_TIMEOUT)
 2284              		.loc 1 1522 0
 2285 0050 7B68     		ldr	r3, [r7, #4]
 2286 0052 9B6E     		ldr	r3, [r3, #104]
 2287 0054 1846     		mov	r0, r3
 2288 0056 FFF7FEFF 		bl	HAL_DMA_GetError
 2289 005a 0346     		mov	r3, r0
 2290 005c 202B     		cmp	r3, #32
 2291 005e 04D1     		bne	.L130
1523:Drivers/STM32F3xx_HAL_Driver/Src/stm32f3xx_hal_uart.c ****         {
1524:Drivers/STM32F3xx_HAL_Driver/Src/stm32f3xx_hal_uart.c ****           /* Set error code to DMA */
1525:Drivers/STM32F3xx_HAL_Driver/Src/stm32f3xx_hal_uart.c ****           huart->ErrorCode = HAL_UART_ERROR_DMA;
 2292              		.loc 1 1525 0
 2293 0060 7B68     		ldr	r3, [r7, #4]
 2294 0062 1022     		movs	r2, #16
 2295 0064 DA67     		str	r2, [r3, #124]
1526:Drivers/STM32F3xx_HAL_Driver/Src/stm32f3xx_hal_uart.c **** 
1527:Drivers/STM32F3xx_HAL_Driver/Src/stm32f3xx_hal_uart.c ****           return HAL_TIMEOUT;
 2296              		.loc 1 1527 0
 2297 0066 0323     		movs	r3, #3
 2298 0068 31E0     		b	.L131
 2299              	.L130:
1528:Drivers/STM32F3xx_HAL_Driver/Src/stm32f3xx_hal_uart.c ****         }
1529:Drivers/STM32F3xx_HAL_Driver/Src/stm32f3xx_hal_uart.c ****       }
1530:Drivers/STM32F3xx_HAL_Driver/Src/stm32f3xx_hal_uart.c ****     }
1531:Drivers/STM32F3xx_HAL_Driver/Src/stm32f3xx_hal_uart.c **** 
1532:Drivers/STM32F3xx_HAL_Driver/Src/stm32f3xx_hal_uart.c ****     UART_EndTxTransfer(huart);
 2300              		.loc 1 1532 0
 2301 006a 7868     		ldr	r0, [r7, #4]
 2302 006c FFF7FEFF 		bl	UART_EndTxTransfer
 2303              	.L129:
1533:Drivers/STM32F3xx_HAL_Driver/Src/stm32f3xx_hal_uart.c ****   }
1534:Drivers/STM32F3xx_HAL_Driver/Src/stm32f3xx_hal_uart.c **** 
1535:Drivers/STM32F3xx_HAL_Driver/Src/stm32f3xx_hal_uart.c ****   /* Stop UART DMA Rx request if ongoing */
1536:Drivers/STM32F3xx_HAL_Driver/Src/stm32f3xx_hal_uart.c ****   if ((HAL_IS_BIT_SET(huart->Instance->CR3, USART_CR3_DMAR)) &&
 2304              		.loc 1 1536 0
 2305 0070 7B68     		ldr	r3, [r7, #4]
 2306 0072 1B68     		ldr	r3, [r3]
 2307 0074 9B68     		ldr	r3, [r3, #8]
 2308 0076 03F04003 		and	r3, r3, #64
 2309 007a 402B     		cmp	r3, #64
 2310 007c 26D1     		bne	.L132
 2311              		.loc 1 1536 0 is_stmt 0 discriminator 1
 2312 007e BB68     		ldr	r3, [r7, #8]
ARM GAS  /tmp/ccfCzef7.s 			page 68


 2313 0080 222B     		cmp	r3, #34
 2314 0082 23D1     		bne	.L132
1537:Drivers/STM32F3xx_HAL_Driver/Src/stm32f3xx_hal_uart.c ****       (rxstate == HAL_UART_STATE_BUSY_RX))
1538:Drivers/STM32F3xx_HAL_Driver/Src/stm32f3xx_hal_uart.c ****   {
1539:Drivers/STM32F3xx_HAL_Driver/Src/stm32f3xx_hal_uart.c ****     CLEAR_BIT(huart->Instance->CR3, USART_CR3_DMAR);
 2315              		.loc 1 1539 0 is_stmt 1
 2316 0084 7B68     		ldr	r3, [r7, #4]
 2317 0086 1B68     		ldr	r3, [r3]
 2318 0088 9A68     		ldr	r2, [r3, #8]
 2319 008a 7B68     		ldr	r3, [r7, #4]
 2320 008c 1B68     		ldr	r3, [r3]
 2321 008e 22F04002 		bic	r2, r2, #64
 2322 0092 9A60     		str	r2, [r3, #8]
1540:Drivers/STM32F3xx_HAL_Driver/Src/stm32f3xx_hal_uart.c **** 
1541:Drivers/STM32F3xx_HAL_Driver/Src/stm32f3xx_hal_uart.c ****     /* Abort the UART DMA Rx channel */
1542:Drivers/STM32F3xx_HAL_Driver/Src/stm32f3xx_hal_uart.c ****     if (huart->hdmarx != NULL)
 2323              		.loc 1 1542 0
 2324 0094 7B68     		ldr	r3, [r7, #4]
 2325 0096 DB6E     		ldr	r3, [r3, #108]
 2326 0098 002B     		cmp	r3, #0
 2327 009a 14D0     		beq	.L133
1543:Drivers/STM32F3xx_HAL_Driver/Src/stm32f3xx_hal_uart.c ****     {
1544:Drivers/STM32F3xx_HAL_Driver/Src/stm32f3xx_hal_uart.c ****       if (HAL_DMA_Abort(huart->hdmarx) != HAL_OK)
 2328              		.loc 1 1544 0
 2329 009c 7B68     		ldr	r3, [r7, #4]
 2330 009e DB6E     		ldr	r3, [r3, #108]
 2331 00a0 1846     		mov	r0, r3
 2332 00a2 FFF7FEFF 		bl	HAL_DMA_Abort
 2333 00a6 0346     		mov	r3, r0
 2334 00a8 002B     		cmp	r3, #0
 2335 00aa 0CD0     		beq	.L133
1545:Drivers/STM32F3xx_HAL_Driver/Src/stm32f3xx_hal_uart.c ****       {
1546:Drivers/STM32F3xx_HAL_Driver/Src/stm32f3xx_hal_uart.c ****         if (HAL_DMA_GetError(huart->hdmarx) == HAL_DMA_ERROR_TIMEOUT)
 2336              		.loc 1 1546 0
 2337 00ac 7B68     		ldr	r3, [r7, #4]
 2338 00ae DB6E     		ldr	r3, [r3, #108]
 2339 00b0 1846     		mov	r0, r3
 2340 00b2 FFF7FEFF 		bl	HAL_DMA_GetError
 2341 00b6 0346     		mov	r3, r0
 2342 00b8 202B     		cmp	r3, #32
 2343 00ba 04D1     		bne	.L133
1547:Drivers/STM32F3xx_HAL_Driver/Src/stm32f3xx_hal_uart.c ****         {
1548:Drivers/STM32F3xx_HAL_Driver/Src/stm32f3xx_hal_uart.c ****           /* Set error code to DMA */
1549:Drivers/STM32F3xx_HAL_Driver/Src/stm32f3xx_hal_uart.c ****           huart->ErrorCode = HAL_UART_ERROR_DMA;
 2344              		.loc 1 1549 0
 2345 00bc 7B68     		ldr	r3, [r7, #4]
 2346 00be 1022     		movs	r2, #16
 2347 00c0 DA67     		str	r2, [r3, #124]
1550:Drivers/STM32F3xx_HAL_Driver/Src/stm32f3xx_hal_uart.c **** 
1551:Drivers/STM32F3xx_HAL_Driver/Src/stm32f3xx_hal_uart.c ****           return HAL_TIMEOUT;
 2348              		.loc 1 1551 0
 2349 00c2 0323     		movs	r3, #3
 2350 00c4 03E0     		b	.L131
 2351              	.L133:
1552:Drivers/STM32F3xx_HAL_Driver/Src/stm32f3xx_hal_uart.c ****         }
1553:Drivers/STM32F3xx_HAL_Driver/Src/stm32f3xx_hal_uart.c ****       }
1554:Drivers/STM32F3xx_HAL_Driver/Src/stm32f3xx_hal_uart.c ****     }
ARM GAS  /tmp/ccfCzef7.s 			page 69


1555:Drivers/STM32F3xx_HAL_Driver/Src/stm32f3xx_hal_uart.c **** 
1556:Drivers/STM32F3xx_HAL_Driver/Src/stm32f3xx_hal_uart.c ****     UART_EndRxTransfer(huart);
 2352              		.loc 1 1556 0
 2353 00c6 7868     		ldr	r0, [r7, #4]
 2354 00c8 FFF7FEFF 		bl	UART_EndRxTransfer
 2355              	.L132:
1557:Drivers/STM32F3xx_HAL_Driver/Src/stm32f3xx_hal_uart.c ****   }
1558:Drivers/STM32F3xx_HAL_Driver/Src/stm32f3xx_hal_uart.c **** 
1559:Drivers/STM32F3xx_HAL_Driver/Src/stm32f3xx_hal_uart.c ****   return HAL_OK;
 2356              		.loc 1 1559 0
 2357 00cc 0023     		movs	r3, #0
 2358              	.L131:
1560:Drivers/STM32F3xx_HAL_Driver/Src/stm32f3xx_hal_uart.c **** }
 2359              		.loc 1 1560 0
 2360 00ce 1846     		mov	r0, r3
 2361 00d0 1037     		adds	r7, r7, #16
 2362              	.LCFI84:
 2363              		.cfi_def_cfa_offset 8
 2364 00d2 BD46     		mov	sp, r7
 2365              	.LCFI85:
 2366              		.cfi_def_cfa_register 13
 2367              		@ sp needed
 2368 00d4 80BD     		pop	{r7, pc}
 2369              		.cfi_endproc
 2370              	.LFE138:
 2372              		.section	.text.HAL_UART_Abort,"ax",%progbits
 2373              		.align	1
 2374              		.global	HAL_UART_Abort
 2375              		.syntax unified
 2376              		.thumb
 2377              		.thumb_func
 2378              		.fpu fpv4-sp-d16
 2380              	HAL_UART_Abort:
 2381              	.LFB139:
1561:Drivers/STM32F3xx_HAL_Driver/Src/stm32f3xx_hal_uart.c **** 
1562:Drivers/STM32F3xx_HAL_Driver/Src/stm32f3xx_hal_uart.c **** /**
1563:Drivers/STM32F3xx_HAL_Driver/Src/stm32f3xx_hal_uart.c ****   * @brief  Abort ongoing transfers (blocking mode).
1564:Drivers/STM32F3xx_HAL_Driver/Src/stm32f3xx_hal_uart.c ****   * @param  huart UART handle.
1565:Drivers/STM32F3xx_HAL_Driver/Src/stm32f3xx_hal_uart.c ****   * @note   This procedure could be used for aborting any ongoing transfer started in Interrupt or 
1566:Drivers/STM32F3xx_HAL_Driver/Src/stm32f3xx_hal_uart.c ****   *         This procedure performs following operations :
1567:Drivers/STM32F3xx_HAL_Driver/Src/stm32f3xx_hal_uart.c ****   *           - Disable UART Interrupts (Tx and Rx)
1568:Drivers/STM32F3xx_HAL_Driver/Src/stm32f3xx_hal_uart.c ****   *           - Disable the DMA transfer in the peripheral register (if enabled)
1569:Drivers/STM32F3xx_HAL_Driver/Src/stm32f3xx_hal_uart.c ****   *           - Abort DMA transfer by calling HAL_DMA_Abort (in case of transfer in DMA mode)
1570:Drivers/STM32F3xx_HAL_Driver/Src/stm32f3xx_hal_uart.c ****   *           - Set handle State to READY
1571:Drivers/STM32F3xx_HAL_Driver/Src/stm32f3xx_hal_uart.c ****   * @note   This procedure is executed in blocking mode : when exiting function, Abort is considere
1572:Drivers/STM32F3xx_HAL_Driver/Src/stm32f3xx_hal_uart.c ****   * @retval HAL status
1573:Drivers/STM32F3xx_HAL_Driver/Src/stm32f3xx_hal_uart.c ****   */
1574:Drivers/STM32F3xx_HAL_Driver/Src/stm32f3xx_hal_uart.c **** HAL_StatusTypeDef HAL_UART_Abort(UART_HandleTypeDef *huart)
1575:Drivers/STM32F3xx_HAL_Driver/Src/stm32f3xx_hal_uart.c **** {
 2382              		.loc 1 1575 0
 2383              		.cfi_startproc
 2384              		@ args = 0, pretend = 0, frame = 8
 2385              		@ frame_needed = 1, uses_anonymous_args = 0
 2386 0000 80B5     		push	{r7, lr}
 2387              	.LCFI86:
 2388              		.cfi_def_cfa_offset 8
 2389              		.cfi_offset 7, -8
ARM GAS  /tmp/ccfCzef7.s 			page 70


 2390              		.cfi_offset 14, -4
 2391 0002 82B0     		sub	sp, sp, #8
 2392              	.LCFI87:
 2393              		.cfi_def_cfa_offset 16
 2394 0004 00AF     		add	r7, sp, #0
 2395              	.LCFI88:
 2396              		.cfi_def_cfa_register 7
 2397 0006 7860     		str	r0, [r7, #4]
1576:Drivers/STM32F3xx_HAL_Driver/Src/stm32f3xx_hal_uart.c ****   /* Disable TXEIE, TCIE, RXNE, PE and ERR (Frame error, noise error, overrun error) interrupts */
1577:Drivers/STM32F3xx_HAL_Driver/Src/stm32f3xx_hal_uart.c ****   CLEAR_BIT(huart->Instance->CR1, (USART_CR1_RXNEIE | USART_CR1_PEIE | USART_CR1_TXEIE | USART_CR1_
 2398              		.loc 1 1577 0
 2399 0008 7B68     		ldr	r3, [r7, #4]
 2400 000a 1B68     		ldr	r3, [r3]
 2401 000c 1A68     		ldr	r2, [r3]
 2402 000e 7B68     		ldr	r3, [r7, #4]
 2403 0010 1B68     		ldr	r3, [r3]
 2404 0012 22F4F072 		bic	r2, r2, #480
 2405 0016 1A60     		str	r2, [r3]
1578:Drivers/STM32F3xx_HAL_Driver/Src/stm32f3xx_hal_uart.c ****   CLEAR_BIT(huart->Instance->CR3, USART_CR3_EIE);
 2406              		.loc 1 1578 0
 2407 0018 7B68     		ldr	r3, [r7, #4]
 2408 001a 1B68     		ldr	r3, [r3]
 2409 001c 9A68     		ldr	r2, [r3, #8]
 2410 001e 7B68     		ldr	r3, [r7, #4]
 2411 0020 1B68     		ldr	r3, [r3]
 2412 0022 22F00102 		bic	r2, r2, #1
 2413 0026 9A60     		str	r2, [r3, #8]
1579:Drivers/STM32F3xx_HAL_Driver/Src/stm32f3xx_hal_uart.c **** 
1580:Drivers/STM32F3xx_HAL_Driver/Src/stm32f3xx_hal_uart.c ****   /* Disable the UART DMA Tx request if enabled */
1581:Drivers/STM32F3xx_HAL_Driver/Src/stm32f3xx_hal_uart.c ****   if (HAL_IS_BIT_SET(huart->Instance->CR3, USART_CR3_DMAT))
 2414              		.loc 1 1581 0
 2415 0028 7B68     		ldr	r3, [r7, #4]
 2416 002a 1B68     		ldr	r3, [r3]
 2417 002c 9B68     		ldr	r3, [r3, #8]
 2418 002e 03F08003 		and	r3, r3, #128
 2419 0032 802B     		cmp	r3, #128
 2420 0034 24D1     		bne	.L135
1582:Drivers/STM32F3xx_HAL_Driver/Src/stm32f3xx_hal_uart.c ****   {
1583:Drivers/STM32F3xx_HAL_Driver/Src/stm32f3xx_hal_uart.c ****     CLEAR_BIT(huart->Instance->CR3, USART_CR3_DMAT);
 2421              		.loc 1 1583 0
 2422 0036 7B68     		ldr	r3, [r7, #4]
 2423 0038 1B68     		ldr	r3, [r3]
 2424 003a 9A68     		ldr	r2, [r3, #8]
 2425 003c 7B68     		ldr	r3, [r7, #4]
 2426 003e 1B68     		ldr	r3, [r3]
 2427 0040 22F08002 		bic	r2, r2, #128
 2428 0044 9A60     		str	r2, [r3, #8]
1584:Drivers/STM32F3xx_HAL_Driver/Src/stm32f3xx_hal_uart.c **** 
1585:Drivers/STM32F3xx_HAL_Driver/Src/stm32f3xx_hal_uart.c ****     /* Abort the UART DMA Tx channel : use blocking DMA Abort API (no callback) */
1586:Drivers/STM32F3xx_HAL_Driver/Src/stm32f3xx_hal_uart.c ****     if (huart->hdmatx != NULL)
 2429              		.loc 1 1586 0
 2430 0046 7B68     		ldr	r3, [r7, #4]
 2431 0048 9B6E     		ldr	r3, [r3, #104]
 2432 004a 002B     		cmp	r3, #0
 2433 004c 18D0     		beq	.L135
1587:Drivers/STM32F3xx_HAL_Driver/Src/stm32f3xx_hal_uart.c ****     {
1588:Drivers/STM32F3xx_HAL_Driver/Src/stm32f3xx_hal_uart.c ****       /* Set the UART DMA Abort callback to Null.
ARM GAS  /tmp/ccfCzef7.s 			page 71


1589:Drivers/STM32F3xx_HAL_Driver/Src/stm32f3xx_hal_uart.c ****          No call back execution at end of DMA abort procedure */
1590:Drivers/STM32F3xx_HAL_Driver/Src/stm32f3xx_hal_uart.c ****       huart->hdmatx->XferAbortCallback = NULL;
 2434              		.loc 1 1590 0
 2435 004e 7B68     		ldr	r3, [r7, #4]
 2436 0050 9B6E     		ldr	r3, [r3, #104]
 2437 0052 0022     		movs	r2, #0
 2438 0054 5A63     		str	r2, [r3, #52]
1591:Drivers/STM32F3xx_HAL_Driver/Src/stm32f3xx_hal_uart.c **** 
1592:Drivers/STM32F3xx_HAL_Driver/Src/stm32f3xx_hal_uart.c ****       if (HAL_DMA_Abort(huart->hdmatx) != HAL_OK)
 2439              		.loc 1 1592 0
 2440 0056 7B68     		ldr	r3, [r7, #4]
 2441 0058 9B6E     		ldr	r3, [r3, #104]
 2442 005a 1846     		mov	r0, r3
 2443 005c FFF7FEFF 		bl	HAL_DMA_Abort
 2444 0060 0346     		mov	r3, r0
 2445 0062 002B     		cmp	r3, #0
 2446 0064 0CD0     		beq	.L135
1593:Drivers/STM32F3xx_HAL_Driver/Src/stm32f3xx_hal_uart.c ****       {
1594:Drivers/STM32F3xx_HAL_Driver/Src/stm32f3xx_hal_uart.c ****         if (HAL_DMA_GetError(huart->hdmatx) == HAL_DMA_ERROR_TIMEOUT)
 2447              		.loc 1 1594 0
 2448 0066 7B68     		ldr	r3, [r7, #4]
 2449 0068 9B6E     		ldr	r3, [r3, #104]
 2450 006a 1846     		mov	r0, r3
 2451 006c FFF7FEFF 		bl	HAL_DMA_GetError
 2452 0070 0346     		mov	r3, r0
 2453 0072 202B     		cmp	r3, #32
 2454 0074 04D1     		bne	.L135
1595:Drivers/STM32F3xx_HAL_Driver/Src/stm32f3xx_hal_uart.c ****         {
1596:Drivers/STM32F3xx_HAL_Driver/Src/stm32f3xx_hal_uart.c ****           /* Set error code to DMA */
1597:Drivers/STM32F3xx_HAL_Driver/Src/stm32f3xx_hal_uart.c ****           huart->ErrorCode = HAL_UART_ERROR_DMA;
 2455              		.loc 1 1597 0
 2456 0076 7B68     		ldr	r3, [r7, #4]
 2457 0078 1022     		movs	r2, #16
 2458 007a DA67     		str	r2, [r3, #124]
1598:Drivers/STM32F3xx_HAL_Driver/Src/stm32f3xx_hal_uart.c **** 
1599:Drivers/STM32F3xx_HAL_Driver/Src/stm32f3xx_hal_uart.c ****           return HAL_TIMEOUT;
 2459              		.loc 1 1599 0
 2460 007c 0323     		movs	r3, #3
 2461 007e 49E0     		b	.L136
 2462              	.L135:
1600:Drivers/STM32F3xx_HAL_Driver/Src/stm32f3xx_hal_uart.c ****         }
1601:Drivers/STM32F3xx_HAL_Driver/Src/stm32f3xx_hal_uart.c ****       }
1602:Drivers/STM32F3xx_HAL_Driver/Src/stm32f3xx_hal_uart.c ****     }
